
asd.elf:     file format elf32-littlearm

Sections:
Idx Name          Size      VMA       LMA       File off  Algn
  0 .isr_vector   000000c0  08000000  08000000  00010000  2**0
                  CONTENTS, ALLOC, LOAD, READONLY, DATA
  1 .text         00006e80  080000c0  080000c0  000100c0  2**2
                  CONTENTS, ALLOC, LOAD, READONLY, CODE
  2 .rodata       000005ec  08006f40  08006f40  00016f40  2**2
                  CONTENTS, ALLOC, LOAD, READONLY, DATA
  3 .init_array   00000004  0800752c  0800752c  0001752c  2**2
                  CONTENTS, ALLOC, LOAD, DATA
  4 .fini_array   00000004  08007530  08007530  00017530  2**2
                  CONTENTS, ALLOC, LOAD, DATA
  5 .data         00000028  20000000  08007534  00020000  2**2
                  CONTENTS, ALLOC, LOAD, DATA
  6 .bss          00000560  20000028  0800755c  00020028  2**2
                  ALLOC
  7 ._user_heap_stack 00000600  20000588  0800755c  00020588  2**0
                  ALLOC
  8 .ARM.attributes 00000028  00000000  00000000  00020028  2**0
                  CONTENTS, READONLY
  9 .debug_info   0001cd99  00000000  00000000  00020050  2**0
                  CONTENTS, READONLY, DEBUGGING
 10 .debug_abbrev 000037b1  00000000  00000000  0003cde9  2**0
                  CONTENTS, READONLY, DEBUGGING
 11 .debug_aranges 00000cd0  00000000  00000000  000405a0  2**3
                  CONTENTS, READONLY, DEBUGGING
 12 .debug_ranges 00000b30  00000000  00000000  00041270  2**3
                  CONTENTS, READONLY, DEBUGGING
 13 .debug_line   0000763c  00000000  00000000  00041da0  2**0
                  CONTENTS, READONLY, DEBUGGING
 14 .debug_str    000047c3  00000000  00000000  000493dc  2**0
                  CONTENTS, READONLY, DEBUGGING
 15 .comment      0000007c  00000000  00000000  0004db9f  2**0
                  CONTENTS, READONLY
 16 .debug_frame  00002be0  00000000  00000000  0004dc1c  2**2
                  CONTENTS, READONLY, DEBUGGING

Disassembly of section .text:

080000c0 <__do_global_dtors_aux>:
 80000c0:	b510      	push	{r4, lr}
 80000c2:	4c06      	ldr	r4, [pc, #24]	; (80000dc <__do_global_dtors_aux+0x1c>)
 80000c4:	7823      	ldrb	r3, [r4, #0]
 80000c6:	2b00      	cmp	r3, #0
 80000c8:	d107      	bne.n	80000da <__do_global_dtors_aux+0x1a>
 80000ca:	4b05      	ldr	r3, [pc, #20]	; (80000e0 <__do_global_dtors_aux+0x20>)
 80000cc:	2b00      	cmp	r3, #0
 80000ce:	d002      	beq.n	80000d6 <__do_global_dtors_aux+0x16>
 80000d0:	4804      	ldr	r0, [pc, #16]	; (80000e4 <__do_global_dtors_aux+0x24>)
 80000d2:	e000      	b.n	80000d6 <__do_global_dtors_aux+0x16>
 80000d4:	bf00      	nop
 80000d6:	2301      	movs	r3, #1
 80000d8:	7023      	strb	r3, [r4, #0]
 80000da:	bd10      	pop	{r4, pc}
 80000dc:	20000028 	.word	0x20000028
 80000e0:	00000000 	.word	0x00000000
 80000e4:	08006f28 	.word	0x08006f28

080000e8 <frame_dummy>:
 80000e8:	4b04      	ldr	r3, [pc, #16]	; (80000fc <frame_dummy+0x14>)
 80000ea:	b510      	push	{r4, lr}
 80000ec:	2b00      	cmp	r3, #0
 80000ee:	d003      	beq.n	80000f8 <frame_dummy+0x10>
 80000f0:	4903      	ldr	r1, [pc, #12]	; (8000100 <frame_dummy+0x18>)
 80000f2:	4804      	ldr	r0, [pc, #16]	; (8000104 <frame_dummy+0x1c>)
 80000f4:	e000      	b.n	80000f8 <frame_dummy+0x10>
 80000f6:	bf00      	nop
 80000f8:	bd10      	pop	{r4, pc}
 80000fa:	46c0      	nop			; (mov r8, r8)
 80000fc:	00000000 	.word	0x00000000
 8000100:	2000002c 	.word	0x2000002c
 8000104:	08006f28 	.word	0x08006f28

08000108 <__udivsi3>:
 8000108:	2200      	movs	r2, #0
 800010a:	0843      	lsrs	r3, r0, #1
 800010c:	428b      	cmp	r3, r1
 800010e:	d374      	bcc.n	80001fa <__udivsi3+0xf2>
 8000110:	0903      	lsrs	r3, r0, #4
 8000112:	428b      	cmp	r3, r1
 8000114:	d35f      	bcc.n	80001d6 <__udivsi3+0xce>
 8000116:	0a03      	lsrs	r3, r0, #8
 8000118:	428b      	cmp	r3, r1
 800011a:	d344      	bcc.n	80001a6 <__udivsi3+0x9e>
 800011c:	0b03      	lsrs	r3, r0, #12
 800011e:	428b      	cmp	r3, r1
 8000120:	d328      	bcc.n	8000174 <__udivsi3+0x6c>
 8000122:	0c03      	lsrs	r3, r0, #16
 8000124:	428b      	cmp	r3, r1
 8000126:	d30d      	bcc.n	8000144 <__udivsi3+0x3c>
 8000128:	22ff      	movs	r2, #255	; 0xff
 800012a:	0209      	lsls	r1, r1, #8
 800012c:	ba12      	rev	r2, r2
 800012e:	0c03      	lsrs	r3, r0, #16
 8000130:	428b      	cmp	r3, r1
 8000132:	d302      	bcc.n	800013a <__udivsi3+0x32>
 8000134:	1212      	asrs	r2, r2, #8
 8000136:	0209      	lsls	r1, r1, #8
 8000138:	d065      	beq.n	8000206 <__udivsi3+0xfe>
 800013a:	0b03      	lsrs	r3, r0, #12
 800013c:	428b      	cmp	r3, r1
 800013e:	d319      	bcc.n	8000174 <__udivsi3+0x6c>
 8000140:	e000      	b.n	8000144 <__udivsi3+0x3c>
 8000142:	0a09      	lsrs	r1, r1, #8
 8000144:	0bc3      	lsrs	r3, r0, #15
 8000146:	428b      	cmp	r3, r1
 8000148:	d301      	bcc.n	800014e <__udivsi3+0x46>
 800014a:	03cb      	lsls	r3, r1, #15
 800014c:	1ac0      	subs	r0, r0, r3
 800014e:	4152      	adcs	r2, r2
 8000150:	0b83      	lsrs	r3, r0, #14
 8000152:	428b      	cmp	r3, r1
 8000154:	d301      	bcc.n	800015a <__udivsi3+0x52>
 8000156:	038b      	lsls	r3, r1, #14
 8000158:	1ac0      	subs	r0, r0, r3
 800015a:	4152      	adcs	r2, r2
 800015c:	0b43      	lsrs	r3, r0, #13
 800015e:	428b      	cmp	r3, r1
 8000160:	d301      	bcc.n	8000166 <__udivsi3+0x5e>
 8000162:	034b      	lsls	r3, r1, #13
 8000164:	1ac0      	subs	r0, r0, r3
 8000166:	4152      	adcs	r2, r2
 8000168:	0b03      	lsrs	r3, r0, #12
 800016a:	428b      	cmp	r3, r1
 800016c:	d301      	bcc.n	8000172 <__udivsi3+0x6a>
 800016e:	030b      	lsls	r3, r1, #12
 8000170:	1ac0      	subs	r0, r0, r3
 8000172:	4152      	adcs	r2, r2
 8000174:	0ac3      	lsrs	r3, r0, #11
 8000176:	428b      	cmp	r3, r1
 8000178:	d301      	bcc.n	800017e <__udivsi3+0x76>
 800017a:	02cb      	lsls	r3, r1, #11
 800017c:	1ac0      	subs	r0, r0, r3
 800017e:	4152      	adcs	r2, r2
 8000180:	0a83      	lsrs	r3, r0, #10
 8000182:	428b      	cmp	r3, r1
 8000184:	d301      	bcc.n	800018a <__udivsi3+0x82>
 8000186:	028b      	lsls	r3, r1, #10
 8000188:	1ac0      	subs	r0, r0, r3
 800018a:	4152      	adcs	r2, r2
 800018c:	0a43      	lsrs	r3, r0, #9
 800018e:	428b      	cmp	r3, r1
 8000190:	d301      	bcc.n	8000196 <__udivsi3+0x8e>
 8000192:	024b      	lsls	r3, r1, #9
 8000194:	1ac0      	subs	r0, r0, r3
 8000196:	4152      	adcs	r2, r2
 8000198:	0a03      	lsrs	r3, r0, #8
 800019a:	428b      	cmp	r3, r1
 800019c:	d301      	bcc.n	80001a2 <__udivsi3+0x9a>
 800019e:	020b      	lsls	r3, r1, #8
 80001a0:	1ac0      	subs	r0, r0, r3
 80001a2:	4152      	adcs	r2, r2
 80001a4:	d2cd      	bcs.n	8000142 <__udivsi3+0x3a>
 80001a6:	09c3      	lsrs	r3, r0, #7
 80001a8:	428b      	cmp	r3, r1
 80001aa:	d301      	bcc.n	80001b0 <__udivsi3+0xa8>
 80001ac:	01cb      	lsls	r3, r1, #7
 80001ae:	1ac0      	subs	r0, r0, r3
 80001b0:	4152      	adcs	r2, r2
 80001b2:	0983      	lsrs	r3, r0, #6
 80001b4:	428b      	cmp	r3, r1
 80001b6:	d301      	bcc.n	80001bc <__udivsi3+0xb4>
 80001b8:	018b      	lsls	r3, r1, #6
 80001ba:	1ac0      	subs	r0, r0, r3
 80001bc:	4152      	adcs	r2, r2
 80001be:	0943      	lsrs	r3, r0, #5
 80001c0:	428b      	cmp	r3, r1
 80001c2:	d301      	bcc.n	80001c8 <__udivsi3+0xc0>
 80001c4:	014b      	lsls	r3, r1, #5
 80001c6:	1ac0      	subs	r0, r0, r3
 80001c8:	4152      	adcs	r2, r2
 80001ca:	0903      	lsrs	r3, r0, #4
 80001cc:	428b      	cmp	r3, r1
 80001ce:	d301      	bcc.n	80001d4 <__udivsi3+0xcc>
 80001d0:	010b      	lsls	r3, r1, #4
 80001d2:	1ac0      	subs	r0, r0, r3
 80001d4:	4152      	adcs	r2, r2
 80001d6:	08c3      	lsrs	r3, r0, #3
 80001d8:	428b      	cmp	r3, r1
 80001da:	d301      	bcc.n	80001e0 <__udivsi3+0xd8>
 80001dc:	00cb      	lsls	r3, r1, #3
 80001de:	1ac0      	subs	r0, r0, r3
 80001e0:	4152      	adcs	r2, r2
 80001e2:	0883      	lsrs	r3, r0, #2
 80001e4:	428b      	cmp	r3, r1
 80001e6:	d301      	bcc.n	80001ec <__udivsi3+0xe4>
 80001e8:	008b      	lsls	r3, r1, #2
 80001ea:	1ac0      	subs	r0, r0, r3
 80001ec:	4152      	adcs	r2, r2
 80001ee:	0843      	lsrs	r3, r0, #1
 80001f0:	428b      	cmp	r3, r1
 80001f2:	d301      	bcc.n	80001f8 <__udivsi3+0xf0>
 80001f4:	004b      	lsls	r3, r1, #1
 80001f6:	1ac0      	subs	r0, r0, r3
 80001f8:	4152      	adcs	r2, r2
 80001fa:	1a41      	subs	r1, r0, r1
 80001fc:	d200      	bcs.n	8000200 <__udivsi3+0xf8>
 80001fe:	4601      	mov	r1, r0
 8000200:	4152      	adcs	r2, r2
 8000202:	4610      	mov	r0, r2
 8000204:	4770      	bx	lr
 8000206:	e7ff      	b.n	8000208 <__udivsi3+0x100>
 8000208:	b501      	push	{r0, lr}
 800020a:	2000      	movs	r0, #0
 800020c:	f000 f806 	bl	800021c <__aeabi_idiv0>
 8000210:	bd02      	pop	{r1, pc}
 8000212:	46c0      	nop			; (mov r8, r8)

08000214 <__aeabi_uidivmod>:
 8000214:	2900      	cmp	r1, #0
 8000216:	d0f7      	beq.n	8000208 <__udivsi3+0x100>
 8000218:	e776      	b.n	8000108 <__udivsi3>
 800021a:	4770      	bx	lr

0800021c <__aeabi_idiv0>:
 800021c:	4770      	bx	lr
 800021e:	46c0      	nop			; (mov r8, r8)

08000220 <__aeabi_d2uiz>:
 8000220:	b570      	push	{r4, r5, r6, lr}
 8000222:	2200      	movs	r2, #0
 8000224:	4b0c      	ldr	r3, [pc, #48]	; (8000258 <__aeabi_d2uiz+0x38>)
 8000226:	0004      	movs	r4, r0
 8000228:	000d      	movs	r5, r1
 800022a:	f001 f881 	bl	8001330 <__aeabi_dcmpge>
 800022e:	2800      	cmp	r0, #0
 8000230:	d104      	bne.n	800023c <__aeabi_d2uiz+0x1c>
 8000232:	0020      	movs	r0, r4
 8000234:	0029      	movs	r1, r5
 8000236:	f000 ffc1 	bl	80011bc <__aeabi_d2iz>
 800023a:	bd70      	pop	{r4, r5, r6, pc}
 800023c:	4b06      	ldr	r3, [pc, #24]	; (8000258 <__aeabi_d2uiz+0x38>)
 800023e:	2200      	movs	r2, #0
 8000240:	0020      	movs	r0, r4
 8000242:	0029      	movs	r1, r5
 8000244:	f000 fca4 	bl	8000b90 <__aeabi_dsub>
 8000248:	f000 ffb8 	bl	80011bc <__aeabi_d2iz>
 800024c:	2380      	movs	r3, #128	; 0x80
 800024e:	061b      	lsls	r3, r3, #24
 8000250:	469c      	mov	ip, r3
 8000252:	4460      	add	r0, ip
 8000254:	e7f1      	b.n	800023a <__aeabi_d2uiz+0x1a>
 8000256:	46c0      	nop			; (mov r8, r8)
 8000258:	41e00000 	.word	0x41e00000

0800025c <__aeabi_fmul>:
 800025c:	b5f8      	push	{r3, r4, r5, r6, r7, lr}
 800025e:	4657      	mov	r7, sl
 8000260:	464e      	mov	r6, r9
 8000262:	4645      	mov	r5, r8
 8000264:	46de      	mov	lr, fp
 8000266:	b5e0      	push	{r5, r6, r7, lr}
 8000268:	0247      	lsls	r7, r0, #9
 800026a:	0046      	lsls	r6, r0, #1
 800026c:	4688      	mov	r8, r1
 800026e:	0a7f      	lsrs	r7, r7, #9
 8000270:	0e36      	lsrs	r6, r6, #24
 8000272:	0fc4      	lsrs	r4, r0, #31
 8000274:	2e00      	cmp	r6, #0
 8000276:	d047      	beq.n	8000308 <__aeabi_fmul+0xac>
 8000278:	2eff      	cmp	r6, #255	; 0xff
 800027a:	d024      	beq.n	80002c6 <__aeabi_fmul+0x6a>
 800027c:	00fb      	lsls	r3, r7, #3
 800027e:	2780      	movs	r7, #128	; 0x80
 8000280:	04ff      	lsls	r7, r7, #19
 8000282:	431f      	orrs	r7, r3
 8000284:	2300      	movs	r3, #0
 8000286:	4699      	mov	r9, r3
 8000288:	469a      	mov	sl, r3
 800028a:	3e7f      	subs	r6, #127	; 0x7f
 800028c:	4643      	mov	r3, r8
 800028e:	025d      	lsls	r5, r3, #9
 8000290:	0058      	lsls	r0, r3, #1
 8000292:	0fdb      	lsrs	r3, r3, #31
 8000294:	0a6d      	lsrs	r5, r5, #9
 8000296:	0e00      	lsrs	r0, r0, #24
 8000298:	4698      	mov	r8, r3
 800029a:	d043      	beq.n	8000324 <__aeabi_fmul+0xc8>
 800029c:	28ff      	cmp	r0, #255	; 0xff
 800029e:	d03b      	beq.n	8000318 <__aeabi_fmul+0xbc>
 80002a0:	00eb      	lsls	r3, r5, #3
 80002a2:	2580      	movs	r5, #128	; 0x80
 80002a4:	2200      	movs	r2, #0
 80002a6:	04ed      	lsls	r5, r5, #19
 80002a8:	431d      	orrs	r5, r3
 80002aa:	387f      	subs	r0, #127	; 0x7f
 80002ac:	1836      	adds	r6, r6, r0
 80002ae:	1c73      	adds	r3, r6, #1
 80002b0:	4641      	mov	r1, r8
 80002b2:	469b      	mov	fp, r3
 80002b4:	464b      	mov	r3, r9
 80002b6:	4061      	eors	r1, r4
 80002b8:	4313      	orrs	r3, r2
 80002ba:	2b0f      	cmp	r3, #15
 80002bc:	d864      	bhi.n	8000388 <__aeabi_fmul+0x12c>
 80002be:	4875      	ldr	r0, [pc, #468]	; (8000494 <__aeabi_fmul+0x238>)
 80002c0:	009b      	lsls	r3, r3, #2
 80002c2:	58c3      	ldr	r3, [r0, r3]
 80002c4:	469f      	mov	pc, r3
 80002c6:	2f00      	cmp	r7, #0
 80002c8:	d142      	bne.n	8000350 <__aeabi_fmul+0xf4>
 80002ca:	2308      	movs	r3, #8
 80002cc:	4699      	mov	r9, r3
 80002ce:	3b06      	subs	r3, #6
 80002d0:	26ff      	movs	r6, #255	; 0xff
 80002d2:	469a      	mov	sl, r3
 80002d4:	e7da      	b.n	800028c <__aeabi_fmul+0x30>
 80002d6:	4641      	mov	r1, r8
 80002d8:	2a02      	cmp	r2, #2
 80002da:	d028      	beq.n	800032e <__aeabi_fmul+0xd2>
 80002dc:	2a03      	cmp	r2, #3
 80002de:	d100      	bne.n	80002e2 <__aeabi_fmul+0x86>
 80002e0:	e0ce      	b.n	8000480 <__aeabi_fmul+0x224>
 80002e2:	2a01      	cmp	r2, #1
 80002e4:	d000      	beq.n	80002e8 <__aeabi_fmul+0x8c>
 80002e6:	e0ac      	b.n	8000442 <__aeabi_fmul+0x1e6>
 80002e8:	4011      	ands	r1, r2
 80002ea:	2000      	movs	r0, #0
 80002ec:	2200      	movs	r2, #0
 80002ee:	b2cc      	uxtb	r4, r1
 80002f0:	0240      	lsls	r0, r0, #9
 80002f2:	05d2      	lsls	r2, r2, #23
 80002f4:	0a40      	lsrs	r0, r0, #9
 80002f6:	07e4      	lsls	r4, r4, #31
 80002f8:	4310      	orrs	r0, r2
 80002fa:	4320      	orrs	r0, r4
 80002fc:	bc3c      	pop	{r2, r3, r4, r5}
 80002fe:	4690      	mov	r8, r2
 8000300:	4699      	mov	r9, r3
 8000302:	46a2      	mov	sl, r4
 8000304:	46ab      	mov	fp, r5
 8000306:	bdf8      	pop	{r3, r4, r5, r6, r7, pc}
 8000308:	2f00      	cmp	r7, #0
 800030a:	d115      	bne.n	8000338 <__aeabi_fmul+0xdc>
 800030c:	2304      	movs	r3, #4
 800030e:	4699      	mov	r9, r3
 8000310:	3b03      	subs	r3, #3
 8000312:	2600      	movs	r6, #0
 8000314:	469a      	mov	sl, r3
 8000316:	e7b9      	b.n	800028c <__aeabi_fmul+0x30>
 8000318:	20ff      	movs	r0, #255	; 0xff
 800031a:	2202      	movs	r2, #2
 800031c:	2d00      	cmp	r5, #0
 800031e:	d0c5      	beq.n	80002ac <__aeabi_fmul+0x50>
 8000320:	2203      	movs	r2, #3
 8000322:	e7c3      	b.n	80002ac <__aeabi_fmul+0x50>
 8000324:	2d00      	cmp	r5, #0
 8000326:	d119      	bne.n	800035c <__aeabi_fmul+0x100>
 8000328:	2000      	movs	r0, #0
 800032a:	2201      	movs	r2, #1
 800032c:	e7be      	b.n	80002ac <__aeabi_fmul+0x50>
 800032e:	2401      	movs	r4, #1
 8000330:	22ff      	movs	r2, #255	; 0xff
 8000332:	400c      	ands	r4, r1
 8000334:	2000      	movs	r0, #0
 8000336:	e7db      	b.n	80002f0 <__aeabi_fmul+0x94>
 8000338:	0038      	movs	r0, r7
 800033a:	f001 f803 	bl	8001344 <__clzsi2>
 800033e:	2676      	movs	r6, #118	; 0x76
 8000340:	1f43      	subs	r3, r0, #5
 8000342:	409f      	lsls	r7, r3
 8000344:	2300      	movs	r3, #0
 8000346:	4276      	negs	r6, r6
 8000348:	1a36      	subs	r6, r6, r0
 800034a:	4699      	mov	r9, r3
 800034c:	469a      	mov	sl, r3
 800034e:	e79d      	b.n	800028c <__aeabi_fmul+0x30>
 8000350:	230c      	movs	r3, #12
 8000352:	4699      	mov	r9, r3
 8000354:	3b09      	subs	r3, #9
 8000356:	26ff      	movs	r6, #255	; 0xff
 8000358:	469a      	mov	sl, r3
 800035a:	e797      	b.n	800028c <__aeabi_fmul+0x30>
 800035c:	0028      	movs	r0, r5
 800035e:	f000 fff1 	bl	8001344 <__clzsi2>
 8000362:	1f43      	subs	r3, r0, #5
 8000364:	409d      	lsls	r5, r3
 8000366:	2376      	movs	r3, #118	; 0x76
 8000368:	425b      	negs	r3, r3
 800036a:	1a18      	subs	r0, r3, r0
 800036c:	2200      	movs	r2, #0
 800036e:	e79d      	b.n	80002ac <__aeabi_fmul+0x50>
 8000370:	2080      	movs	r0, #128	; 0x80
 8000372:	2400      	movs	r4, #0
 8000374:	03c0      	lsls	r0, r0, #15
 8000376:	22ff      	movs	r2, #255	; 0xff
 8000378:	e7ba      	b.n	80002f0 <__aeabi_fmul+0x94>
 800037a:	003d      	movs	r5, r7
 800037c:	4652      	mov	r2, sl
 800037e:	e7ab      	b.n	80002d8 <__aeabi_fmul+0x7c>
 8000380:	003d      	movs	r5, r7
 8000382:	0021      	movs	r1, r4
 8000384:	4652      	mov	r2, sl
 8000386:	e7a7      	b.n	80002d8 <__aeabi_fmul+0x7c>
 8000388:	0c3b      	lsrs	r3, r7, #16
 800038a:	469c      	mov	ip, r3
 800038c:	042a      	lsls	r2, r5, #16
 800038e:	0c12      	lsrs	r2, r2, #16
 8000390:	0c2b      	lsrs	r3, r5, #16
 8000392:	0014      	movs	r4, r2
 8000394:	4660      	mov	r0, ip
 8000396:	4665      	mov	r5, ip
 8000398:	043f      	lsls	r7, r7, #16
 800039a:	0c3f      	lsrs	r7, r7, #16
 800039c:	437c      	muls	r4, r7
 800039e:	4342      	muls	r2, r0
 80003a0:	435d      	muls	r5, r3
 80003a2:	437b      	muls	r3, r7
 80003a4:	0c27      	lsrs	r7, r4, #16
 80003a6:	189b      	adds	r3, r3, r2
 80003a8:	18ff      	adds	r7, r7, r3
 80003aa:	42ba      	cmp	r2, r7
 80003ac:	d903      	bls.n	80003b6 <__aeabi_fmul+0x15a>
 80003ae:	2380      	movs	r3, #128	; 0x80
 80003b0:	025b      	lsls	r3, r3, #9
 80003b2:	469c      	mov	ip, r3
 80003b4:	4465      	add	r5, ip
 80003b6:	0424      	lsls	r4, r4, #16
 80003b8:	043a      	lsls	r2, r7, #16
 80003ba:	0c24      	lsrs	r4, r4, #16
 80003bc:	1912      	adds	r2, r2, r4
 80003be:	0193      	lsls	r3, r2, #6
 80003c0:	1e5c      	subs	r4, r3, #1
 80003c2:	41a3      	sbcs	r3, r4
 80003c4:	0c3f      	lsrs	r7, r7, #16
 80003c6:	0e92      	lsrs	r2, r2, #26
 80003c8:	197d      	adds	r5, r7, r5
 80003ca:	431a      	orrs	r2, r3
 80003cc:	01ad      	lsls	r5, r5, #6
 80003ce:	4315      	orrs	r5, r2
 80003d0:	012b      	lsls	r3, r5, #4
 80003d2:	d504      	bpl.n	80003de <__aeabi_fmul+0x182>
 80003d4:	2301      	movs	r3, #1
 80003d6:	465e      	mov	r6, fp
 80003d8:	086a      	lsrs	r2, r5, #1
 80003da:	401d      	ands	r5, r3
 80003dc:	4315      	orrs	r5, r2
 80003de:	0032      	movs	r2, r6
 80003e0:	327f      	adds	r2, #127	; 0x7f
 80003e2:	2a00      	cmp	r2, #0
 80003e4:	dd25      	ble.n	8000432 <__aeabi_fmul+0x1d6>
 80003e6:	076b      	lsls	r3, r5, #29
 80003e8:	d004      	beq.n	80003f4 <__aeabi_fmul+0x198>
 80003ea:	230f      	movs	r3, #15
 80003ec:	402b      	ands	r3, r5
 80003ee:	2b04      	cmp	r3, #4
 80003f0:	d000      	beq.n	80003f4 <__aeabi_fmul+0x198>
 80003f2:	3504      	adds	r5, #4
 80003f4:	012b      	lsls	r3, r5, #4
 80003f6:	d503      	bpl.n	8000400 <__aeabi_fmul+0x1a4>
 80003f8:	0032      	movs	r2, r6
 80003fa:	4b27      	ldr	r3, [pc, #156]	; (8000498 <__aeabi_fmul+0x23c>)
 80003fc:	3280      	adds	r2, #128	; 0x80
 80003fe:	401d      	ands	r5, r3
 8000400:	2afe      	cmp	r2, #254	; 0xfe
 8000402:	dc94      	bgt.n	800032e <__aeabi_fmul+0xd2>
 8000404:	2401      	movs	r4, #1
 8000406:	01a8      	lsls	r0, r5, #6
 8000408:	0a40      	lsrs	r0, r0, #9
 800040a:	b2d2      	uxtb	r2, r2
 800040c:	400c      	ands	r4, r1
 800040e:	e76f      	b.n	80002f0 <__aeabi_fmul+0x94>
 8000410:	2080      	movs	r0, #128	; 0x80
 8000412:	03c0      	lsls	r0, r0, #15
 8000414:	4207      	tst	r7, r0
 8000416:	d007      	beq.n	8000428 <__aeabi_fmul+0x1cc>
 8000418:	4205      	tst	r5, r0
 800041a:	d105      	bne.n	8000428 <__aeabi_fmul+0x1cc>
 800041c:	4328      	orrs	r0, r5
 800041e:	0240      	lsls	r0, r0, #9
 8000420:	0a40      	lsrs	r0, r0, #9
 8000422:	4644      	mov	r4, r8
 8000424:	22ff      	movs	r2, #255	; 0xff
 8000426:	e763      	b.n	80002f0 <__aeabi_fmul+0x94>
 8000428:	4338      	orrs	r0, r7
 800042a:	0240      	lsls	r0, r0, #9
 800042c:	0a40      	lsrs	r0, r0, #9
 800042e:	22ff      	movs	r2, #255	; 0xff
 8000430:	e75e      	b.n	80002f0 <__aeabi_fmul+0x94>
 8000432:	2401      	movs	r4, #1
 8000434:	1aa3      	subs	r3, r4, r2
 8000436:	2b1b      	cmp	r3, #27
 8000438:	dd05      	ble.n	8000446 <__aeabi_fmul+0x1ea>
 800043a:	400c      	ands	r4, r1
 800043c:	2200      	movs	r2, #0
 800043e:	2000      	movs	r0, #0
 8000440:	e756      	b.n	80002f0 <__aeabi_fmul+0x94>
 8000442:	465e      	mov	r6, fp
 8000444:	e7cb      	b.n	80003de <__aeabi_fmul+0x182>
 8000446:	002a      	movs	r2, r5
 8000448:	2020      	movs	r0, #32
 800044a:	40da      	lsrs	r2, r3
 800044c:	1ac3      	subs	r3, r0, r3
 800044e:	409d      	lsls	r5, r3
 8000450:	002b      	movs	r3, r5
 8000452:	1e5d      	subs	r5, r3, #1
 8000454:	41ab      	sbcs	r3, r5
 8000456:	4313      	orrs	r3, r2
 8000458:	075a      	lsls	r2, r3, #29
 800045a:	d004      	beq.n	8000466 <__aeabi_fmul+0x20a>
 800045c:	220f      	movs	r2, #15
 800045e:	401a      	ands	r2, r3
 8000460:	2a04      	cmp	r2, #4
 8000462:	d000      	beq.n	8000466 <__aeabi_fmul+0x20a>
 8000464:	3304      	adds	r3, #4
 8000466:	015a      	lsls	r2, r3, #5
 8000468:	d504      	bpl.n	8000474 <__aeabi_fmul+0x218>
 800046a:	2401      	movs	r4, #1
 800046c:	2201      	movs	r2, #1
 800046e:	400c      	ands	r4, r1
 8000470:	2000      	movs	r0, #0
 8000472:	e73d      	b.n	80002f0 <__aeabi_fmul+0x94>
 8000474:	2401      	movs	r4, #1
 8000476:	019b      	lsls	r3, r3, #6
 8000478:	0a58      	lsrs	r0, r3, #9
 800047a:	400c      	ands	r4, r1
 800047c:	2200      	movs	r2, #0
 800047e:	e737      	b.n	80002f0 <__aeabi_fmul+0x94>
 8000480:	2080      	movs	r0, #128	; 0x80
 8000482:	2401      	movs	r4, #1
 8000484:	03c0      	lsls	r0, r0, #15
 8000486:	4328      	orrs	r0, r5
 8000488:	0240      	lsls	r0, r0, #9
 800048a:	0a40      	lsrs	r0, r0, #9
 800048c:	400c      	ands	r4, r1
 800048e:	22ff      	movs	r2, #255	; 0xff
 8000490:	e72e      	b.n	80002f0 <__aeabi_fmul+0x94>
 8000492:	46c0      	nop			; (mov r8, r8)
 8000494:	08006f84 	.word	0x08006f84
 8000498:	f7ffffff 	.word	0xf7ffffff

0800049c <__aeabi_ui2f>:
 800049c:	b510      	push	{r4, lr}
 800049e:	1e04      	subs	r4, r0, #0
 80004a0:	d027      	beq.n	80004f2 <__aeabi_ui2f+0x56>
 80004a2:	f000 ff4f 	bl	8001344 <__clzsi2>
 80004a6:	239e      	movs	r3, #158	; 0x9e
 80004a8:	1a1b      	subs	r3, r3, r0
 80004aa:	2b96      	cmp	r3, #150	; 0x96
 80004ac:	dc0a      	bgt.n	80004c4 <__aeabi_ui2f+0x28>
 80004ae:	2296      	movs	r2, #150	; 0x96
 80004b0:	1ad2      	subs	r2, r2, r3
 80004b2:	4094      	lsls	r4, r2
 80004b4:	0264      	lsls	r4, r4, #9
 80004b6:	0a64      	lsrs	r4, r4, #9
 80004b8:	b2db      	uxtb	r3, r3
 80004ba:	0264      	lsls	r4, r4, #9
 80004bc:	05db      	lsls	r3, r3, #23
 80004be:	0a60      	lsrs	r0, r4, #9
 80004c0:	4318      	orrs	r0, r3
 80004c2:	bd10      	pop	{r4, pc}
 80004c4:	2b99      	cmp	r3, #153	; 0x99
 80004c6:	dc17      	bgt.n	80004f8 <__aeabi_ui2f+0x5c>
 80004c8:	2299      	movs	r2, #153	; 0x99
 80004ca:	1ad2      	subs	r2, r2, r3
 80004cc:	2a00      	cmp	r2, #0
 80004ce:	dd27      	ble.n	8000520 <__aeabi_ui2f+0x84>
 80004d0:	4094      	lsls	r4, r2
 80004d2:	0022      	movs	r2, r4
 80004d4:	4c13      	ldr	r4, [pc, #76]	; (8000524 <__aeabi_ui2f+0x88>)
 80004d6:	4014      	ands	r4, r2
 80004d8:	0751      	lsls	r1, r2, #29
 80004da:	d004      	beq.n	80004e6 <__aeabi_ui2f+0x4a>
 80004dc:	210f      	movs	r1, #15
 80004de:	400a      	ands	r2, r1
 80004e0:	2a04      	cmp	r2, #4
 80004e2:	d000      	beq.n	80004e6 <__aeabi_ui2f+0x4a>
 80004e4:	3404      	adds	r4, #4
 80004e6:	0162      	lsls	r2, r4, #5
 80004e8:	d412      	bmi.n	8000510 <__aeabi_ui2f+0x74>
 80004ea:	01a4      	lsls	r4, r4, #6
 80004ec:	0a64      	lsrs	r4, r4, #9
 80004ee:	b2db      	uxtb	r3, r3
 80004f0:	e7e3      	b.n	80004ba <__aeabi_ui2f+0x1e>
 80004f2:	2300      	movs	r3, #0
 80004f4:	2400      	movs	r4, #0
 80004f6:	e7e0      	b.n	80004ba <__aeabi_ui2f+0x1e>
 80004f8:	22b9      	movs	r2, #185	; 0xb9
 80004fa:	0021      	movs	r1, r4
 80004fc:	1ad2      	subs	r2, r2, r3
 80004fe:	4091      	lsls	r1, r2
 8000500:	000a      	movs	r2, r1
 8000502:	1e51      	subs	r1, r2, #1
 8000504:	418a      	sbcs	r2, r1
 8000506:	2105      	movs	r1, #5
 8000508:	1a09      	subs	r1, r1, r0
 800050a:	40cc      	lsrs	r4, r1
 800050c:	4314      	orrs	r4, r2
 800050e:	e7db      	b.n	80004c8 <__aeabi_ui2f+0x2c>
 8000510:	4b04      	ldr	r3, [pc, #16]	; (8000524 <__aeabi_ui2f+0x88>)
 8000512:	401c      	ands	r4, r3
 8000514:	239f      	movs	r3, #159	; 0x9f
 8000516:	01a4      	lsls	r4, r4, #6
 8000518:	1a1b      	subs	r3, r3, r0
 800051a:	0a64      	lsrs	r4, r4, #9
 800051c:	b2db      	uxtb	r3, r3
 800051e:	e7cc      	b.n	80004ba <__aeabi_ui2f+0x1e>
 8000520:	0022      	movs	r2, r4
 8000522:	e7d7      	b.n	80004d4 <__aeabi_ui2f+0x38>
 8000524:	fbffffff 	.word	0xfbffffff

08000528 <__aeabi_ddiv>:
 8000528:	b5f0      	push	{r4, r5, r6, r7, lr}
 800052a:	4657      	mov	r7, sl
 800052c:	4645      	mov	r5, r8
 800052e:	46de      	mov	lr, fp
 8000530:	464e      	mov	r6, r9
 8000532:	b5e0      	push	{r5, r6, r7, lr}
 8000534:	004c      	lsls	r4, r1, #1
 8000536:	030e      	lsls	r6, r1, #12
 8000538:	b087      	sub	sp, #28
 800053a:	4683      	mov	fp, r0
 800053c:	4692      	mov	sl, r2
 800053e:	001d      	movs	r5, r3
 8000540:	4680      	mov	r8, r0
 8000542:	0b36      	lsrs	r6, r6, #12
 8000544:	0d64      	lsrs	r4, r4, #21
 8000546:	0fcf      	lsrs	r7, r1, #31
 8000548:	2c00      	cmp	r4, #0
 800054a:	d04f      	beq.n	80005ec <__aeabi_ddiv+0xc4>
 800054c:	4b6f      	ldr	r3, [pc, #444]	; (800070c <__aeabi_ddiv+0x1e4>)
 800054e:	429c      	cmp	r4, r3
 8000550:	d035      	beq.n	80005be <__aeabi_ddiv+0x96>
 8000552:	2380      	movs	r3, #128	; 0x80
 8000554:	0f42      	lsrs	r2, r0, #29
 8000556:	041b      	lsls	r3, r3, #16
 8000558:	00f6      	lsls	r6, r6, #3
 800055a:	4313      	orrs	r3, r2
 800055c:	4333      	orrs	r3, r6
 800055e:	4699      	mov	r9, r3
 8000560:	00c3      	lsls	r3, r0, #3
 8000562:	4698      	mov	r8, r3
 8000564:	4b6a      	ldr	r3, [pc, #424]	; (8000710 <__aeabi_ddiv+0x1e8>)
 8000566:	2600      	movs	r6, #0
 8000568:	469c      	mov	ip, r3
 800056a:	2300      	movs	r3, #0
 800056c:	4464      	add	r4, ip
 800056e:	9303      	str	r3, [sp, #12]
 8000570:	032b      	lsls	r3, r5, #12
 8000572:	0b1b      	lsrs	r3, r3, #12
 8000574:	469b      	mov	fp, r3
 8000576:	006b      	lsls	r3, r5, #1
 8000578:	0fed      	lsrs	r5, r5, #31
 800057a:	4650      	mov	r0, sl
 800057c:	0d5b      	lsrs	r3, r3, #21
 800057e:	9501      	str	r5, [sp, #4]
 8000580:	d05e      	beq.n	8000640 <__aeabi_ddiv+0x118>
 8000582:	4a62      	ldr	r2, [pc, #392]	; (800070c <__aeabi_ddiv+0x1e4>)
 8000584:	4293      	cmp	r3, r2
 8000586:	d053      	beq.n	8000630 <__aeabi_ddiv+0x108>
 8000588:	465a      	mov	r2, fp
 800058a:	00d1      	lsls	r1, r2, #3
 800058c:	2280      	movs	r2, #128	; 0x80
 800058e:	0f40      	lsrs	r0, r0, #29
 8000590:	0412      	lsls	r2, r2, #16
 8000592:	4302      	orrs	r2, r0
 8000594:	430a      	orrs	r2, r1
 8000596:	4693      	mov	fp, r2
 8000598:	4652      	mov	r2, sl
 800059a:	00d1      	lsls	r1, r2, #3
 800059c:	4a5c      	ldr	r2, [pc, #368]	; (8000710 <__aeabi_ddiv+0x1e8>)
 800059e:	4694      	mov	ip, r2
 80005a0:	2200      	movs	r2, #0
 80005a2:	4463      	add	r3, ip
 80005a4:	0038      	movs	r0, r7
 80005a6:	4068      	eors	r0, r5
 80005a8:	4684      	mov	ip, r0
 80005aa:	9002      	str	r0, [sp, #8]
 80005ac:	1ae4      	subs	r4, r4, r3
 80005ae:	4316      	orrs	r6, r2
 80005b0:	2e0f      	cmp	r6, #15
 80005b2:	d900      	bls.n	80005b6 <__aeabi_ddiv+0x8e>
 80005b4:	e0b4      	b.n	8000720 <__aeabi_ddiv+0x1f8>
 80005b6:	4b57      	ldr	r3, [pc, #348]	; (8000714 <__aeabi_ddiv+0x1ec>)
 80005b8:	00b6      	lsls	r6, r6, #2
 80005ba:	599b      	ldr	r3, [r3, r6]
 80005bc:	469f      	mov	pc, r3
 80005be:	0003      	movs	r3, r0
 80005c0:	4333      	orrs	r3, r6
 80005c2:	4699      	mov	r9, r3
 80005c4:	d16c      	bne.n	80006a0 <__aeabi_ddiv+0x178>
 80005c6:	2300      	movs	r3, #0
 80005c8:	4698      	mov	r8, r3
 80005ca:	3302      	adds	r3, #2
 80005cc:	2608      	movs	r6, #8
 80005ce:	9303      	str	r3, [sp, #12]
 80005d0:	e7ce      	b.n	8000570 <__aeabi_ddiv+0x48>
 80005d2:	46cb      	mov	fp, r9
 80005d4:	4641      	mov	r1, r8
 80005d6:	9a03      	ldr	r2, [sp, #12]
 80005d8:	9701      	str	r7, [sp, #4]
 80005da:	2a02      	cmp	r2, #2
 80005dc:	d165      	bne.n	80006aa <__aeabi_ddiv+0x182>
 80005de:	9b01      	ldr	r3, [sp, #4]
 80005e0:	4c4a      	ldr	r4, [pc, #296]	; (800070c <__aeabi_ddiv+0x1e4>)
 80005e2:	469c      	mov	ip, r3
 80005e4:	2300      	movs	r3, #0
 80005e6:	2200      	movs	r2, #0
 80005e8:	4698      	mov	r8, r3
 80005ea:	e06b      	b.n	80006c4 <__aeabi_ddiv+0x19c>
 80005ec:	0003      	movs	r3, r0
 80005ee:	4333      	orrs	r3, r6
 80005f0:	4699      	mov	r9, r3
 80005f2:	d04e      	beq.n	8000692 <__aeabi_ddiv+0x16a>
 80005f4:	2e00      	cmp	r6, #0
 80005f6:	d100      	bne.n	80005fa <__aeabi_ddiv+0xd2>
 80005f8:	e1bc      	b.n	8000974 <__aeabi_ddiv+0x44c>
 80005fa:	0030      	movs	r0, r6
 80005fc:	f000 fea2 	bl	8001344 <__clzsi2>
 8000600:	0003      	movs	r3, r0
 8000602:	3b0b      	subs	r3, #11
 8000604:	2b1c      	cmp	r3, #28
 8000606:	dd00      	ble.n	800060a <__aeabi_ddiv+0xe2>
 8000608:	e1ac      	b.n	8000964 <__aeabi_ddiv+0x43c>
 800060a:	221d      	movs	r2, #29
 800060c:	1ad3      	subs	r3, r2, r3
 800060e:	465a      	mov	r2, fp
 8000610:	0001      	movs	r1, r0
 8000612:	40da      	lsrs	r2, r3
 8000614:	3908      	subs	r1, #8
 8000616:	408e      	lsls	r6, r1
 8000618:	0013      	movs	r3, r2
 800061a:	4333      	orrs	r3, r6
 800061c:	4699      	mov	r9, r3
 800061e:	465b      	mov	r3, fp
 8000620:	408b      	lsls	r3, r1
 8000622:	4698      	mov	r8, r3
 8000624:	2300      	movs	r3, #0
 8000626:	4c3c      	ldr	r4, [pc, #240]	; (8000718 <__aeabi_ddiv+0x1f0>)
 8000628:	2600      	movs	r6, #0
 800062a:	1a24      	subs	r4, r4, r0
 800062c:	9303      	str	r3, [sp, #12]
 800062e:	e79f      	b.n	8000570 <__aeabi_ddiv+0x48>
 8000630:	4651      	mov	r1, sl
 8000632:	465a      	mov	r2, fp
 8000634:	4311      	orrs	r1, r2
 8000636:	d129      	bne.n	800068c <__aeabi_ddiv+0x164>
 8000638:	2200      	movs	r2, #0
 800063a:	4693      	mov	fp, r2
 800063c:	3202      	adds	r2, #2
 800063e:	e7b1      	b.n	80005a4 <__aeabi_ddiv+0x7c>
 8000640:	4659      	mov	r1, fp
 8000642:	4301      	orrs	r1, r0
 8000644:	d01e      	beq.n	8000684 <__aeabi_ddiv+0x15c>
 8000646:	465b      	mov	r3, fp
 8000648:	2b00      	cmp	r3, #0
 800064a:	d100      	bne.n	800064e <__aeabi_ddiv+0x126>
 800064c:	e19e      	b.n	800098c <__aeabi_ddiv+0x464>
 800064e:	4658      	mov	r0, fp
 8000650:	f000 fe78 	bl	8001344 <__clzsi2>
 8000654:	0003      	movs	r3, r0
 8000656:	3b0b      	subs	r3, #11
 8000658:	2b1c      	cmp	r3, #28
 800065a:	dd00      	ble.n	800065e <__aeabi_ddiv+0x136>
 800065c:	e18f      	b.n	800097e <__aeabi_ddiv+0x456>
 800065e:	0002      	movs	r2, r0
 8000660:	4659      	mov	r1, fp
 8000662:	3a08      	subs	r2, #8
 8000664:	4091      	lsls	r1, r2
 8000666:	468b      	mov	fp, r1
 8000668:	211d      	movs	r1, #29
 800066a:	1acb      	subs	r3, r1, r3
 800066c:	4651      	mov	r1, sl
 800066e:	40d9      	lsrs	r1, r3
 8000670:	000b      	movs	r3, r1
 8000672:	4659      	mov	r1, fp
 8000674:	430b      	orrs	r3, r1
 8000676:	4651      	mov	r1, sl
 8000678:	469b      	mov	fp, r3
 800067a:	4091      	lsls	r1, r2
 800067c:	4b26      	ldr	r3, [pc, #152]	; (8000718 <__aeabi_ddiv+0x1f0>)
 800067e:	2200      	movs	r2, #0
 8000680:	1a1b      	subs	r3, r3, r0
 8000682:	e78f      	b.n	80005a4 <__aeabi_ddiv+0x7c>
 8000684:	2300      	movs	r3, #0
 8000686:	2201      	movs	r2, #1
 8000688:	469b      	mov	fp, r3
 800068a:	e78b      	b.n	80005a4 <__aeabi_ddiv+0x7c>
 800068c:	4651      	mov	r1, sl
 800068e:	2203      	movs	r2, #3
 8000690:	e788      	b.n	80005a4 <__aeabi_ddiv+0x7c>
 8000692:	2300      	movs	r3, #0
 8000694:	4698      	mov	r8, r3
 8000696:	3301      	adds	r3, #1
 8000698:	2604      	movs	r6, #4
 800069a:	2400      	movs	r4, #0
 800069c:	9303      	str	r3, [sp, #12]
 800069e:	e767      	b.n	8000570 <__aeabi_ddiv+0x48>
 80006a0:	2303      	movs	r3, #3
 80006a2:	46b1      	mov	r9, r6
 80006a4:	9303      	str	r3, [sp, #12]
 80006a6:	260c      	movs	r6, #12
 80006a8:	e762      	b.n	8000570 <__aeabi_ddiv+0x48>
 80006aa:	2a03      	cmp	r2, #3
 80006ac:	d100      	bne.n	80006b0 <__aeabi_ddiv+0x188>
 80006ae:	e25c      	b.n	8000b6a <__aeabi_ddiv+0x642>
 80006b0:	9b01      	ldr	r3, [sp, #4]
 80006b2:	2a01      	cmp	r2, #1
 80006b4:	d000      	beq.n	80006b8 <__aeabi_ddiv+0x190>
 80006b6:	e1e4      	b.n	8000a82 <__aeabi_ddiv+0x55a>
 80006b8:	4013      	ands	r3, r2
 80006ba:	469c      	mov	ip, r3
 80006bc:	2300      	movs	r3, #0
 80006be:	2400      	movs	r4, #0
 80006c0:	2200      	movs	r2, #0
 80006c2:	4698      	mov	r8, r3
 80006c4:	2100      	movs	r1, #0
 80006c6:	0312      	lsls	r2, r2, #12
 80006c8:	0b13      	lsrs	r3, r2, #12
 80006ca:	0d0a      	lsrs	r2, r1, #20
 80006cc:	0512      	lsls	r2, r2, #20
 80006ce:	431a      	orrs	r2, r3
 80006d0:	0523      	lsls	r3, r4, #20
 80006d2:	4c12      	ldr	r4, [pc, #72]	; (800071c <__aeabi_ddiv+0x1f4>)
 80006d4:	4640      	mov	r0, r8
 80006d6:	4022      	ands	r2, r4
 80006d8:	4313      	orrs	r3, r2
 80006da:	4662      	mov	r2, ip
 80006dc:	005b      	lsls	r3, r3, #1
 80006de:	07d2      	lsls	r2, r2, #31
 80006e0:	085b      	lsrs	r3, r3, #1
 80006e2:	4313      	orrs	r3, r2
 80006e4:	0019      	movs	r1, r3
 80006e6:	b007      	add	sp, #28
 80006e8:	bc3c      	pop	{r2, r3, r4, r5}
 80006ea:	4690      	mov	r8, r2
 80006ec:	4699      	mov	r9, r3
 80006ee:	46a2      	mov	sl, r4
 80006f0:	46ab      	mov	fp, r5
 80006f2:	bdf0      	pop	{r4, r5, r6, r7, pc}
 80006f4:	2300      	movs	r3, #0
 80006f6:	2280      	movs	r2, #128	; 0x80
 80006f8:	469c      	mov	ip, r3
 80006fa:	0312      	lsls	r2, r2, #12
 80006fc:	4698      	mov	r8, r3
 80006fe:	4c03      	ldr	r4, [pc, #12]	; (800070c <__aeabi_ddiv+0x1e4>)
 8000700:	e7e0      	b.n	80006c4 <__aeabi_ddiv+0x19c>
 8000702:	2300      	movs	r3, #0
 8000704:	4c01      	ldr	r4, [pc, #4]	; (800070c <__aeabi_ddiv+0x1e4>)
 8000706:	2200      	movs	r2, #0
 8000708:	4698      	mov	r8, r3
 800070a:	e7db      	b.n	80006c4 <__aeabi_ddiv+0x19c>
 800070c:	000007ff 	.word	0x000007ff
 8000710:	fffffc01 	.word	0xfffffc01
 8000714:	08006fc4 	.word	0x08006fc4
 8000718:	fffffc0d 	.word	0xfffffc0d
 800071c:	800fffff 	.word	0x800fffff
 8000720:	45d9      	cmp	r9, fp
 8000722:	d900      	bls.n	8000726 <__aeabi_ddiv+0x1fe>
 8000724:	e139      	b.n	800099a <__aeabi_ddiv+0x472>
 8000726:	d100      	bne.n	800072a <__aeabi_ddiv+0x202>
 8000728:	e134      	b.n	8000994 <__aeabi_ddiv+0x46c>
 800072a:	2300      	movs	r3, #0
 800072c:	4646      	mov	r6, r8
 800072e:	464d      	mov	r5, r9
 8000730:	469a      	mov	sl, r3
 8000732:	3c01      	subs	r4, #1
 8000734:	465b      	mov	r3, fp
 8000736:	0e0a      	lsrs	r2, r1, #24
 8000738:	021b      	lsls	r3, r3, #8
 800073a:	431a      	orrs	r2, r3
 800073c:	020b      	lsls	r3, r1, #8
 800073e:	0c17      	lsrs	r7, r2, #16
 8000740:	9303      	str	r3, [sp, #12]
 8000742:	0413      	lsls	r3, r2, #16
 8000744:	0c1b      	lsrs	r3, r3, #16
 8000746:	0039      	movs	r1, r7
 8000748:	0028      	movs	r0, r5
 800074a:	4690      	mov	r8, r2
 800074c:	9301      	str	r3, [sp, #4]
 800074e:	f7ff fcdb 	bl	8000108 <__udivsi3>
 8000752:	0002      	movs	r2, r0
 8000754:	9b01      	ldr	r3, [sp, #4]
 8000756:	4683      	mov	fp, r0
 8000758:	435a      	muls	r2, r3
 800075a:	0028      	movs	r0, r5
 800075c:	0039      	movs	r1, r7
 800075e:	4691      	mov	r9, r2
 8000760:	f7ff fd58 	bl	8000214 <__aeabi_uidivmod>
 8000764:	0c35      	lsrs	r5, r6, #16
 8000766:	0409      	lsls	r1, r1, #16
 8000768:	430d      	orrs	r5, r1
 800076a:	45a9      	cmp	r9, r5
 800076c:	d90d      	bls.n	800078a <__aeabi_ddiv+0x262>
 800076e:	465b      	mov	r3, fp
 8000770:	4445      	add	r5, r8
 8000772:	3b01      	subs	r3, #1
 8000774:	45a8      	cmp	r8, r5
 8000776:	d900      	bls.n	800077a <__aeabi_ddiv+0x252>
 8000778:	e13a      	b.n	80009f0 <__aeabi_ddiv+0x4c8>
 800077a:	45a9      	cmp	r9, r5
 800077c:	d800      	bhi.n	8000780 <__aeabi_ddiv+0x258>
 800077e:	e137      	b.n	80009f0 <__aeabi_ddiv+0x4c8>
 8000780:	2302      	movs	r3, #2
 8000782:	425b      	negs	r3, r3
 8000784:	469c      	mov	ip, r3
 8000786:	4445      	add	r5, r8
 8000788:	44e3      	add	fp, ip
 800078a:	464b      	mov	r3, r9
 800078c:	1aeb      	subs	r3, r5, r3
 800078e:	0039      	movs	r1, r7
 8000790:	0018      	movs	r0, r3
 8000792:	9304      	str	r3, [sp, #16]
 8000794:	f7ff fcb8 	bl	8000108 <__udivsi3>
 8000798:	9b01      	ldr	r3, [sp, #4]
 800079a:	0005      	movs	r5, r0
 800079c:	4343      	muls	r3, r0
 800079e:	0039      	movs	r1, r7
 80007a0:	9804      	ldr	r0, [sp, #16]
 80007a2:	4699      	mov	r9, r3
 80007a4:	f7ff fd36 	bl	8000214 <__aeabi_uidivmod>
 80007a8:	0433      	lsls	r3, r6, #16
 80007aa:	0409      	lsls	r1, r1, #16
 80007ac:	0c1b      	lsrs	r3, r3, #16
 80007ae:	430b      	orrs	r3, r1
 80007b0:	4599      	cmp	r9, r3
 80007b2:	d909      	bls.n	80007c8 <__aeabi_ddiv+0x2a0>
 80007b4:	4443      	add	r3, r8
 80007b6:	1e6a      	subs	r2, r5, #1
 80007b8:	4598      	cmp	r8, r3
 80007ba:	d900      	bls.n	80007be <__aeabi_ddiv+0x296>
 80007bc:	e11a      	b.n	80009f4 <__aeabi_ddiv+0x4cc>
 80007be:	4599      	cmp	r9, r3
 80007c0:	d800      	bhi.n	80007c4 <__aeabi_ddiv+0x29c>
 80007c2:	e117      	b.n	80009f4 <__aeabi_ddiv+0x4cc>
 80007c4:	3d02      	subs	r5, #2
 80007c6:	4443      	add	r3, r8
 80007c8:	464a      	mov	r2, r9
 80007ca:	1a9b      	subs	r3, r3, r2
 80007cc:	465a      	mov	r2, fp
 80007ce:	0412      	lsls	r2, r2, #16
 80007d0:	432a      	orrs	r2, r5
 80007d2:	9903      	ldr	r1, [sp, #12]
 80007d4:	4693      	mov	fp, r2
 80007d6:	0c10      	lsrs	r0, r2, #16
 80007d8:	0c0a      	lsrs	r2, r1, #16
 80007da:	4691      	mov	r9, r2
 80007dc:	0409      	lsls	r1, r1, #16
 80007de:	465a      	mov	r2, fp
 80007e0:	0c09      	lsrs	r1, r1, #16
 80007e2:	464e      	mov	r6, r9
 80007e4:	000d      	movs	r5, r1
 80007e6:	0412      	lsls	r2, r2, #16
 80007e8:	0c12      	lsrs	r2, r2, #16
 80007ea:	4345      	muls	r5, r0
 80007ec:	9105      	str	r1, [sp, #20]
 80007ee:	4351      	muls	r1, r2
 80007f0:	4372      	muls	r2, r6
 80007f2:	4370      	muls	r0, r6
 80007f4:	1952      	adds	r2, r2, r5
 80007f6:	0c0e      	lsrs	r6, r1, #16
 80007f8:	18b2      	adds	r2, r6, r2
 80007fa:	4295      	cmp	r5, r2
 80007fc:	d903      	bls.n	8000806 <__aeabi_ddiv+0x2de>
 80007fe:	2580      	movs	r5, #128	; 0x80
 8000800:	026d      	lsls	r5, r5, #9
 8000802:	46ac      	mov	ip, r5
 8000804:	4460      	add	r0, ip
 8000806:	0c15      	lsrs	r5, r2, #16
 8000808:	0409      	lsls	r1, r1, #16
 800080a:	0412      	lsls	r2, r2, #16
 800080c:	0c09      	lsrs	r1, r1, #16
 800080e:	1828      	adds	r0, r5, r0
 8000810:	1852      	adds	r2, r2, r1
 8000812:	4283      	cmp	r3, r0
 8000814:	d200      	bcs.n	8000818 <__aeabi_ddiv+0x2f0>
 8000816:	e0ce      	b.n	80009b6 <__aeabi_ddiv+0x48e>
 8000818:	d100      	bne.n	800081c <__aeabi_ddiv+0x2f4>
 800081a:	e0c8      	b.n	80009ae <__aeabi_ddiv+0x486>
 800081c:	1a1d      	subs	r5, r3, r0
 800081e:	4653      	mov	r3, sl
 8000820:	1a9e      	subs	r6, r3, r2
 8000822:	45b2      	cmp	sl, r6
 8000824:	4192      	sbcs	r2, r2
 8000826:	4252      	negs	r2, r2
 8000828:	1aab      	subs	r3, r5, r2
 800082a:	469a      	mov	sl, r3
 800082c:	4598      	cmp	r8, r3
 800082e:	d100      	bne.n	8000832 <__aeabi_ddiv+0x30a>
 8000830:	e117      	b.n	8000a62 <__aeabi_ddiv+0x53a>
 8000832:	0039      	movs	r1, r7
 8000834:	0018      	movs	r0, r3
 8000836:	f7ff fc67 	bl	8000108 <__udivsi3>
 800083a:	9b01      	ldr	r3, [sp, #4]
 800083c:	0005      	movs	r5, r0
 800083e:	4343      	muls	r3, r0
 8000840:	0039      	movs	r1, r7
 8000842:	4650      	mov	r0, sl
 8000844:	9304      	str	r3, [sp, #16]
 8000846:	f7ff fce5 	bl	8000214 <__aeabi_uidivmod>
 800084a:	9804      	ldr	r0, [sp, #16]
 800084c:	040b      	lsls	r3, r1, #16
 800084e:	0c31      	lsrs	r1, r6, #16
 8000850:	4319      	orrs	r1, r3
 8000852:	4288      	cmp	r0, r1
 8000854:	d909      	bls.n	800086a <__aeabi_ddiv+0x342>
 8000856:	4441      	add	r1, r8
 8000858:	1e6b      	subs	r3, r5, #1
 800085a:	4588      	cmp	r8, r1
 800085c:	d900      	bls.n	8000860 <__aeabi_ddiv+0x338>
 800085e:	e107      	b.n	8000a70 <__aeabi_ddiv+0x548>
 8000860:	4288      	cmp	r0, r1
 8000862:	d800      	bhi.n	8000866 <__aeabi_ddiv+0x33e>
 8000864:	e104      	b.n	8000a70 <__aeabi_ddiv+0x548>
 8000866:	3d02      	subs	r5, #2
 8000868:	4441      	add	r1, r8
 800086a:	9b04      	ldr	r3, [sp, #16]
 800086c:	1acb      	subs	r3, r1, r3
 800086e:	0018      	movs	r0, r3
 8000870:	0039      	movs	r1, r7
 8000872:	9304      	str	r3, [sp, #16]
 8000874:	f7ff fc48 	bl	8000108 <__udivsi3>
 8000878:	9b01      	ldr	r3, [sp, #4]
 800087a:	4682      	mov	sl, r0
 800087c:	4343      	muls	r3, r0
 800087e:	0039      	movs	r1, r7
 8000880:	9804      	ldr	r0, [sp, #16]
 8000882:	9301      	str	r3, [sp, #4]
 8000884:	f7ff fcc6 	bl	8000214 <__aeabi_uidivmod>
 8000888:	9801      	ldr	r0, [sp, #4]
 800088a:	040b      	lsls	r3, r1, #16
 800088c:	0431      	lsls	r1, r6, #16
 800088e:	0c09      	lsrs	r1, r1, #16
 8000890:	4319      	orrs	r1, r3
 8000892:	4288      	cmp	r0, r1
 8000894:	d90d      	bls.n	80008b2 <__aeabi_ddiv+0x38a>
 8000896:	4653      	mov	r3, sl
 8000898:	4441      	add	r1, r8
 800089a:	3b01      	subs	r3, #1
 800089c:	4588      	cmp	r8, r1
 800089e:	d900      	bls.n	80008a2 <__aeabi_ddiv+0x37a>
 80008a0:	e0e8      	b.n	8000a74 <__aeabi_ddiv+0x54c>
 80008a2:	4288      	cmp	r0, r1
 80008a4:	d800      	bhi.n	80008a8 <__aeabi_ddiv+0x380>
 80008a6:	e0e5      	b.n	8000a74 <__aeabi_ddiv+0x54c>
 80008a8:	2302      	movs	r3, #2
 80008aa:	425b      	negs	r3, r3
 80008ac:	469c      	mov	ip, r3
 80008ae:	4441      	add	r1, r8
 80008b0:	44e2      	add	sl, ip
 80008b2:	9b01      	ldr	r3, [sp, #4]
 80008b4:	042d      	lsls	r5, r5, #16
 80008b6:	1ace      	subs	r6, r1, r3
 80008b8:	4651      	mov	r1, sl
 80008ba:	4329      	orrs	r1, r5
 80008bc:	9d05      	ldr	r5, [sp, #20]
 80008be:	464f      	mov	r7, r9
 80008c0:	002a      	movs	r2, r5
 80008c2:	040b      	lsls	r3, r1, #16
 80008c4:	0c08      	lsrs	r0, r1, #16
 80008c6:	0c1b      	lsrs	r3, r3, #16
 80008c8:	435a      	muls	r2, r3
 80008ca:	4345      	muls	r5, r0
 80008cc:	437b      	muls	r3, r7
 80008ce:	4378      	muls	r0, r7
 80008d0:	195b      	adds	r3, r3, r5
 80008d2:	0c17      	lsrs	r7, r2, #16
 80008d4:	18fb      	adds	r3, r7, r3
 80008d6:	429d      	cmp	r5, r3
 80008d8:	d903      	bls.n	80008e2 <__aeabi_ddiv+0x3ba>
 80008da:	2580      	movs	r5, #128	; 0x80
 80008dc:	026d      	lsls	r5, r5, #9
 80008de:	46ac      	mov	ip, r5
 80008e0:	4460      	add	r0, ip
 80008e2:	0c1d      	lsrs	r5, r3, #16
 80008e4:	0412      	lsls	r2, r2, #16
 80008e6:	041b      	lsls	r3, r3, #16
 80008e8:	0c12      	lsrs	r2, r2, #16
 80008ea:	1828      	adds	r0, r5, r0
 80008ec:	189b      	adds	r3, r3, r2
 80008ee:	4286      	cmp	r6, r0
 80008f0:	d200      	bcs.n	80008f4 <__aeabi_ddiv+0x3cc>
 80008f2:	e093      	b.n	8000a1c <__aeabi_ddiv+0x4f4>
 80008f4:	d100      	bne.n	80008f8 <__aeabi_ddiv+0x3d0>
 80008f6:	e08e      	b.n	8000a16 <__aeabi_ddiv+0x4ee>
 80008f8:	2301      	movs	r3, #1
 80008fa:	4319      	orrs	r1, r3
 80008fc:	4ba0      	ldr	r3, [pc, #640]	; (8000b80 <__aeabi_ddiv+0x658>)
 80008fe:	18e3      	adds	r3, r4, r3
 8000900:	2b00      	cmp	r3, #0
 8000902:	dc00      	bgt.n	8000906 <__aeabi_ddiv+0x3de>
 8000904:	e099      	b.n	8000a3a <__aeabi_ddiv+0x512>
 8000906:	074a      	lsls	r2, r1, #29
 8000908:	d000      	beq.n	800090c <__aeabi_ddiv+0x3e4>
 800090a:	e09e      	b.n	8000a4a <__aeabi_ddiv+0x522>
 800090c:	465a      	mov	r2, fp
 800090e:	01d2      	lsls	r2, r2, #7
 8000910:	d506      	bpl.n	8000920 <__aeabi_ddiv+0x3f8>
 8000912:	465a      	mov	r2, fp
 8000914:	4b9b      	ldr	r3, [pc, #620]	; (8000b84 <__aeabi_ddiv+0x65c>)
 8000916:	401a      	ands	r2, r3
 8000918:	2380      	movs	r3, #128	; 0x80
 800091a:	4693      	mov	fp, r2
 800091c:	00db      	lsls	r3, r3, #3
 800091e:	18e3      	adds	r3, r4, r3
 8000920:	4a99      	ldr	r2, [pc, #612]	; (8000b88 <__aeabi_ddiv+0x660>)
 8000922:	4293      	cmp	r3, r2
 8000924:	dd68      	ble.n	80009f8 <__aeabi_ddiv+0x4d0>
 8000926:	2301      	movs	r3, #1
 8000928:	9a02      	ldr	r2, [sp, #8]
 800092a:	4c98      	ldr	r4, [pc, #608]	; (8000b8c <__aeabi_ddiv+0x664>)
 800092c:	401a      	ands	r2, r3
 800092e:	2300      	movs	r3, #0
 8000930:	4694      	mov	ip, r2
 8000932:	4698      	mov	r8, r3
 8000934:	2200      	movs	r2, #0
 8000936:	e6c5      	b.n	80006c4 <__aeabi_ddiv+0x19c>
 8000938:	2280      	movs	r2, #128	; 0x80
 800093a:	464b      	mov	r3, r9
 800093c:	0312      	lsls	r2, r2, #12
 800093e:	4213      	tst	r3, r2
 8000940:	d00a      	beq.n	8000958 <__aeabi_ddiv+0x430>
 8000942:	465b      	mov	r3, fp
 8000944:	4213      	tst	r3, r2
 8000946:	d106      	bne.n	8000956 <__aeabi_ddiv+0x42e>
 8000948:	431a      	orrs	r2, r3
 800094a:	0312      	lsls	r2, r2, #12
 800094c:	0b12      	lsrs	r2, r2, #12
 800094e:	46ac      	mov	ip, r5
 8000950:	4688      	mov	r8, r1
 8000952:	4c8e      	ldr	r4, [pc, #568]	; (8000b8c <__aeabi_ddiv+0x664>)
 8000954:	e6b6      	b.n	80006c4 <__aeabi_ddiv+0x19c>
 8000956:	464b      	mov	r3, r9
 8000958:	431a      	orrs	r2, r3
 800095a:	0312      	lsls	r2, r2, #12
 800095c:	0b12      	lsrs	r2, r2, #12
 800095e:	46bc      	mov	ip, r7
 8000960:	4c8a      	ldr	r4, [pc, #552]	; (8000b8c <__aeabi_ddiv+0x664>)
 8000962:	e6af      	b.n	80006c4 <__aeabi_ddiv+0x19c>
 8000964:	0003      	movs	r3, r0
 8000966:	465a      	mov	r2, fp
 8000968:	3b28      	subs	r3, #40	; 0x28
 800096a:	409a      	lsls	r2, r3
 800096c:	2300      	movs	r3, #0
 800096e:	4691      	mov	r9, r2
 8000970:	4698      	mov	r8, r3
 8000972:	e657      	b.n	8000624 <__aeabi_ddiv+0xfc>
 8000974:	4658      	mov	r0, fp
 8000976:	f000 fce5 	bl	8001344 <__clzsi2>
 800097a:	3020      	adds	r0, #32
 800097c:	e640      	b.n	8000600 <__aeabi_ddiv+0xd8>
 800097e:	0003      	movs	r3, r0
 8000980:	4652      	mov	r2, sl
 8000982:	3b28      	subs	r3, #40	; 0x28
 8000984:	409a      	lsls	r2, r3
 8000986:	2100      	movs	r1, #0
 8000988:	4693      	mov	fp, r2
 800098a:	e677      	b.n	800067c <__aeabi_ddiv+0x154>
 800098c:	f000 fcda 	bl	8001344 <__clzsi2>
 8000990:	3020      	adds	r0, #32
 8000992:	e65f      	b.n	8000654 <__aeabi_ddiv+0x12c>
 8000994:	4588      	cmp	r8, r1
 8000996:	d200      	bcs.n	800099a <__aeabi_ddiv+0x472>
 8000998:	e6c7      	b.n	800072a <__aeabi_ddiv+0x202>
 800099a:	464b      	mov	r3, r9
 800099c:	07de      	lsls	r6, r3, #31
 800099e:	085d      	lsrs	r5, r3, #1
 80009a0:	4643      	mov	r3, r8
 80009a2:	085b      	lsrs	r3, r3, #1
 80009a4:	431e      	orrs	r6, r3
 80009a6:	4643      	mov	r3, r8
 80009a8:	07db      	lsls	r3, r3, #31
 80009aa:	469a      	mov	sl, r3
 80009ac:	e6c2      	b.n	8000734 <__aeabi_ddiv+0x20c>
 80009ae:	2500      	movs	r5, #0
 80009b0:	4592      	cmp	sl, r2
 80009b2:	d300      	bcc.n	80009b6 <__aeabi_ddiv+0x48e>
 80009b4:	e733      	b.n	800081e <__aeabi_ddiv+0x2f6>
 80009b6:	9e03      	ldr	r6, [sp, #12]
 80009b8:	4659      	mov	r1, fp
 80009ba:	46b4      	mov	ip, r6
 80009bc:	44e2      	add	sl, ip
 80009be:	45b2      	cmp	sl, r6
 80009c0:	41ad      	sbcs	r5, r5
 80009c2:	426d      	negs	r5, r5
 80009c4:	4445      	add	r5, r8
 80009c6:	18eb      	adds	r3, r5, r3
 80009c8:	3901      	subs	r1, #1
 80009ca:	4598      	cmp	r8, r3
 80009cc:	d207      	bcs.n	80009de <__aeabi_ddiv+0x4b6>
 80009ce:	4298      	cmp	r0, r3
 80009d0:	d900      	bls.n	80009d4 <__aeabi_ddiv+0x4ac>
 80009d2:	e07f      	b.n	8000ad4 <__aeabi_ddiv+0x5ac>
 80009d4:	d100      	bne.n	80009d8 <__aeabi_ddiv+0x4b0>
 80009d6:	e0bc      	b.n	8000b52 <__aeabi_ddiv+0x62a>
 80009d8:	1a1d      	subs	r5, r3, r0
 80009da:	468b      	mov	fp, r1
 80009dc:	e71f      	b.n	800081e <__aeabi_ddiv+0x2f6>
 80009de:	4598      	cmp	r8, r3
 80009e0:	d1fa      	bne.n	80009d8 <__aeabi_ddiv+0x4b0>
 80009e2:	9d03      	ldr	r5, [sp, #12]
 80009e4:	4555      	cmp	r5, sl
 80009e6:	d9f2      	bls.n	80009ce <__aeabi_ddiv+0x4a6>
 80009e8:	4643      	mov	r3, r8
 80009ea:	468b      	mov	fp, r1
 80009ec:	1a1d      	subs	r5, r3, r0
 80009ee:	e716      	b.n	800081e <__aeabi_ddiv+0x2f6>
 80009f0:	469b      	mov	fp, r3
 80009f2:	e6ca      	b.n	800078a <__aeabi_ddiv+0x262>
 80009f4:	0015      	movs	r5, r2
 80009f6:	e6e7      	b.n	80007c8 <__aeabi_ddiv+0x2a0>
 80009f8:	465a      	mov	r2, fp
 80009fa:	08c9      	lsrs	r1, r1, #3
 80009fc:	0752      	lsls	r2, r2, #29
 80009fe:	430a      	orrs	r2, r1
 8000a00:	055b      	lsls	r3, r3, #21
 8000a02:	4690      	mov	r8, r2
 8000a04:	0d5c      	lsrs	r4, r3, #21
 8000a06:	465a      	mov	r2, fp
 8000a08:	2301      	movs	r3, #1
 8000a0a:	9902      	ldr	r1, [sp, #8]
 8000a0c:	0252      	lsls	r2, r2, #9
 8000a0e:	4019      	ands	r1, r3
 8000a10:	0b12      	lsrs	r2, r2, #12
 8000a12:	468c      	mov	ip, r1
 8000a14:	e656      	b.n	80006c4 <__aeabi_ddiv+0x19c>
 8000a16:	2b00      	cmp	r3, #0
 8000a18:	d100      	bne.n	8000a1c <__aeabi_ddiv+0x4f4>
 8000a1a:	e76f      	b.n	80008fc <__aeabi_ddiv+0x3d4>
 8000a1c:	4446      	add	r6, r8
 8000a1e:	1e4a      	subs	r2, r1, #1
 8000a20:	45b0      	cmp	r8, r6
 8000a22:	d929      	bls.n	8000a78 <__aeabi_ddiv+0x550>
 8000a24:	0011      	movs	r1, r2
 8000a26:	4286      	cmp	r6, r0
 8000a28:	d000      	beq.n	8000a2c <__aeabi_ddiv+0x504>
 8000a2a:	e765      	b.n	80008f8 <__aeabi_ddiv+0x3d0>
 8000a2c:	9a03      	ldr	r2, [sp, #12]
 8000a2e:	4293      	cmp	r3, r2
 8000a30:	d000      	beq.n	8000a34 <__aeabi_ddiv+0x50c>
 8000a32:	e761      	b.n	80008f8 <__aeabi_ddiv+0x3d0>
 8000a34:	e762      	b.n	80008fc <__aeabi_ddiv+0x3d4>
 8000a36:	2101      	movs	r1, #1
 8000a38:	4249      	negs	r1, r1
 8000a3a:	2001      	movs	r0, #1
 8000a3c:	1ac2      	subs	r2, r0, r3
 8000a3e:	2a38      	cmp	r2, #56	; 0x38
 8000a40:	dd21      	ble.n	8000a86 <__aeabi_ddiv+0x55e>
 8000a42:	9b02      	ldr	r3, [sp, #8]
 8000a44:	4003      	ands	r3, r0
 8000a46:	469c      	mov	ip, r3
 8000a48:	e638      	b.n	80006bc <__aeabi_ddiv+0x194>
 8000a4a:	220f      	movs	r2, #15
 8000a4c:	400a      	ands	r2, r1
 8000a4e:	2a04      	cmp	r2, #4
 8000a50:	d100      	bne.n	8000a54 <__aeabi_ddiv+0x52c>
 8000a52:	e75b      	b.n	800090c <__aeabi_ddiv+0x3e4>
 8000a54:	000a      	movs	r2, r1
 8000a56:	1d11      	adds	r1, r2, #4
 8000a58:	4291      	cmp	r1, r2
 8000a5a:	4192      	sbcs	r2, r2
 8000a5c:	4252      	negs	r2, r2
 8000a5e:	4493      	add	fp, r2
 8000a60:	e754      	b.n	800090c <__aeabi_ddiv+0x3e4>
 8000a62:	4b47      	ldr	r3, [pc, #284]	; (8000b80 <__aeabi_ddiv+0x658>)
 8000a64:	18e3      	adds	r3, r4, r3
 8000a66:	2b00      	cmp	r3, #0
 8000a68:	dde5      	ble.n	8000a36 <__aeabi_ddiv+0x50e>
 8000a6a:	2201      	movs	r2, #1
 8000a6c:	4252      	negs	r2, r2
 8000a6e:	e7f2      	b.n	8000a56 <__aeabi_ddiv+0x52e>
 8000a70:	001d      	movs	r5, r3
 8000a72:	e6fa      	b.n	800086a <__aeabi_ddiv+0x342>
 8000a74:	469a      	mov	sl, r3
 8000a76:	e71c      	b.n	80008b2 <__aeabi_ddiv+0x38a>
 8000a78:	42b0      	cmp	r0, r6
 8000a7a:	d839      	bhi.n	8000af0 <__aeabi_ddiv+0x5c8>
 8000a7c:	d06e      	beq.n	8000b5c <__aeabi_ddiv+0x634>
 8000a7e:	0011      	movs	r1, r2
 8000a80:	e73a      	b.n	80008f8 <__aeabi_ddiv+0x3d0>
 8000a82:	9302      	str	r3, [sp, #8]
 8000a84:	e73a      	b.n	80008fc <__aeabi_ddiv+0x3d4>
 8000a86:	2a1f      	cmp	r2, #31
 8000a88:	dc3c      	bgt.n	8000b04 <__aeabi_ddiv+0x5dc>
 8000a8a:	2320      	movs	r3, #32
 8000a8c:	1a9b      	subs	r3, r3, r2
 8000a8e:	000c      	movs	r4, r1
 8000a90:	4658      	mov	r0, fp
 8000a92:	4099      	lsls	r1, r3
 8000a94:	4098      	lsls	r0, r3
 8000a96:	1e4b      	subs	r3, r1, #1
 8000a98:	4199      	sbcs	r1, r3
 8000a9a:	465b      	mov	r3, fp
 8000a9c:	40d4      	lsrs	r4, r2
 8000a9e:	40d3      	lsrs	r3, r2
 8000aa0:	4320      	orrs	r0, r4
 8000aa2:	4308      	orrs	r0, r1
 8000aa4:	001a      	movs	r2, r3
 8000aa6:	0743      	lsls	r3, r0, #29
 8000aa8:	d009      	beq.n	8000abe <__aeabi_ddiv+0x596>
 8000aaa:	230f      	movs	r3, #15
 8000aac:	4003      	ands	r3, r0
 8000aae:	2b04      	cmp	r3, #4
 8000ab0:	d005      	beq.n	8000abe <__aeabi_ddiv+0x596>
 8000ab2:	0001      	movs	r1, r0
 8000ab4:	1d08      	adds	r0, r1, #4
 8000ab6:	4288      	cmp	r0, r1
 8000ab8:	419b      	sbcs	r3, r3
 8000aba:	425b      	negs	r3, r3
 8000abc:	18d2      	adds	r2, r2, r3
 8000abe:	0213      	lsls	r3, r2, #8
 8000ac0:	d53a      	bpl.n	8000b38 <__aeabi_ddiv+0x610>
 8000ac2:	2301      	movs	r3, #1
 8000ac4:	9a02      	ldr	r2, [sp, #8]
 8000ac6:	2401      	movs	r4, #1
 8000ac8:	401a      	ands	r2, r3
 8000aca:	2300      	movs	r3, #0
 8000acc:	4694      	mov	ip, r2
 8000ace:	4698      	mov	r8, r3
 8000ad0:	2200      	movs	r2, #0
 8000ad2:	e5f7      	b.n	80006c4 <__aeabi_ddiv+0x19c>
 8000ad4:	2102      	movs	r1, #2
 8000ad6:	4249      	negs	r1, r1
 8000ad8:	468c      	mov	ip, r1
 8000ada:	9d03      	ldr	r5, [sp, #12]
 8000adc:	44e3      	add	fp, ip
 8000ade:	46ac      	mov	ip, r5
 8000ae0:	44e2      	add	sl, ip
 8000ae2:	45aa      	cmp	sl, r5
 8000ae4:	41ad      	sbcs	r5, r5
 8000ae6:	426d      	negs	r5, r5
 8000ae8:	4445      	add	r5, r8
 8000aea:	18ed      	adds	r5, r5, r3
 8000aec:	1a2d      	subs	r5, r5, r0
 8000aee:	e696      	b.n	800081e <__aeabi_ddiv+0x2f6>
 8000af0:	1e8a      	subs	r2, r1, #2
 8000af2:	9903      	ldr	r1, [sp, #12]
 8000af4:	004d      	lsls	r5, r1, #1
 8000af6:	428d      	cmp	r5, r1
 8000af8:	4189      	sbcs	r1, r1
 8000afa:	4249      	negs	r1, r1
 8000afc:	4441      	add	r1, r8
 8000afe:	1876      	adds	r6, r6, r1
 8000b00:	9503      	str	r5, [sp, #12]
 8000b02:	e78f      	b.n	8000a24 <__aeabi_ddiv+0x4fc>
 8000b04:	201f      	movs	r0, #31
 8000b06:	4240      	negs	r0, r0
 8000b08:	1ac3      	subs	r3, r0, r3
 8000b0a:	4658      	mov	r0, fp
 8000b0c:	40d8      	lsrs	r0, r3
 8000b0e:	0003      	movs	r3, r0
 8000b10:	2a20      	cmp	r2, #32
 8000b12:	d028      	beq.n	8000b66 <__aeabi_ddiv+0x63e>
 8000b14:	2040      	movs	r0, #64	; 0x40
 8000b16:	465d      	mov	r5, fp
 8000b18:	1a82      	subs	r2, r0, r2
 8000b1a:	4095      	lsls	r5, r2
 8000b1c:	4329      	orrs	r1, r5
 8000b1e:	1e4a      	subs	r2, r1, #1
 8000b20:	4191      	sbcs	r1, r2
 8000b22:	4319      	orrs	r1, r3
 8000b24:	2307      	movs	r3, #7
 8000b26:	2200      	movs	r2, #0
 8000b28:	400b      	ands	r3, r1
 8000b2a:	d009      	beq.n	8000b40 <__aeabi_ddiv+0x618>
 8000b2c:	230f      	movs	r3, #15
 8000b2e:	2200      	movs	r2, #0
 8000b30:	400b      	ands	r3, r1
 8000b32:	0008      	movs	r0, r1
 8000b34:	2b04      	cmp	r3, #4
 8000b36:	d1bd      	bne.n	8000ab4 <__aeabi_ddiv+0x58c>
 8000b38:	0001      	movs	r1, r0
 8000b3a:	0753      	lsls	r3, r2, #29
 8000b3c:	0252      	lsls	r2, r2, #9
 8000b3e:	0b12      	lsrs	r2, r2, #12
 8000b40:	08c9      	lsrs	r1, r1, #3
 8000b42:	4319      	orrs	r1, r3
 8000b44:	2301      	movs	r3, #1
 8000b46:	4688      	mov	r8, r1
 8000b48:	9902      	ldr	r1, [sp, #8]
 8000b4a:	2400      	movs	r4, #0
 8000b4c:	4019      	ands	r1, r3
 8000b4e:	468c      	mov	ip, r1
 8000b50:	e5b8      	b.n	80006c4 <__aeabi_ddiv+0x19c>
 8000b52:	4552      	cmp	r2, sl
 8000b54:	d8be      	bhi.n	8000ad4 <__aeabi_ddiv+0x5ac>
 8000b56:	468b      	mov	fp, r1
 8000b58:	2500      	movs	r5, #0
 8000b5a:	e660      	b.n	800081e <__aeabi_ddiv+0x2f6>
 8000b5c:	9d03      	ldr	r5, [sp, #12]
 8000b5e:	429d      	cmp	r5, r3
 8000b60:	d3c6      	bcc.n	8000af0 <__aeabi_ddiv+0x5c8>
 8000b62:	0011      	movs	r1, r2
 8000b64:	e762      	b.n	8000a2c <__aeabi_ddiv+0x504>
 8000b66:	2500      	movs	r5, #0
 8000b68:	e7d8      	b.n	8000b1c <__aeabi_ddiv+0x5f4>
 8000b6a:	2280      	movs	r2, #128	; 0x80
 8000b6c:	465b      	mov	r3, fp
 8000b6e:	0312      	lsls	r2, r2, #12
 8000b70:	431a      	orrs	r2, r3
 8000b72:	9b01      	ldr	r3, [sp, #4]
 8000b74:	0312      	lsls	r2, r2, #12
 8000b76:	0b12      	lsrs	r2, r2, #12
 8000b78:	469c      	mov	ip, r3
 8000b7a:	4688      	mov	r8, r1
 8000b7c:	4c03      	ldr	r4, [pc, #12]	; (8000b8c <__aeabi_ddiv+0x664>)
 8000b7e:	e5a1      	b.n	80006c4 <__aeabi_ddiv+0x19c>
 8000b80:	000003ff 	.word	0x000003ff
 8000b84:	feffffff 	.word	0xfeffffff
 8000b88:	000007fe 	.word	0x000007fe
 8000b8c:	000007ff 	.word	0x000007ff

08000b90 <__aeabi_dsub>:
 8000b90:	b5f0      	push	{r4, r5, r6, r7, lr}
 8000b92:	4646      	mov	r6, r8
 8000b94:	46d6      	mov	lr, sl
 8000b96:	464f      	mov	r7, r9
 8000b98:	030c      	lsls	r4, r1, #12
 8000b9a:	b5c0      	push	{r6, r7, lr}
 8000b9c:	0fcd      	lsrs	r5, r1, #31
 8000b9e:	004e      	lsls	r6, r1, #1
 8000ba0:	0a61      	lsrs	r1, r4, #9
 8000ba2:	0f44      	lsrs	r4, r0, #29
 8000ba4:	430c      	orrs	r4, r1
 8000ba6:	00c1      	lsls	r1, r0, #3
 8000ba8:	0058      	lsls	r0, r3, #1
 8000baa:	0d40      	lsrs	r0, r0, #21
 8000bac:	4684      	mov	ip, r0
 8000bae:	468a      	mov	sl, r1
 8000bb0:	000f      	movs	r7, r1
 8000bb2:	0319      	lsls	r1, r3, #12
 8000bb4:	0f50      	lsrs	r0, r2, #29
 8000bb6:	0a49      	lsrs	r1, r1, #9
 8000bb8:	4301      	orrs	r1, r0
 8000bba:	48c6      	ldr	r0, [pc, #792]	; (8000ed4 <__aeabi_dsub+0x344>)
 8000bbc:	0d76      	lsrs	r6, r6, #21
 8000bbe:	46a8      	mov	r8, r5
 8000bc0:	0fdb      	lsrs	r3, r3, #31
 8000bc2:	00d2      	lsls	r2, r2, #3
 8000bc4:	4584      	cmp	ip, r0
 8000bc6:	d100      	bne.n	8000bca <__aeabi_dsub+0x3a>
 8000bc8:	e0d8      	b.n	8000d7c <__aeabi_dsub+0x1ec>
 8000bca:	2001      	movs	r0, #1
 8000bcc:	4043      	eors	r3, r0
 8000bce:	42ab      	cmp	r3, r5
 8000bd0:	d100      	bne.n	8000bd4 <__aeabi_dsub+0x44>
 8000bd2:	e0a6      	b.n	8000d22 <__aeabi_dsub+0x192>
 8000bd4:	4660      	mov	r0, ip
 8000bd6:	1a35      	subs	r5, r6, r0
 8000bd8:	2d00      	cmp	r5, #0
 8000bda:	dc00      	bgt.n	8000bde <__aeabi_dsub+0x4e>
 8000bdc:	e105      	b.n	8000dea <__aeabi_dsub+0x25a>
 8000bde:	2800      	cmp	r0, #0
 8000be0:	d110      	bne.n	8000c04 <__aeabi_dsub+0x74>
 8000be2:	000b      	movs	r3, r1
 8000be4:	4313      	orrs	r3, r2
 8000be6:	d100      	bne.n	8000bea <__aeabi_dsub+0x5a>
 8000be8:	e0d7      	b.n	8000d9a <__aeabi_dsub+0x20a>
 8000bea:	1e6b      	subs	r3, r5, #1
 8000bec:	2b00      	cmp	r3, #0
 8000bee:	d000      	beq.n	8000bf2 <__aeabi_dsub+0x62>
 8000bf0:	e14b      	b.n	8000e8a <__aeabi_dsub+0x2fa>
 8000bf2:	4653      	mov	r3, sl
 8000bf4:	1a9f      	subs	r7, r3, r2
 8000bf6:	45ba      	cmp	sl, r7
 8000bf8:	4180      	sbcs	r0, r0
 8000bfa:	1a64      	subs	r4, r4, r1
 8000bfc:	4240      	negs	r0, r0
 8000bfe:	1a24      	subs	r4, r4, r0
 8000c00:	2601      	movs	r6, #1
 8000c02:	e01e      	b.n	8000c42 <__aeabi_dsub+0xb2>
 8000c04:	4bb3      	ldr	r3, [pc, #716]	; (8000ed4 <__aeabi_dsub+0x344>)
 8000c06:	429e      	cmp	r6, r3
 8000c08:	d048      	beq.n	8000c9c <__aeabi_dsub+0x10c>
 8000c0a:	2380      	movs	r3, #128	; 0x80
 8000c0c:	041b      	lsls	r3, r3, #16
 8000c0e:	4319      	orrs	r1, r3
 8000c10:	2d38      	cmp	r5, #56	; 0x38
 8000c12:	dd00      	ble.n	8000c16 <__aeabi_dsub+0x86>
 8000c14:	e119      	b.n	8000e4a <__aeabi_dsub+0x2ba>
 8000c16:	2d1f      	cmp	r5, #31
 8000c18:	dd00      	ble.n	8000c1c <__aeabi_dsub+0x8c>
 8000c1a:	e14c      	b.n	8000eb6 <__aeabi_dsub+0x326>
 8000c1c:	2320      	movs	r3, #32
 8000c1e:	000f      	movs	r7, r1
 8000c20:	1b5b      	subs	r3, r3, r5
 8000c22:	0010      	movs	r0, r2
 8000c24:	409a      	lsls	r2, r3
 8000c26:	409f      	lsls	r7, r3
 8000c28:	40e8      	lsrs	r0, r5
 8000c2a:	1e53      	subs	r3, r2, #1
 8000c2c:	419a      	sbcs	r2, r3
 8000c2e:	40e9      	lsrs	r1, r5
 8000c30:	4307      	orrs	r7, r0
 8000c32:	4317      	orrs	r7, r2
 8000c34:	4653      	mov	r3, sl
 8000c36:	1bdf      	subs	r7, r3, r7
 8000c38:	1a61      	subs	r1, r4, r1
 8000c3a:	45ba      	cmp	sl, r7
 8000c3c:	41a4      	sbcs	r4, r4
 8000c3e:	4264      	negs	r4, r4
 8000c40:	1b0c      	subs	r4, r1, r4
 8000c42:	0223      	lsls	r3, r4, #8
 8000c44:	d400      	bmi.n	8000c48 <__aeabi_dsub+0xb8>
 8000c46:	e0c5      	b.n	8000dd4 <__aeabi_dsub+0x244>
 8000c48:	0264      	lsls	r4, r4, #9
 8000c4a:	0a65      	lsrs	r5, r4, #9
 8000c4c:	2d00      	cmp	r5, #0
 8000c4e:	d100      	bne.n	8000c52 <__aeabi_dsub+0xc2>
 8000c50:	e0f6      	b.n	8000e40 <__aeabi_dsub+0x2b0>
 8000c52:	0028      	movs	r0, r5
 8000c54:	f000 fb76 	bl	8001344 <__clzsi2>
 8000c58:	0003      	movs	r3, r0
 8000c5a:	3b08      	subs	r3, #8
 8000c5c:	2b1f      	cmp	r3, #31
 8000c5e:	dd00      	ble.n	8000c62 <__aeabi_dsub+0xd2>
 8000c60:	e0e9      	b.n	8000e36 <__aeabi_dsub+0x2a6>
 8000c62:	2220      	movs	r2, #32
 8000c64:	003c      	movs	r4, r7
 8000c66:	1ad2      	subs	r2, r2, r3
 8000c68:	409d      	lsls	r5, r3
 8000c6a:	40d4      	lsrs	r4, r2
 8000c6c:	409f      	lsls	r7, r3
 8000c6e:	4325      	orrs	r5, r4
 8000c70:	429e      	cmp	r6, r3
 8000c72:	dd00      	ble.n	8000c76 <__aeabi_dsub+0xe6>
 8000c74:	e0db      	b.n	8000e2e <__aeabi_dsub+0x29e>
 8000c76:	1b9e      	subs	r6, r3, r6
 8000c78:	1c73      	adds	r3, r6, #1
 8000c7a:	2b1f      	cmp	r3, #31
 8000c7c:	dd00      	ble.n	8000c80 <__aeabi_dsub+0xf0>
 8000c7e:	e10a      	b.n	8000e96 <__aeabi_dsub+0x306>
 8000c80:	2220      	movs	r2, #32
 8000c82:	0038      	movs	r0, r7
 8000c84:	1ad2      	subs	r2, r2, r3
 8000c86:	0029      	movs	r1, r5
 8000c88:	4097      	lsls	r7, r2
 8000c8a:	002c      	movs	r4, r5
 8000c8c:	4091      	lsls	r1, r2
 8000c8e:	40d8      	lsrs	r0, r3
 8000c90:	1e7a      	subs	r2, r7, #1
 8000c92:	4197      	sbcs	r7, r2
 8000c94:	40dc      	lsrs	r4, r3
 8000c96:	2600      	movs	r6, #0
 8000c98:	4301      	orrs	r1, r0
 8000c9a:	430f      	orrs	r7, r1
 8000c9c:	077b      	lsls	r3, r7, #29
 8000c9e:	d009      	beq.n	8000cb4 <__aeabi_dsub+0x124>
 8000ca0:	230f      	movs	r3, #15
 8000ca2:	403b      	ands	r3, r7
 8000ca4:	2b04      	cmp	r3, #4
 8000ca6:	d005      	beq.n	8000cb4 <__aeabi_dsub+0x124>
 8000ca8:	1d3b      	adds	r3, r7, #4
 8000caa:	42bb      	cmp	r3, r7
 8000cac:	41bf      	sbcs	r7, r7
 8000cae:	427f      	negs	r7, r7
 8000cb0:	19e4      	adds	r4, r4, r7
 8000cb2:	001f      	movs	r7, r3
 8000cb4:	0223      	lsls	r3, r4, #8
 8000cb6:	d525      	bpl.n	8000d04 <__aeabi_dsub+0x174>
 8000cb8:	4b86      	ldr	r3, [pc, #536]	; (8000ed4 <__aeabi_dsub+0x344>)
 8000cba:	3601      	adds	r6, #1
 8000cbc:	429e      	cmp	r6, r3
 8000cbe:	d100      	bne.n	8000cc2 <__aeabi_dsub+0x132>
 8000cc0:	e0af      	b.n	8000e22 <__aeabi_dsub+0x292>
 8000cc2:	4b85      	ldr	r3, [pc, #532]	; (8000ed8 <__aeabi_dsub+0x348>)
 8000cc4:	2501      	movs	r5, #1
 8000cc6:	401c      	ands	r4, r3
 8000cc8:	4643      	mov	r3, r8
 8000cca:	0762      	lsls	r2, r4, #29
 8000ccc:	08ff      	lsrs	r7, r7, #3
 8000cce:	0264      	lsls	r4, r4, #9
 8000cd0:	0576      	lsls	r6, r6, #21
 8000cd2:	4317      	orrs	r7, r2
 8000cd4:	0b24      	lsrs	r4, r4, #12
 8000cd6:	0d76      	lsrs	r6, r6, #21
 8000cd8:	401d      	ands	r5, r3
 8000cda:	2100      	movs	r1, #0
 8000cdc:	0324      	lsls	r4, r4, #12
 8000cde:	0b23      	lsrs	r3, r4, #12
 8000ce0:	0d0c      	lsrs	r4, r1, #20
 8000ce2:	4a7e      	ldr	r2, [pc, #504]	; (8000edc <__aeabi_dsub+0x34c>)
 8000ce4:	0524      	lsls	r4, r4, #20
 8000ce6:	431c      	orrs	r4, r3
 8000ce8:	4014      	ands	r4, r2
 8000cea:	0533      	lsls	r3, r6, #20
 8000cec:	4323      	orrs	r3, r4
 8000cee:	005b      	lsls	r3, r3, #1
 8000cf0:	07ed      	lsls	r5, r5, #31
 8000cf2:	085b      	lsrs	r3, r3, #1
 8000cf4:	432b      	orrs	r3, r5
 8000cf6:	0038      	movs	r0, r7
 8000cf8:	0019      	movs	r1, r3
 8000cfa:	bc1c      	pop	{r2, r3, r4}
 8000cfc:	4690      	mov	r8, r2
 8000cfe:	4699      	mov	r9, r3
 8000d00:	46a2      	mov	sl, r4
 8000d02:	bdf0      	pop	{r4, r5, r6, r7, pc}
 8000d04:	2501      	movs	r5, #1
 8000d06:	4643      	mov	r3, r8
 8000d08:	0762      	lsls	r2, r4, #29
 8000d0a:	08ff      	lsrs	r7, r7, #3
 8000d0c:	4317      	orrs	r7, r2
 8000d0e:	08e4      	lsrs	r4, r4, #3
 8000d10:	401d      	ands	r5, r3
 8000d12:	4b70      	ldr	r3, [pc, #448]	; (8000ed4 <__aeabi_dsub+0x344>)
 8000d14:	429e      	cmp	r6, r3
 8000d16:	d036      	beq.n	8000d86 <__aeabi_dsub+0x1f6>
 8000d18:	0324      	lsls	r4, r4, #12
 8000d1a:	0576      	lsls	r6, r6, #21
 8000d1c:	0b24      	lsrs	r4, r4, #12
 8000d1e:	0d76      	lsrs	r6, r6, #21
 8000d20:	e7db      	b.n	8000cda <__aeabi_dsub+0x14a>
 8000d22:	4663      	mov	r3, ip
 8000d24:	1af3      	subs	r3, r6, r3
 8000d26:	2b00      	cmp	r3, #0
 8000d28:	dc00      	bgt.n	8000d2c <__aeabi_dsub+0x19c>
 8000d2a:	e094      	b.n	8000e56 <__aeabi_dsub+0x2c6>
 8000d2c:	4660      	mov	r0, ip
 8000d2e:	2800      	cmp	r0, #0
 8000d30:	d035      	beq.n	8000d9e <__aeabi_dsub+0x20e>
 8000d32:	4868      	ldr	r0, [pc, #416]	; (8000ed4 <__aeabi_dsub+0x344>)
 8000d34:	4286      	cmp	r6, r0
 8000d36:	d0b1      	beq.n	8000c9c <__aeabi_dsub+0x10c>
 8000d38:	2780      	movs	r7, #128	; 0x80
 8000d3a:	043f      	lsls	r7, r7, #16
 8000d3c:	4339      	orrs	r1, r7
 8000d3e:	2b38      	cmp	r3, #56	; 0x38
 8000d40:	dc00      	bgt.n	8000d44 <__aeabi_dsub+0x1b4>
 8000d42:	e0fd      	b.n	8000f40 <__aeabi_dsub+0x3b0>
 8000d44:	430a      	orrs	r2, r1
 8000d46:	0017      	movs	r7, r2
 8000d48:	2100      	movs	r1, #0
 8000d4a:	1e7a      	subs	r2, r7, #1
 8000d4c:	4197      	sbcs	r7, r2
 8000d4e:	4457      	add	r7, sl
 8000d50:	4557      	cmp	r7, sl
 8000d52:	4180      	sbcs	r0, r0
 8000d54:	1909      	adds	r1, r1, r4
 8000d56:	4244      	negs	r4, r0
 8000d58:	190c      	adds	r4, r1, r4
 8000d5a:	0223      	lsls	r3, r4, #8
 8000d5c:	d53a      	bpl.n	8000dd4 <__aeabi_dsub+0x244>
 8000d5e:	4b5d      	ldr	r3, [pc, #372]	; (8000ed4 <__aeabi_dsub+0x344>)
 8000d60:	3601      	adds	r6, #1
 8000d62:	429e      	cmp	r6, r3
 8000d64:	d100      	bne.n	8000d68 <__aeabi_dsub+0x1d8>
 8000d66:	e14b      	b.n	8001000 <__aeabi_dsub+0x470>
 8000d68:	2201      	movs	r2, #1
 8000d6a:	4b5b      	ldr	r3, [pc, #364]	; (8000ed8 <__aeabi_dsub+0x348>)
 8000d6c:	401c      	ands	r4, r3
 8000d6e:	087b      	lsrs	r3, r7, #1
 8000d70:	4017      	ands	r7, r2
 8000d72:	431f      	orrs	r7, r3
 8000d74:	07e2      	lsls	r2, r4, #31
 8000d76:	4317      	orrs	r7, r2
 8000d78:	0864      	lsrs	r4, r4, #1
 8000d7a:	e78f      	b.n	8000c9c <__aeabi_dsub+0x10c>
 8000d7c:	0008      	movs	r0, r1
 8000d7e:	4310      	orrs	r0, r2
 8000d80:	d000      	beq.n	8000d84 <__aeabi_dsub+0x1f4>
 8000d82:	e724      	b.n	8000bce <__aeabi_dsub+0x3e>
 8000d84:	e721      	b.n	8000bca <__aeabi_dsub+0x3a>
 8000d86:	0023      	movs	r3, r4
 8000d88:	433b      	orrs	r3, r7
 8000d8a:	d100      	bne.n	8000d8e <__aeabi_dsub+0x1fe>
 8000d8c:	e1b9      	b.n	8001102 <__aeabi_dsub+0x572>
 8000d8e:	2280      	movs	r2, #128	; 0x80
 8000d90:	0312      	lsls	r2, r2, #12
 8000d92:	4314      	orrs	r4, r2
 8000d94:	0324      	lsls	r4, r4, #12
 8000d96:	0b24      	lsrs	r4, r4, #12
 8000d98:	e79f      	b.n	8000cda <__aeabi_dsub+0x14a>
 8000d9a:	002e      	movs	r6, r5
 8000d9c:	e77e      	b.n	8000c9c <__aeabi_dsub+0x10c>
 8000d9e:	0008      	movs	r0, r1
 8000da0:	4310      	orrs	r0, r2
 8000da2:	d100      	bne.n	8000da6 <__aeabi_dsub+0x216>
 8000da4:	e0ca      	b.n	8000f3c <__aeabi_dsub+0x3ac>
 8000da6:	1e58      	subs	r0, r3, #1
 8000da8:	4684      	mov	ip, r0
 8000daa:	2800      	cmp	r0, #0
 8000dac:	d000      	beq.n	8000db0 <__aeabi_dsub+0x220>
 8000dae:	e0e7      	b.n	8000f80 <__aeabi_dsub+0x3f0>
 8000db0:	4452      	add	r2, sl
 8000db2:	4552      	cmp	r2, sl
 8000db4:	4180      	sbcs	r0, r0
 8000db6:	1864      	adds	r4, r4, r1
 8000db8:	4240      	negs	r0, r0
 8000dba:	1824      	adds	r4, r4, r0
 8000dbc:	0017      	movs	r7, r2
 8000dbe:	2601      	movs	r6, #1
 8000dc0:	0223      	lsls	r3, r4, #8
 8000dc2:	d507      	bpl.n	8000dd4 <__aeabi_dsub+0x244>
 8000dc4:	2602      	movs	r6, #2
 8000dc6:	e7cf      	b.n	8000d68 <__aeabi_dsub+0x1d8>
 8000dc8:	4664      	mov	r4, ip
 8000dca:	432c      	orrs	r4, r5
 8000dcc:	d100      	bne.n	8000dd0 <__aeabi_dsub+0x240>
 8000dce:	e1b3      	b.n	8001138 <__aeabi_dsub+0x5a8>
 8000dd0:	002c      	movs	r4, r5
 8000dd2:	4667      	mov	r7, ip
 8000dd4:	077b      	lsls	r3, r7, #29
 8000dd6:	d000      	beq.n	8000dda <__aeabi_dsub+0x24a>
 8000dd8:	e762      	b.n	8000ca0 <__aeabi_dsub+0x110>
 8000dda:	0763      	lsls	r3, r4, #29
 8000ddc:	08ff      	lsrs	r7, r7, #3
 8000dde:	431f      	orrs	r7, r3
 8000de0:	2501      	movs	r5, #1
 8000de2:	4643      	mov	r3, r8
 8000de4:	08e4      	lsrs	r4, r4, #3
 8000de6:	401d      	ands	r5, r3
 8000de8:	e793      	b.n	8000d12 <__aeabi_dsub+0x182>
 8000dea:	2d00      	cmp	r5, #0
 8000dec:	d178      	bne.n	8000ee0 <__aeabi_dsub+0x350>
 8000dee:	1c75      	adds	r5, r6, #1
 8000df0:	056d      	lsls	r5, r5, #21
 8000df2:	0d6d      	lsrs	r5, r5, #21
 8000df4:	2d01      	cmp	r5, #1
 8000df6:	dc00      	bgt.n	8000dfa <__aeabi_dsub+0x26a>
 8000df8:	e0f2      	b.n	8000fe0 <__aeabi_dsub+0x450>
 8000dfa:	4650      	mov	r0, sl
 8000dfc:	1a80      	subs	r0, r0, r2
 8000dfe:	4582      	cmp	sl, r0
 8000e00:	41bf      	sbcs	r7, r7
 8000e02:	1a65      	subs	r5, r4, r1
 8000e04:	427f      	negs	r7, r7
 8000e06:	1bed      	subs	r5, r5, r7
 8000e08:	4684      	mov	ip, r0
 8000e0a:	0228      	lsls	r0, r5, #8
 8000e0c:	d400      	bmi.n	8000e10 <__aeabi_dsub+0x280>
 8000e0e:	e08c      	b.n	8000f2a <__aeabi_dsub+0x39a>
 8000e10:	4650      	mov	r0, sl
 8000e12:	1a17      	subs	r7, r2, r0
 8000e14:	42ba      	cmp	r2, r7
 8000e16:	4192      	sbcs	r2, r2
 8000e18:	1b0c      	subs	r4, r1, r4
 8000e1a:	4255      	negs	r5, r2
 8000e1c:	1b65      	subs	r5, r4, r5
 8000e1e:	4698      	mov	r8, r3
 8000e20:	e714      	b.n	8000c4c <__aeabi_dsub+0xbc>
 8000e22:	2501      	movs	r5, #1
 8000e24:	4643      	mov	r3, r8
 8000e26:	2400      	movs	r4, #0
 8000e28:	401d      	ands	r5, r3
 8000e2a:	2700      	movs	r7, #0
 8000e2c:	e755      	b.n	8000cda <__aeabi_dsub+0x14a>
 8000e2e:	4c2a      	ldr	r4, [pc, #168]	; (8000ed8 <__aeabi_dsub+0x348>)
 8000e30:	1af6      	subs	r6, r6, r3
 8000e32:	402c      	ands	r4, r5
 8000e34:	e732      	b.n	8000c9c <__aeabi_dsub+0x10c>
 8000e36:	003d      	movs	r5, r7
 8000e38:	3828      	subs	r0, #40	; 0x28
 8000e3a:	4085      	lsls	r5, r0
 8000e3c:	2700      	movs	r7, #0
 8000e3e:	e717      	b.n	8000c70 <__aeabi_dsub+0xe0>
 8000e40:	0038      	movs	r0, r7
 8000e42:	f000 fa7f 	bl	8001344 <__clzsi2>
 8000e46:	3020      	adds	r0, #32
 8000e48:	e706      	b.n	8000c58 <__aeabi_dsub+0xc8>
 8000e4a:	430a      	orrs	r2, r1
 8000e4c:	0017      	movs	r7, r2
 8000e4e:	2100      	movs	r1, #0
 8000e50:	1e7a      	subs	r2, r7, #1
 8000e52:	4197      	sbcs	r7, r2
 8000e54:	e6ee      	b.n	8000c34 <__aeabi_dsub+0xa4>
 8000e56:	2b00      	cmp	r3, #0
 8000e58:	d000      	beq.n	8000e5c <__aeabi_dsub+0x2cc>
 8000e5a:	e0e5      	b.n	8001028 <__aeabi_dsub+0x498>
 8000e5c:	1c73      	adds	r3, r6, #1
 8000e5e:	469c      	mov	ip, r3
 8000e60:	055b      	lsls	r3, r3, #21
 8000e62:	0d5b      	lsrs	r3, r3, #21
 8000e64:	2b01      	cmp	r3, #1
 8000e66:	dc00      	bgt.n	8000e6a <__aeabi_dsub+0x2da>
 8000e68:	e09f      	b.n	8000faa <__aeabi_dsub+0x41a>
 8000e6a:	4b1a      	ldr	r3, [pc, #104]	; (8000ed4 <__aeabi_dsub+0x344>)
 8000e6c:	459c      	cmp	ip, r3
 8000e6e:	d100      	bne.n	8000e72 <__aeabi_dsub+0x2e2>
 8000e70:	e0c5      	b.n	8000ffe <__aeabi_dsub+0x46e>
 8000e72:	4452      	add	r2, sl
 8000e74:	4552      	cmp	r2, sl
 8000e76:	4180      	sbcs	r0, r0
 8000e78:	1864      	adds	r4, r4, r1
 8000e7a:	4240      	negs	r0, r0
 8000e7c:	1824      	adds	r4, r4, r0
 8000e7e:	07e7      	lsls	r7, r4, #31
 8000e80:	0852      	lsrs	r2, r2, #1
 8000e82:	4317      	orrs	r7, r2
 8000e84:	0864      	lsrs	r4, r4, #1
 8000e86:	4666      	mov	r6, ip
 8000e88:	e708      	b.n	8000c9c <__aeabi_dsub+0x10c>
 8000e8a:	4812      	ldr	r0, [pc, #72]	; (8000ed4 <__aeabi_dsub+0x344>)
 8000e8c:	4285      	cmp	r5, r0
 8000e8e:	d100      	bne.n	8000e92 <__aeabi_dsub+0x302>
 8000e90:	e085      	b.n	8000f9e <__aeabi_dsub+0x40e>
 8000e92:	001d      	movs	r5, r3
 8000e94:	e6bc      	b.n	8000c10 <__aeabi_dsub+0x80>
 8000e96:	0029      	movs	r1, r5
 8000e98:	3e1f      	subs	r6, #31
 8000e9a:	40f1      	lsrs	r1, r6
 8000e9c:	2b20      	cmp	r3, #32
 8000e9e:	d100      	bne.n	8000ea2 <__aeabi_dsub+0x312>
 8000ea0:	e07f      	b.n	8000fa2 <__aeabi_dsub+0x412>
 8000ea2:	2240      	movs	r2, #64	; 0x40
 8000ea4:	1ad3      	subs	r3, r2, r3
 8000ea6:	409d      	lsls	r5, r3
 8000ea8:	432f      	orrs	r7, r5
 8000eaa:	1e7d      	subs	r5, r7, #1
 8000eac:	41af      	sbcs	r7, r5
 8000eae:	2400      	movs	r4, #0
 8000eb0:	430f      	orrs	r7, r1
 8000eb2:	2600      	movs	r6, #0
 8000eb4:	e78e      	b.n	8000dd4 <__aeabi_dsub+0x244>
 8000eb6:	002b      	movs	r3, r5
 8000eb8:	000f      	movs	r7, r1
 8000eba:	3b20      	subs	r3, #32
 8000ebc:	40df      	lsrs	r7, r3
 8000ebe:	2d20      	cmp	r5, #32
 8000ec0:	d071      	beq.n	8000fa6 <__aeabi_dsub+0x416>
 8000ec2:	2340      	movs	r3, #64	; 0x40
 8000ec4:	1b5d      	subs	r5, r3, r5
 8000ec6:	40a9      	lsls	r1, r5
 8000ec8:	430a      	orrs	r2, r1
 8000eca:	1e51      	subs	r1, r2, #1
 8000ecc:	418a      	sbcs	r2, r1
 8000ece:	2100      	movs	r1, #0
 8000ed0:	4317      	orrs	r7, r2
 8000ed2:	e6af      	b.n	8000c34 <__aeabi_dsub+0xa4>
 8000ed4:	000007ff 	.word	0x000007ff
 8000ed8:	ff7fffff 	.word	0xff7fffff
 8000edc:	800fffff 	.word	0x800fffff
 8000ee0:	2e00      	cmp	r6, #0
 8000ee2:	d03e      	beq.n	8000f62 <__aeabi_dsub+0x3d2>
 8000ee4:	4eb3      	ldr	r6, [pc, #716]	; (80011b4 <__aeabi_dsub+0x624>)
 8000ee6:	45b4      	cmp	ip, r6
 8000ee8:	d045      	beq.n	8000f76 <__aeabi_dsub+0x3e6>
 8000eea:	2680      	movs	r6, #128	; 0x80
 8000eec:	0436      	lsls	r6, r6, #16
 8000eee:	426d      	negs	r5, r5
 8000ef0:	4334      	orrs	r4, r6
 8000ef2:	2d38      	cmp	r5, #56	; 0x38
 8000ef4:	dd00      	ble.n	8000ef8 <__aeabi_dsub+0x368>
 8000ef6:	e0a8      	b.n	800104a <__aeabi_dsub+0x4ba>
 8000ef8:	2d1f      	cmp	r5, #31
 8000efa:	dd00      	ble.n	8000efe <__aeabi_dsub+0x36e>
 8000efc:	e11f      	b.n	800113e <__aeabi_dsub+0x5ae>
 8000efe:	2620      	movs	r6, #32
 8000f00:	0027      	movs	r7, r4
 8000f02:	4650      	mov	r0, sl
 8000f04:	1b76      	subs	r6, r6, r5
 8000f06:	40b7      	lsls	r7, r6
 8000f08:	40e8      	lsrs	r0, r5
 8000f0a:	4307      	orrs	r7, r0
 8000f0c:	4650      	mov	r0, sl
 8000f0e:	40b0      	lsls	r0, r6
 8000f10:	1e46      	subs	r6, r0, #1
 8000f12:	41b0      	sbcs	r0, r6
 8000f14:	40ec      	lsrs	r4, r5
 8000f16:	4338      	orrs	r0, r7
 8000f18:	1a17      	subs	r7, r2, r0
 8000f1a:	42ba      	cmp	r2, r7
 8000f1c:	4192      	sbcs	r2, r2
 8000f1e:	1b0c      	subs	r4, r1, r4
 8000f20:	4252      	negs	r2, r2
 8000f22:	1aa4      	subs	r4, r4, r2
 8000f24:	4666      	mov	r6, ip
 8000f26:	4698      	mov	r8, r3
 8000f28:	e68b      	b.n	8000c42 <__aeabi_dsub+0xb2>
 8000f2a:	4664      	mov	r4, ip
 8000f2c:	4667      	mov	r7, ip
 8000f2e:	432c      	orrs	r4, r5
 8000f30:	d000      	beq.n	8000f34 <__aeabi_dsub+0x3a4>
 8000f32:	e68b      	b.n	8000c4c <__aeabi_dsub+0xbc>
 8000f34:	2500      	movs	r5, #0
 8000f36:	2600      	movs	r6, #0
 8000f38:	2700      	movs	r7, #0
 8000f3a:	e6ea      	b.n	8000d12 <__aeabi_dsub+0x182>
 8000f3c:	001e      	movs	r6, r3
 8000f3e:	e6ad      	b.n	8000c9c <__aeabi_dsub+0x10c>
 8000f40:	2b1f      	cmp	r3, #31
 8000f42:	dc60      	bgt.n	8001006 <__aeabi_dsub+0x476>
 8000f44:	2720      	movs	r7, #32
 8000f46:	1af8      	subs	r0, r7, r3
 8000f48:	000f      	movs	r7, r1
 8000f4a:	4684      	mov	ip, r0
 8000f4c:	4087      	lsls	r7, r0
 8000f4e:	0010      	movs	r0, r2
 8000f50:	40d8      	lsrs	r0, r3
 8000f52:	4307      	orrs	r7, r0
 8000f54:	4660      	mov	r0, ip
 8000f56:	4082      	lsls	r2, r0
 8000f58:	1e50      	subs	r0, r2, #1
 8000f5a:	4182      	sbcs	r2, r0
 8000f5c:	40d9      	lsrs	r1, r3
 8000f5e:	4317      	orrs	r7, r2
 8000f60:	e6f5      	b.n	8000d4e <__aeabi_dsub+0x1be>
 8000f62:	0026      	movs	r6, r4
 8000f64:	4650      	mov	r0, sl
 8000f66:	4306      	orrs	r6, r0
 8000f68:	d005      	beq.n	8000f76 <__aeabi_dsub+0x3e6>
 8000f6a:	43ed      	mvns	r5, r5
 8000f6c:	2d00      	cmp	r5, #0
 8000f6e:	d0d3      	beq.n	8000f18 <__aeabi_dsub+0x388>
 8000f70:	4e90      	ldr	r6, [pc, #576]	; (80011b4 <__aeabi_dsub+0x624>)
 8000f72:	45b4      	cmp	ip, r6
 8000f74:	d1bd      	bne.n	8000ef2 <__aeabi_dsub+0x362>
 8000f76:	000c      	movs	r4, r1
 8000f78:	0017      	movs	r7, r2
 8000f7a:	4666      	mov	r6, ip
 8000f7c:	4698      	mov	r8, r3
 8000f7e:	e68d      	b.n	8000c9c <__aeabi_dsub+0x10c>
 8000f80:	488c      	ldr	r0, [pc, #560]	; (80011b4 <__aeabi_dsub+0x624>)
 8000f82:	4283      	cmp	r3, r0
 8000f84:	d00b      	beq.n	8000f9e <__aeabi_dsub+0x40e>
 8000f86:	4663      	mov	r3, ip
 8000f88:	e6d9      	b.n	8000d3e <__aeabi_dsub+0x1ae>
 8000f8a:	2d00      	cmp	r5, #0
 8000f8c:	d000      	beq.n	8000f90 <__aeabi_dsub+0x400>
 8000f8e:	e096      	b.n	80010be <__aeabi_dsub+0x52e>
 8000f90:	0008      	movs	r0, r1
 8000f92:	4310      	orrs	r0, r2
 8000f94:	d100      	bne.n	8000f98 <__aeabi_dsub+0x408>
 8000f96:	e0e2      	b.n	800115e <__aeabi_dsub+0x5ce>
 8000f98:	000c      	movs	r4, r1
 8000f9a:	0017      	movs	r7, r2
 8000f9c:	4698      	mov	r8, r3
 8000f9e:	4e85      	ldr	r6, [pc, #532]	; (80011b4 <__aeabi_dsub+0x624>)
 8000fa0:	e67c      	b.n	8000c9c <__aeabi_dsub+0x10c>
 8000fa2:	2500      	movs	r5, #0
 8000fa4:	e780      	b.n	8000ea8 <__aeabi_dsub+0x318>
 8000fa6:	2100      	movs	r1, #0
 8000fa8:	e78e      	b.n	8000ec8 <__aeabi_dsub+0x338>
 8000faa:	0023      	movs	r3, r4
 8000fac:	4650      	mov	r0, sl
 8000fae:	4303      	orrs	r3, r0
 8000fb0:	2e00      	cmp	r6, #0
 8000fb2:	d000      	beq.n	8000fb6 <__aeabi_dsub+0x426>
 8000fb4:	e0a8      	b.n	8001108 <__aeabi_dsub+0x578>
 8000fb6:	2b00      	cmp	r3, #0
 8000fb8:	d100      	bne.n	8000fbc <__aeabi_dsub+0x42c>
 8000fba:	e0de      	b.n	800117a <__aeabi_dsub+0x5ea>
 8000fbc:	000b      	movs	r3, r1
 8000fbe:	4313      	orrs	r3, r2
 8000fc0:	d100      	bne.n	8000fc4 <__aeabi_dsub+0x434>
 8000fc2:	e66b      	b.n	8000c9c <__aeabi_dsub+0x10c>
 8000fc4:	4452      	add	r2, sl
 8000fc6:	4552      	cmp	r2, sl
 8000fc8:	4180      	sbcs	r0, r0
 8000fca:	1864      	adds	r4, r4, r1
 8000fcc:	4240      	negs	r0, r0
 8000fce:	1824      	adds	r4, r4, r0
 8000fd0:	0017      	movs	r7, r2
 8000fd2:	0223      	lsls	r3, r4, #8
 8000fd4:	d400      	bmi.n	8000fd8 <__aeabi_dsub+0x448>
 8000fd6:	e6fd      	b.n	8000dd4 <__aeabi_dsub+0x244>
 8000fd8:	4b77      	ldr	r3, [pc, #476]	; (80011b8 <__aeabi_dsub+0x628>)
 8000fda:	4666      	mov	r6, ip
 8000fdc:	401c      	ands	r4, r3
 8000fde:	e65d      	b.n	8000c9c <__aeabi_dsub+0x10c>
 8000fe0:	0025      	movs	r5, r4
 8000fe2:	4650      	mov	r0, sl
 8000fe4:	4305      	orrs	r5, r0
 8000fe6:	2e00      	cmp	r6, #0
 8000fe8:	d1cf      	bne.n	8000f8a <__aeabi_dsub+0x3fa>
 8000fea:	2d00      	cmp	r5, #0
 8000fec:	d14f      	bne.n	800108e <__aeabi_dsub+0x4fe>
 8000fee:	000c      	movs	r4, r1
 8000ff0:	4314      	orrs	r4, r2
 8000ff2:	d100      	bne.n	8000ff6 <__aeabi_dsub+0x466>
 8000ff4:	e0a0      	b.n	8001138 <__aeabi_dsub+0x5a8>
 8000ff6:	000c      	movs	r4, r1
 8000ff8:	0017      	movs	r7, r2
 8000ffa:	4698      	mov	r8, r3
 8000ffc:	e64e      	b.n	8000c9c <__aeabi_dsub+0x10c>
 8000ffe:	4666      	mov	r6, ip
 8001000:	2400      	movs	r4, #0
 8001002:	2700      	movs	r7, #0
 8001004:	e685      	b.n	8000d12 <__aeabi_dsub+0x182>
 8001006:	001f      	movs	r7, r3
 8001008:	0008      	movs	r0, r1
 800100a:	3f20      	subs	r7, #32
 800100c:	40f8      	lsrs	r0, r7
 800100e:	0007      	movs	r7, r0
 8001010:	2b20      	cmp	r3, #32
 8001012:	d100      	bne.n	8001016 <__aeabi_dsub+0x486>
 8001014:	e08e      	b.n	8001134 <__aeabi_dsub+0x5a4>
 8001016:	2040      	movs	r0, #64	; 0x40
 8001018:	1ac3      	subs	r3, r0, r3
 800101a:	4099      	lsls	r1, r3
 800101c:	430a      	orrs	r2, r1
 800101e:	1e51      	subs	r1, r2, #1
 8001020:	418a      	sbcs	r2, r1
 8001022:	2100      	movs	r1, #0
 8001024:	4317      	orrs	r7, r2
 8001026:	e692      	b.n	8000d4e <__aeabi_dsub+0x1be>
 8001028:	2e00      	cmp	r6, #0
 800102a:	d114      	bne.n	8001056 <__aeabi_dsub+0x4c6>
 800102c:	0026      	movs	r6, r4
 800102e:	4650      	mov	r0, sl
 8001030:	4306      	orrs	r6, r0
 8001032:	d062      	beq.n	80010fa <__aeabi_dsub+0x56a>
 8001034:	43db      	mvns	r3, r3
 8001036:	2b00      	cmp	r3, #0
 8001038:	d15c      	bne.n	80010f4 <__aeabi_dsub+0x564>
 800103a:	1887      	adds	r7, r0, r2
 800103c:	4297      	cmp	r7, r2
 800103e:	4192      	sbcs	r2, r2
 8001040:	1864      	adds	r4, r4, r1
 8001042:	4252      	negs	r2, r2
 8001044:	18a4      	adds	r4, r4, r2
 8001046:	4666      	mov	r6, ip
 8001048:	e687      	b.n	8000d5a <__aeabi_dsub+0x1ca>
 800104a:	4650      	mov	r0, sl
 800104c:	4320      	orrs	r0, r4
 800104e:	1e44      	subs	r4, r0, #1
 8001050:	41a0      	sbcs	r0, r4
 8001052:	2400      	movs	r4, #0
 8001054:	e760      	b.n	8000f18 <__aeabi_dsub+0x388>
 8001056:	4e57      	ldr	r6, [pc, #348]	; (80011b4 <__aeabi_dsub+0x624>)
 8001058:	45b4      	cmp	ip, r6
 800105a:	d04e      	beq.n	80010fa <__aeabi_dsub+0x56a>
 800105c:	2680      	movs	r6, #128	; 0x80
 800105e:	0436      	lsls	r6, r6, #16
 8001060:	425b      	negs	r3, r3
 8001062:	4334      	orrs	r4, r6
 8001064:	2b38      	cmp	r3, #56	; 0x38
 8001066:	dd00      	ble.n	800106a <__aeabi_dsub+0x4da>
 8001068:	e07f      	b.n	800116a <__aeabi_dsub+0x5da>
 800106a:	2b1f      	cmp	r3, #31
 800106c:	dd00      	ble.n	8001070 <__aeabi_dsub+0x4e0>
 800106e:	e08b      	b.n	8001188 <__aeabi_dsub+0x5f8>
 8001070:	2620      	movs	r6, #32
 8001072:	0027      	movs	r7, r4
 8001074:	4650      	mov	r0, sl
 8001076:	1af6      	subs	r6, r6, r3
 8001078:	40b7      	lsls	r7, r6
 800107a:	40d8      	lsrs	r0, r3
 800107c:	4307      	orrs	r7, r0
 800107e:	4650      	mov	r0, sl
 8001080:	40b0      	lsls	r0, r6
 8001082:	1e46      	subs	r6, r0, #1
 8001084:	41b0      	sbcs	r0, r6
 8001086:	4307      	orrs	r7, r0
 8001088:	40dc      	lsrs	r4, r3
 800108a:	18bf      	adds	r7, r7, r2
 800108c:	e7d6      	b.n	800103c <__aeabi_dsub+0x4ac>
 800108e:	000d      	movs	r5, r1
 8001090:	4315      	orrs	r5, r2
 8001092:	d100      	bne.n	8001096 <__aeabi_dsub+0x506>
 8001094:	e602      	b.n	8000c9c <__aeabi_dsub+0x10c>
 8001096:	4650      	mov	r0, sl
 8001098:	1a80      	subs	r0, r0, r2
 800109a:	4582      	cmp	sl, r0
 800109c:	41bf      	sbcs	r7, r7
 800109e:	1a65      	subs	r5, r4, r1
 80010a0:	427f      	negs	r7, r7
 80010a2:	1bed      	subs	r5, r5, r7
 80010a4:	4684      	mov	ip, r0
 80010a6:	0228      	lsls	r0, r5, #8
 80010a8:	d400      	bmi.n	80010ac <__aeabi_dsub+0x51c>
 80010aa:	e68d      	b.n	8000dc8 <__aeabi_dsub+0x238>
 80010ac:	4650      	mov	r0, sl
 80010ae:	1a17      	subs	r7, r2, r0
 80010b0:	42ba      	cmp	r2, r7
 80010b2:	4192      	sbcs	r2, r2
 80010b4:	1b0c      	subs	r4, r1, r4
 80010b6:	4252      	negs	r2, r2
 80010b8:	1aa4      	subs	r4, r4, r2
 80010ba:	4698      	mov	r8, r3
 80010bc:	e5ee      	b.n	8000c9c <__aeabi_dsub+0x10c>
 80010be:	000d      	movs	r5, r1
 80010c0:	4315      	orrs	r5, r2
 80010c2:	d100      	bne.n	80010c6 <__aeabi_dsub+0x536>
 80010c4:	e76b      	b.n	8000f9e <__aeabi_dsub+0x40e>
 80010c6:	4650      	mov	r0, sl
 80010c8:	0767      	lsls	r7, r4, #29
 80010ca:	08c0      	lsrs	r0, r0, #3
 80010cc:	4307      	orrs	r7, r0
 80010ce:	2080      	movs	r0, #128	; 0x80
 80010d0:	08e4      	lsrs	r4, r4, #3
 80010d2:	0300      	lsls	r0, r0, #12
 80010d4:	4204      	tst	r4, r0
 80010d6:	d007      	beq.n	80010e8 <__aeabi_dsub+0x558>
 80010d8:	08cd      	lsrs	r5, r1, #3
 80010da:	4205      	tst	r5, r0
 80010dc:	d104      	bne.n	80010e8 <__aeabi_dsub+0x558>
 80010de:	002c      	movs	r4, r5
 80010e0:	4698      	mov	r8, r3
 80010e2:	08d7      	lsrs	r7, r2, #3
 80010e4:	0749      	lsls	r1, r1, #29
 80010e6:	430f      	orrs	r7, r1
 80010e8:	0f7b      	lsrs	r3, r7, #29
 80010ea:	00e4      	lsls	r4, r4, #3
 80010ec:	431c      	orrs	r4, r3
 80010ee:	00ff      	lsls	r7, r7, #3
 80010f0:	4e30      	ldr	r6, [pc, #192]	; (80011b4 <__aeabi_dsub+0x624>)
 80010f2:	e5d3      	b.n	8000c9c <__aeabi_dsub+0x10c>
 80010f4:	4e2f      	ldr	r6, [pc, #188]	; (80011b4 <__aeabi_dsub+0x624>)
 80010f6:	45b4      	cmp	ip, r6
 80010f8:	d1b4      	bne.n	8001064 <__aeabi_dsub+0x4d4>
 80010fa:	000c      	movs	r4, r1
 80010fc:	0017      	movs	r7, r2
 80010fe:	4666      	mov	r6, ip
 8001100:	e5cc      	b.n	8000c9c <__aeabi_dsub+0x10c>
 8001102:	2700      	movs	r7, #0
 8001104:	2400      	movs	r4, #0
 8001106:	e5e8      	b.n	8000cda <__aeabi_dsub+0x14a>
 8001108:	2b00      	cmp	r3, #0
 800110a:	d039      	beq.n	8001180 <__aeabi_dsub+0x5f0>
 800110c:	000b      	movs	r3, r1
 800110e:	4313      	orrs	r3, r2
 8001110:	d100      	bne.n	8001114 <__aeabi_dsub+0x584>
 8001112:	e744      	b.n	8000f9e <__aeabi_dsub+0x40e>
 8001114:	08c0      	lsrs	r0, r0, #3
 8001116:	0767      	lsls	r7, r4, #29
 8001118:	4307      	orrs	r7, r0
 800111a:	2080      	movs	r0, #128	; 0x80
 800111c:	08e4      	lsrs	r4, r4, #3
 800111e:	0300      	lsls	r0, r0, #12
 8001120:	4204      	tst	r4, r0
 8001122:	d0e1      	beq.n	80010e8 <__aeabi_dsub+0x558>
 8001124:	08cb      	lsrs	r3, r1, #3
 8001126:	4203      	tst	r3, r0
 8001128:	d1de      	bne.n	80010e8 <__aeabi_dsub+0x558>
 800112a:	08d7      	lsrs	r7, r2, #3
 800112c:	0749      	lsls	r1, r1, #29
 800112e:	430f      	orrs	r7, r1
 8001130:	001c      	movs	r4, r3
 8001132:	e7d9      	b.n	80010e8 <__aeabi_dsub+0x558>
 8001134:	2100      	movs	r1, #0
 8001136:	e771      	b.n	800101c <__aeabi_dsub+0x48c>
 8001138:	2500      	movs	r5, #0
 800113a:	2700      	movs	r7, #0
 800113c:	e5e9      	b.n	8000d12 <__aeabi_dsub+0x182>
 800113e:	002e      	movs	r6, r5
 8001140:	0027      	movs	r7, r4
 8001142:	3e20      	subs	r6, #32
 8001144:	40f7      	lsrs	r7, r6
 8001146:	2d20      	cmp	r5, #32
 8001148:	d02f      	beq.n	80011aa <__aeabi_dsub+0x61a>
 800114a:	2640      	movs	r6, #64	; 0x40
 800114c:	1b75      	subs	r5, r6, r5
 800114e:	40ac      	lsls	r4, r5
 8001150:	4650      	mov	r0, sl
 8001152:	4320      	orrs	r0, r4
 8001154:	1e44      	subs	r4, r0, #1
 8001156:	41a0      	sbcs	r0, r4
 8001158:	2400      	movs	r4, #0
 800115a:	4338      	orrs	r0, r7
 800115c:	e6dc      	b.n	8000f18 <__aeabi_dsub+0x388>
 800115e:	2480      	movs	r4, #128	; 0x80
 8001160:	2500      	movs	r5, #0
 8001162:	0324      	lsls	r4, r4, #12
 8001164:	4e13      	ldr	r6, [pc, #76]	; (80011b4 <__aeabi_dsub+0x624>)
 8001166:	2700      	movs	r7, #0
 8001168:	e5d3      	b.n	8000d12 <__aeabi_dsub+0x182>
 800116a:	4650      	mov	r0, sl
 800116c:	4320      	orrs	r0, r4
 800116e:	0007      	movs	r7, r0
 8001170:	1e78      	subs	r0, r7, #1
 8001172:	4187      	sbcs	r7, r0
 8001174:	2400      	movs	r4, #0
 8001176:	18bf      	adds	r7, r7, r2
 8001178:	e760      	b.n	800103c <__aeabi_dsub+0x4ac>
 800117a:	000c      	movs	r4, r1
 800117c:	0017      	movs	r7, r2
 800117e:	e58d      	b.n	8000c9c <__aeabi_dsub+0x10c>
 8001180:	000c      	movs	r4, r1
 8001182:	0017      	movs	r7, r2
 8001184:	4e0b      	ldr	r6, [pc, #44]	; (80011b4 <__aeabi_dsub+0x624>)
 8001186:	e589      	b.n	8000c9c <__aeabi_dsub+0x10c>
 8001188:	001e      	movs	r6, r3
 800118a:	0027      	movs	r7, r4
 800118c:	3e20      	subs	r6, #32
 800118e:	40f7      	lsrs	r7, r6
 8001190:	2b20      	cmp	r3, #32
 8001192:	d00c      	beq.n	80011ae <__aeabi_dsub+0x61e>
 8001194:	2640      	movs	r6, #64	; 0x40
 8001196:	1af3      	subs	r3, r6, r3
 8001198:	409c      	lsls	r4, r3
 800119a:	4650      	mov	r0, sl
 800119c:	4320      	orrs	r0, r4
 800119e:	1e44      	subs	r4, r0, #1
 80011a0:	41a0      	sbcs	r0, r4
 80011a2:	4307      	orrs	r7, r0
 80011a4:	2400      	movs	r4, #0
 80011a6:	18bf      	adds	r7, r7, r2
 80011a8:	e748      	b.n	800103c <__aeabi_dsub+0x4ac>
 80011aa:	2400      	movs	r4, #0
 80011ac:	e7d0      	b.n	8001150 <__aeabi_dsub+0x5c0>
 80011ae:	2400      	movs	r4, #0
 80011b0:	e7f3      	b.n	800119a <__aeabi_dsub+0x60a>
 80011b2:	46c0      	nop			; (mov r8, r8)
 80011b4:	000007ff 	.word	0x000007ff
 80011b8:	ff7fffff 	.word	0xff7fffff

080011bc <__aeabi_d2iz>:
 80011bc:	b530      	push	{r4, r5, lr}
 80011be:	4d13      	ldr	r5, [pc, #76]	; (800120c <__aeabi_d2iz+0x50>)
 80011c0:	030a      	lsls	r2, r1, #12
 80011c2:	004b      	lsls	r3, r1, #1
 80011c4:	0b12      	lsrs	r2, r2, #12
 80011c6:	0d5b      	lsrs	r3, r3, #21
 80011c8:	0fc9      	lsrs	r1, r1, #31
 80011ca:	2400      	movs	r4, #0
 80011cc:	42ab      	cmp	r3, r5
 80011ce:	dd10      	ble.n	80011f2 <__aeabi_d2iz+0x36>
 80011d0:	4c0f      	ldr	r4, [pc, #60]	; (8001210 <__aeabi_d2iz+0x54>)
 80011d2:	42a3      	cmp	r3, r4
 80011d4:	dc0f      	bgt.n	80011f6 <__aeabi_d2iz+0x3a>
 80011d6:	2480      	movs	r4, #128	; 0x80
 80011d8:	4d0e      	ldr	r5, [pc, #56]	; (8001214 <__aeabi_d2iz+0x58>)
 80011da:	0364      	lsls	r4, r4, #13
 80011dc:	4322      	orrs	r2, r4
 80011de:	1aed      	subs	r5, r5, r3
 80011e0:	2d1f      	cmp	r5, #31
 80011e2:	dd0b      	ble.n	80011fc <__aeabi_d2iz+0x40>
 80011e4:	480c      	ldr	r0, [pc, #48]	; (8001218 <__aeabi_d2iz+0x5c>)
 80011e6:	1ac3      	subs	r3, r0, r3
 80011e8:	40da      	lsrs	r2, r3
 80011ea:	4254      	negs	r4, r2
 80011ec:	2900      	cmp	r1, #0
 80011ee:	d100      	bne.n	80011f2 <__aeabi_d2iz+0x36>
 80011f0:	0014      	movs	r4, r2
 80011f2:	0020      	movs	r0, r4
 80011f4:	bd30      	pop	{r4, r5, pc}
 80011f6:	4b09      	ldr	r3, [pc, #36]	; (800121c <__aeabi_d2iz+0x60>)
 80011f8:	18cc      	adds	r4, r1, r3
 80011fa:	e7fa      	b.n	80011f2 <__aeabi_d2iz+0x36>
 80011fc:	4c08      	ldr	r4, [pc, #32]	; (8001220 <__aeabi_d2iz+0x64>)
 80011fe:	40e8      	lsrs	r0, r5
 8001200:	46a4      	mov	ip, r4
 8001202:	4463      	add	r3, ip
 8001204:	409a      	lsls	r2, r3
 8001206:	4302      	orrs	r2, r0
 8001208:	e7ef      	b.n	80011ea <__aeabi_d2iz+0x2e>
 800120a:	46c0      	nop			; (mov r8, r8)
 800120c:	000003fe 	.word	0x000003fe
 8001210:	0000041d 	.word	0x0000041d
 8001214:	00000433 	.word	0x00000433
 8001218:	00000413 	.word	0x00000413
 800121c:	7fffffff 	.word	0x7fffffff
 8001220:	fffffbed 	.word	0xfffffbed

08001224 <__aeabi_f2d>:
 8001224:	0041      	lsls	r1, r0, #1
 8001226:	0e09      	lsrs	r1, r1, #24
 8001228:	1c4b      	adds	r3, r1, #1
 800122a:	b570      	push	{r4, r5, r6, lr}
 800122c:	b2db      	uxtb	r3, r3
 800122e:	0246      	lsls	r6, r0, #9
 8001230:	0a75      	lsrs	r5, r6, #9
 8001232:	0fc4      	lsrs	r4, r0, #31
 8001234:	2b01      	cmp	r3, #1
 8001236:	dd14      	ble.n	8001262 <__aeabi_f2d+0x3e>
 8001238:	23e0      	movs	r3, #224	; 0xe0
 800123a:	009b      	lsls	r3, r3, #2
 800123c:	076d      	lsls	r5, r5, #29
 800123e:	0b36      	lsrs	r6, r6, #12
 8001240:	18cb      	adds	r3, r1, r3
 8001242:	2100      	movs	r1, #0
 8001244:	0d0a      	lsrs	r2, r1, #20
 8001246:	0028      	movs	r0, r5
 8001248:	0512      	lsls	r2, r2, #20
 800124a:	4d1c      	ldr	r5, [pc, #112]	; (80012bc <__aeabi_f2d+0x98>)
 800124c:	4332      	orrs	r2, r6
 800124e:	055b      	lsls	r3, r3, #21
 8001250:	402a      	ands	r2, r5
 8001252:	085b      	lsrs	r3, r3, #1
 8001254:	4313      	orrs	r3, r2
 8001256:	005b      	lsls	r3, r3, #1
 8001258:	07e4      	lsls	r4, r4, #31
 800125a:	085b      	lsrs	r3, r3, #1
 800125c:	4323      	orrs	r3, r4
 800125e:	0019      	movs	r1, r3
 8001260:	bd70      	pop	{r4, r5, r6, pc}
 8001262:	2900      	cmp	r1, #0
 8001264:	d114      	bne.n	8001290 <__aeabi_f2d+0x6c>
 8001266:	2d00      	cmp	r5, #0
 8001268:	d01e      	beq.n	80012a8 <__aeabi_f2d+0x84>
 800126a:	0028      	movs	r0, r5
 800126c:	f000 f86a 	bl	8001344 <__clzsi2>
 8001270:	280a      	cmp	r0, #10
 8001272:	dc1c      	bgt.n	80012ae <__aeabi_f2d+0x8a>
 8001274:	230b      	movs	r3, #11
 8001276:	002a      	movs	r2, r5
 8001278:	1a1b      	subs	r3, r3, r0
 800127a:	40da      	lsrs	r2, r3
 800127c:	0003      	movs	r3, r0
 800127e:	3315      	adds	r3, #21
 8001280:	409d      	lsls	r5, r3
 8001282:	4b0f      	ldr	r3, [pc, #60]	; (80012c0 <__aeabi_f2d+0x9c>)
 8001284:	0312      	lsls	r2, r2, #12
 8001286:	1a1b      	subs	r3, r3, r0
 8001288:	055b      	lsls	r3, r3, #21
 800128a:	0b16      	lsrs	r6, r2, #12
 800128c:	0d5b      	lsrs	r3, r3, #21
 800128e:	e7d8      	b.n	8001242 <__aeabi_f2d+0x1e>
 8001290:	2d00      	cmp	r5, #0
 8001292:	d006      	beq.n	80012a2 <__aeabi_f2d+0x7e>
 8001294:	0b32      	lsrs	r2, r6, #12
 8001296:	2680      	movs	r6, #128	; 0x80
 8001298:	0336      	lsls	r6, r6, #12
 800129a:	076d      	lsls	r5, r5, #29
 800129c:	4316      	orrs	r6, r2
 800129e:	4b09      	ldr	r3, [pc, #36]	; (80012c4 <__aeabi_f2d+0xa0>)
 80012a0:	e7cf      	b.n	8001242 <__aeabi_f2d+0x1e>
 80012a2:	4b08      	ldr	r3, [pc, #32]	; (80012c4 <__aeabi_f2d+0xa0>)
 80012a4:	2600      	movs	r6, #0
 80012a6:	e7cc      	b.n	8001242 <__aeabi_f2d+0x1e>
 80012a8:	2300      	movs	r3, #0
 80012aa:	2600      	movs	r6, #0
 80012ac:	e7c9      	b.n	8001242 <__aeabi_f2d+0x1e>
 80012ae:	0003      	movs	r3, r0
 80012b0:	002a      	movs	r2, r5
 80012b2:	3b0b      	subs	r3, #11
 80012b4:	409a      	lsls	r2, r3
 80012b6:	2500      	movs	r5, #0
 80012b8:	e7e3      	b.n	8001282 <__aeabi_f2d+0x5e>
 80012ba:	46c0      	nop			; (mov r8, r8)
 80012bc:	800fffff 	.word	0x800fffff
 80012c0:	00000389 	.word	0x00000389
 80012c4:	000007ff 	.word	0x000007ff

080012c8 <__aeabi_cdrcmple>:
 80012c8:	4684      	mov	ip, r0
 80012ca:	1c10      	adds	r0, r2, #0
 80012cc:	4662      	mov	r2, ip
 80012ce:	468c      	mov	ip, r1
 80012d0:	1c19      	adds	r1, r3, #0
 80012d2:	4663      	mov	r3, ip
 80012d4:	e000      	b.n	80012d8 <__aeabi_cdcmpeq>
 80012d6:	46c0      	nop			; (mov r8, r8)

080012d8 <__aeabi_cdcmpeq>:
 80012d8:	b51f      	push	{r0, r1, r2, r3, r4, lr}
 80012da:	f000 f8ef 	bl	80014bc <__ledf2>
 80012de:	2800      	cmp	r0, #0
 80012e0:	d401      	bmi.n	80012e6 <__aeabi_cdcmpeq+0xe>
 80012e2:	2100      	movs	r1, #0
 80012e4:	42c8      	cmn	r0, r1
 80012e6:	bd1f      	pop	{r0, r1, r2, r3, r4, pc}

080012e8 <__aeabi_dcmpeq>:
 80012e8:	b510      	push	{r4, lr}
 80012ea:	f000 f849 	bl	8001380 <__eqdf2>
 80012ee:	4240      	negs	r0, r0
 80012f0:	3001      	adds	r0, #1
 80012f2:	bd10      	pop	{r4, pc}

080012f4 <__aeabi_dcmplt>:
 80012f4:	b510      	push	{r4, lr}
 80012f6:	f000 f8e1 	bl	80014bc <__ledf2>
 80012fa:	2800      	cmp	r0, #0
 80012fc:	db01      	blt.n	8001302 <__aeabi_dcmplt+0xe>
 80012fe:	2000      	movs	r0, #0
 8001300:	bd10      	pop	{r4, pc}
 8001302:	2001      	movs	r0, #1
 8001304:	bd10      	pop	{r4, pc}
 8001306:	46c0      	nop			; (mov r8, r8)

08001308 <__aeabi_dcmple>:
 8001308:	b510      	push	{r4, lr}
 800130a:	f000 f8d7 	bl	80014bc <__ledf2>
 800130e:	2800      	cmp	r0, #0
 8001310:	dd01      	ble.n	8001316 <__aeabi_dcmple+0xe>
 8001312:	2000      	movs	r0, #0
 8001314:	bd10      	pop	{r4, pc}
 8001316:	2001      	movs	r0, #1
 8001318:	bd10      	pop	{r4, pc}
 800131a:	46c0      	nop			; (mov r8, r8)

0800131c <__aeabi_dcmpgt>:
 800131c:	b510      	push	{r4, lr}
 800131e:	f000 f869 	bl	80013f4 <__gedf2>
 8001322:	2800      	cmp	r0, #0
 8001324:	dc01      	bgt.n	800132a <__aeabi_dcmpgt+0xe>
 8001326:	2000      	movs	r0, #0
 8001328:	bd10      	pop	{r4, pc}
 800132a:	2001      	movs	r0, #1
 800132c:	bd10      	pop	{r4, pc}
 800132e:	46c0      	nop			; (mov r8, r8)

08001330 <__aeabi_dcmpge>:
 8001330:	b510      	push	{r4, lr}
 8001332:	f000 f85f 	bl	80013f4 <__gedf2>
 8001336:	2800      	cmp	r0, #0
 8001338:	da01      	bge.n	800133e <__aeabi_dcmpge+0xe>
 800133a:	2000      	movs	r0, #0
 800133c:	bd10      	pop	{r4, pc}
 800133e:	2001      	movs	r0, #1
 8001340:	bd10      	pop	{r4, pc}
 8001342:	46c0      	nop			; (mov r8, r8)

08001344 <__clzsi2>:
 8001344:	211c      	movs	r1, #28
 8001346:	2301      	movs	r3, #1
 8001348:	041b      	lsls	r3, r3, #16
 800134a:	4298      	cmp	r0, r3
 800134c:	d301      	bcc.n	8001352 <__clzsi2+0xe>
 800134e:	0c00      	lsrs	r0, r0, #16
 8001350:	3910      	subs	r1, #16
 8001352:	0a1b      	lsrs	r3, r3, #8
 8001354:	4298      	cmp	r0, r3
 8001356:	d301      	bcc.n	800135c <__clzsi2+0x18>
 8001358:	0a00      	lsrs	r0, r0, #8
 800135a:	3908      	subs	r1, #8
 800135c:	091b      	lsrs	r3, r3, #4
 800135e:	4298      	cmp	r0, r3
 8001360:	d301      	bcc.n	8001366 <__clzsi2+0x22>
 8001362:	0900      	lsrs	r0, r0, #4
 8001364:	3904      	subs	r1, #4
 8001366:	a202      	add	r2, pc, #8	; (adr r2, 8001370 <__clzsi2+0x2c>)
 8001368:	5c10      	ldrb	r0, [r2, r0]
 800136a:	1840      	adds	r0, r0, r1
 800136c:	4770      	bx	lr
 800136e:	46c0      	nop			; (mov r8, r8)
 8001370:	02020304 	.word	0x02020304
 8001374:	01010101 	.word	0x01010101
	...

08001380 <__eqdf2>:
 8001380:	b5f0      	push	{r4, r5, r6, r7, lr}
 8001382:	464f      	mov	r7, r9
 8001384:	4646      	mov	r6, r8
 8001386:	46d6      	mov	lr, sl
 8001388:	005c      	lsls	r4, r3, #1
 800138a:	b5c0      	push	{r6, r7, lr}
 800138c:	031f      	lsls	r7, r3, #12
 800138e:	0fdb      	lsrs	r3, r3, #31
 8001390:	469a      	mov	sl, r3
 8001392:	4b17      	ldr	r3, [pc, #92]	; (80013f0 <__eqdf2+0x70>)
 8001394:	030e      	lsls	r6, r1, #12
 8001396:	004d      	lsls	r5, r1, #1
 8001398:	4684      	mov	ip, r0
 800139a:	4680      	mov	r8, r0
 800139c:	0b36      	lsrs	r6, r6, #12
 800139e:	0d6d      	lsrs	r5, r5, #21
 80013a0:	0fc9      	lsrs	r1, r1, #31
 80013a2:	4691      	mov	r9, r2
 80013a4:	0b3f      	lsrs	r7, r7, #12
 80013a6:	0d64      	lsrs	r4, r4, #21
 80013a8:	2001      	movs	r0, #1
 80013aa:	429d      	cmp	r5, r3
 80013ac:	d008      	beq.n	80013c0 <__eqdf2+0x40>
 80013ae:	429c      	cmp	r4, r3
 80013b0:	d001      	beq.n	80013b6 <__eqdf2+0x36>
 80013b2:	42a5      	cmp	r5, r4
 80013b4:	d00b      	beq.n	80013ce <__eqdf2+0x4e>
 80013b6:	bc1c      	pop	{r2, r3, r4}
 80013b8:	4690      	mov	r8, r2
 80013ba:	4699      	mov	r9, r3
 80013bc:	46a2      	mov	sl, r4
 80013be:	bdf0      	pop	{r4, r5, r6, r7, pc}
 80013c0:	4663      	mov	r3, ip
 80013c2:	4333      	orrs	r3, r6
 80013c4:	d1f7      	bne.n	80013b6 <__eqdf2+0x36>
 80013c6:	42ac      	cmp	r4, r5
 80013c8:	d1f5      	bne.n	80013b6 <__eqdf2+0x36>
 80013ca:	433a      	orrs	r2, r7
 80013cc:	d1f3      	bne.n	80013b6 <__eqdf2+0x36>
 80013ce:	2001      	movs	r0, #1
 80013d0:	42be      	cmp	r6, r7
 80013d2:	d1f0      	bne.n	80013b6 <__eqdf2+0x36>
 80013d4:	45c8      	cmp	r8, r9
 80013d6:	d1ee      	bne.n	80013b6 <__eqdf2+0x36>
 80013d8:	4551      	cmp	r1, sl
 80013da:	d007      	beq.n	80013ec <__eqdf2+0x6c>
 80013dc:	2d00      	cmp	r5, #0
 80013de:	d1ea      	bne.n	80013b6 <__eqdf2+0x36>
 80013e0:	4663      	mov	r3, ip
 80013e2:	431e      	orrs	r6, r3
 80013e4:	0030      	movs	r0, r6
 80013e6:	1e46      	subs	r6, r0, #1
 80013e8:	41b0      	sbcs	r0, r6
 80013ea:	e7e4      	b.n	80013b6 <__eqdf2+0x36>
 80013ec:	2000      	movs	r0, #0
 80013ee:	e7e2      	b.n	80013b6 <__eqdf2+0x36>
 80013f0:	000007ff 	.word	0x000007ff

080013f4 <__gedf2>:
 80013f4:	b5f0      	push	{r4, r5, r6, r7, lr}
 80013f6:	4645      	mov	r5, r8
 80013f8:	46de      	mov	lr, fp
 80013fa:	4657      	mov	r7, sl
 80013fc:	464e      	mov	r6, r9
 80013fe:	b5e0      	push	{r5, r6, r7, lr}
 8001400:	031f      	lsls	r7, r3, #12
 8001402:	0b3d      	lsrs	r5, r7, #12
 8001404:	4f2c      	ldr	r7, [pc, #176]	; (80014b8 <__gedf2+0xc4>)
 8001406:	030e      	lsls	r6, r1, #12
 8001408:	004c      	lsls	r4, r1, #1
 800140a:	46ab      	mov	fp, r5
 800140c:	005d      	lsls	r5, r3, #1
 800140e:	4684      	mov	ip, r0
 8001410:	0b36      	lsrs	r6, r6, #12
 8001412:	0d64      	lsrs	r4, r4, #21
 8001414:	0fc9      	lsrs	r1, r1, #31
 8001416:	4690      	mov	r8, r2
 8001418:	0d6d      	lsrs	r5, r5, #21
 800141a:	0fdb      	lsrs	r3, r3, #31
 800141c:	42bc      	cmp	r4, r7
 800141e:	d02a      	beq.n	8001476 <__gedf2+0x82>
 8001420:	4f25      	ldr	r7, [pc, #148]	; (80014b8 <__gedf2+0xc4>)
 8001422:	42bd      	cmp	r5, r7
 8001424:	d02d      	beq.n	8001482 <__gedf2+0x8e>
 8001426:	2c00      	cmp	r4, #0
 8001428:	d10f      	bne.n	800144a <__gedf2+0x56>
 800142a:	4330      	orrs	r0, r6
 800142c:	0007      	movs	r7, r0
 800142e:	4681      	mov	r9, r0
 8001430:	4278      	negs	r0, r7
 8001432:	4178      	adcs	r0, r7
 8001434:	b2c0      	uxtb	r0, r0
 8001436:	2d00      	cmp	r5, #0
 8001438:	d117      	bne.n	800146a <__gedf2+0x76>
 800143a:	465f      	mov	r7, fp
 800143c:	433a      	orrs	r2, r7
 800143e:	d114      	bne.n	800146a <__gedf2+0x76>
 8001440:	464b      	mov	r3, r9
 8001442:	2000      	movs	r0, #0
 8001444:	2b00      	cmp	r3, #0
 8001446:	d00a      	beq.n	800145e <__gedf2+0x6a>
 8001448:	e006      	b.n	8001458 <__gedf2+0x64>
 800144a:	2d00      	cmp	r5, #0
 800144c:	d102      	bne.n	8001454 <__gedf2+0x60>
 800144e:	4658      	mov	r0, fp
 8001450:	4302      	orrs	r2, r0
 8001452:	d001      	beq.n	8001458 <__gedf2+0x64>
 8001454:	4299      	cmp	r1, r3
 8001456:	d018      	beq.n	800148a <__gedf2+0x96>
 8001458:	4248      	negs	r0, r1
 800145a:	2101      	movs	r1, #1
 800145c:	4308      	orrs	r0, r1
 800145e:	bc3c      	pop	{r2, r3, r4, r5}
 8001460:	4690      	mov	r8, r2
 8001462:	4699      	mov	r9, r3
 8001464:	46a2      	mov	sl, r4
 8001466:	46ab      	mov	fp, r5
 8001468:	bdf0      	pop	{r4, r5, r6, r7, pc}
 800146a:	2800      	cmp	r0, #0
 800146c:	d0f2      	beq.n	8001454 <__gedf2+0x60>
 800146e:	2001      	movs	r0, #1
 8001470:	3b01      	subs	r3, #1
 8001472:	4318      	orrs	r0, r3
 8001474:	e7f3      	b.n	800145e <__gedf2+0x6a>
 8001476:	0037      	movs	r7, r6
 8001478:	4307      	orrs	r7, r0
 800147a:	d0d1      	beq.n	8001420 <__gedf2+0x2c>
 800147c:	2002      	movs	r0, #2
 800147e:	4240      	negs	r0, r0
 8001480:	e7ed      	b.n	800145e <__gedf2+0x6a>
 8001482:	465f      	mov	r7, fp
 8001484:	4317      	orrs	r7, r2
 8001486:	d0ce      	beq.n	8001426 <__gedf2+0x32>
 8001488:	e7f8      	b.n	800147c <__gedf2+0x88>
 800148a:	42ac      	cmp	r4, r5
 800148c:	dce4      	bgt.n	8001458 <__gedf2+0x64>
 800148e:	da03      	bge.n	8001498 <__gedf2+0xa4>
 8001490:	1e48      	subs	r0, r1, #1
 8001492:	2101      	movs	r1, #1
 8001494:	4308      	orrs	r0, r1
 8001496:	e7e2      	b.n	800145e <__gedf2+0x6a>
 8001498:	455e      	cmp	r6, fp
 800149a:	d8dd      	bhi.n	8001458 <__gedf2+0x64>
 800149c:	d006      	beq.n	80014ac <__gedf2+0xb8>
 800149e:	2000      	movs	r0, #0
 80014a0:	455e      	cmp	r6, fp
 80014a2:	d2dc      	bcs.n	800145e <__gedf2+0x6a>
 80014a4:	2301      	movs	r3, #1
 80014a6:	1e48      	subs	r0, r1, #1
 80014a8:	4318      	orrs	r0, r3
 80014aa:	e7d8      	b.n	800145e <__gedf2+0x6a>
 80014ac:	45c4      	cmp	ip, r8
 80014ae:	d8d3      	bhi.n	8001458 <__gedf2+0x64>
 80014b0:	2000      	movs	r0, #0
 80014b2:	45c4      	cmp	ip, r8
 80014b4:	d3f6      	bcc.n	80014a4 <__gedf2+0xb0>
 80014b6:	e7d2      	b.n	800145e <__gedf2+0x6a>
 80014b8:	000007ff 	.word	0x000007ff

080014bc <__ledf2>:
 80014bc:	b5f0      	push	{r4, r5, r6, r7, lr}
 80014be:	464e      	mov	r6, r9
 80014c0:	4645      	mov	r5, r8
 80014c2:	46de      	mov	lr, fp
 80014c4:	4657      	mov	r7, sl
 80014c6:	005c      	lsls	r4, r3, #1
 80014c8:	b5e0      	push	{r5, r6, r7, lr}
 80014ca:	031f      	lsls	r7, r3, #12
 80014cc:	0fdb      	lsrs	r3, r3, #31
 80014ce:	4699      	mov	r9, r3
 80014d0:	4b2a      	ldr	r3, [pc, #168]	; (800157c <__ledf2+0xc0>)
 80014d2:	030e      	lsls	r6, r1, #12
 80014d4:	004d      	lsls	r5, r1, #1
 80014d6:	0fc9      	lsrs	r1, r1, #31
 80014d8:	4684      	mov	ip, r0
 80014da:	0b36      	lsrs	r6, r6, #12
 80014dc:	0d6d      	lsrs	r5, r5, #21
 80014de:	468b      	mov	fp, r1
 80014e0:	4690      	mov	r8, r2
 80014e2:	0b3f      	lsrs	r7, r7, #12
 80014e4:	0d64      	lsrs	r4, r4, #21
 80014e6:	429d      	cmp	r5, r3
 80014e8:	d020      	beq.n	800152c <__ledf2+0x70>
 80014ea:	4b24      	ldr	r3, [pc, #144]	; (800157c <__ledf2+0xc0>)
 80014ec:	429c      	cmp	r4, r3
 80014ee:	d022      	beq.n	8001536 <__ledf2+0x7a>
 80014f0:	2d00      	cmp	r5, #0
 80014f2:	d112      	bne.n	800151a <__ledf2+0x5e>
 80014f4:	4330      	orrs	r0, r6
 80014f6:	4243      	negs	r3, r0
 80014f8:	4143      	adcs	r3, r0
 80014fa:	b2db      	uxtb	r3, r3
 80014fc:	2c00      	cmp	r4, #0
 80014fe:	d01f      	beq.n	8001540 <__ledf2+0x84>
 8001500:	2b00      	cmp	r3, #0
 8001502:	d00c      	beq.n	800151e <__ledf2+0x62>
 8001504:	464b      	mov	r3, r9
 8001506:	2001      	movs	r0, #1
 8001508:	3b01      	subs	r3, #1
 800150a:	4303      	orrs	r3, r0
 800150c:	0018      	movs	r0, r3
 800150e:	bc3c      	pop	{r2, r3, r4, r5}
 8001510:	4690      	mov	r8, r2
 8001512:	4699      	mov	r9, r3
 8001514:	46a2      	mov	sl, r4
 8001516:	46ab      	mov	fp, r5
 8001518:	bdf0      	pop	{r4, r5, r6, r7, pc}
 800151a:	2c00      	cmp	r4, #0
 800151c:	d016      	beq.n	800154c <__ledf2+0x90>
 800151e:	45cb      	cmp	fp, r9
 8001520:	d017      	beq.n	8001552 <__ledf2+0x96>
 8001522:	465b      	mov	r3, fp
 8001524:	4259      	negs	r1, r3
 8001526:	2301      	movs	r3, #1
 8001528:	430b      	orrs	r3, r1
 800152a:	e7ef      	b.n	800150c <__ledf2+0x50>
 800152c:	0031      	movs	r1, r6
 800152e:	2302      	movs	r3, #2
 8001530:	4301      	orrs	r1, r0
 8001532:	d1eb      	bne.n	800150c <__ledf2+0x50>
 8001534:	e7d9      	b.n	80014ea <__ledf2+0x2e>
 8001536:	0039      	movs	r1, r7
 8001538:	2302      	movs	r3, #2
 800153a:	4311      	orrs	r1, r2
 800153c:	d1e6      	bne.n	800150c <__ledf2+0x50>
 800153e:	e7d7      	b.n	80014f0 <__ledf2+0x34>
 8001540:	433a      	orrs	r2, r7
 8001542:	d1dd      	bne.n	8001500 <__ledf2+0x44>
 8001544:	2300      	movs	r3, #0
 8001546:	2800      	cmp	r0, #0
 8001548:	d0e0      	beq.n	800150c <__ledf2+0x50>
 800154a:	e7ea      	b.n	8001522 <__ledf2+0x66>
 800154c:	433a      	orrs	r2, r7
 800154e:	d1e6      	bne.n	800151e <__ledf2+0x62>
 8001550:	e7e7      	b.n	8001522 <__ledf2+0x66>
 8001552:	42a5      	cmp	r5, r4
 8001554:	dce5      	bgt.n	8001522 <__ledf2+0x66>
 8001556:	db05      	blt.n	8001564 <__ledf2+0xa8>
 8001558:	42be      	cmp	r6, r7
 800155a:	d8e2      	bhi.n	8001522 <__ledf2+0x66>
 800155c:	d007      	beq.n	800156e <__ledf2+0xb2>
 800155e:	2300      	movs	r3, #0
 8001560:	42be      	cmp	r6, r7
 8001562:	d2d3      	bcs.n	800150c <__ledf2+0x50>
 8001564:	4659      	mov	r1, fp
 8001566:	2301      	movs	r3, #1
 8001568:	3901      	subs	r1, #1
 800156a:	430b      	orrs	r3, r1
 800156c:	e7ce      	b.n	800150c <__ledf2+0x50>
 800156e:	45c4      	cmp	ip, r8
 8001570:	d8d7      	bhi.n	8001522 <__ledf2+0x66>
 8001572:	2300      	movs	r3, #0
 8001574:	45c4      	cmp	ip, r8
 8001576:	d3f5      	bcc.n	8001564 <__ledf2+0xa8>
 8001578:	e7c8      	b.n	800150c <__ledf2+0x50>
 800157a:	46c0      	nop			; (mov r8, r8)
 800157c:	000007ff 	.word	0x000007ff

08001580 <HAL_Init>:
  *        In the default implementation,Systick is used as source of time base.
  *        the tick variable is incremented each 1ms in its ISR.
  * @retval HAL status
  */
HAL_StatusTypeDef HAL_Init(void)
{
 8001580:	b580      	push	{r7, lr}
 8001582:	af00      	add	r7, sp, #0
#if (BUFFER_CACHE_DISABLE != 0)
  __HAL_FLASH_BUFFER_CACHE_DISABLE();
#endif /* BUFFER_CACHE_DISABLE */

#if (PREREAD_ENABLE != 0)
  __HAL_FLASH_PREREAD_BUFFER_ENABLE();
 8001584:	4b07      	ldr	r3, [pc, #28]	; (80015a4 <HAL_Init+0x24>)
 8001586:	4a07      	ldr	r2, [pc, #28]	; (80015a4 <HAL_Init+0x24>)
 8001588:	6812      	ldr	r2, [r2, #0]
 800158a:	2140      	movs	r1, #64	; 0x40
 800158c:	430a      	orrs	r2, r1
 800158e:	601a      	str	r2, [r3, #0]
  __HAL_FLASH_PREFETCH_BUFFER_ENABLE();
#endif /* PREFETCH_ENABLE */

  /* Use systick as time base source and configure 1ms tick (default clock after Reset is MSI) */

  HAL_InitTick(TICK_INT_PRIORITY);
 8001590:	2000      	movs	r0, #0
 8001592:	f000 f809 	bl	80015a8 <HAL_InitTick>

  /* Init the low level hardware */
  HAL_MspInit();
 8001596:	f005 fae9 	bl	8006b6c <HAL_MspInit>

  /* Return function status */
  return HAL_OK;
 800159a:	2300      	movs	r3, #0
}
 800159c:	0018      	movs	r0, r3
 800159e:	46bd      	mov	sp, r7
 80015a0:	bd80      	pop	{r7, pc}
 80015a2:	46c0      	nop			; (mov r8, r8)
 80015a4:	40022000 	.word	0x40022000

080015a8 <HAL_InitTick>:
  *       implementation  in user file.
  * @param TickPriority: Tick interrupt priority.
  * @retval HAL status
  */
__weak HAL_StatusTypeDef HAL_InitTick(uint32_t TickPriority)
{
 80015a8:	b580      	push	{r7, lr}
 80015aa:	b082      	sub	sp, #8
 80015ac:	af00      	add	r7, sp, #0
 80015ae:	6078      	str	r0, [r7, #4]
  /*Configure the SysTick to have interrupt in 1ms time basis*/
  HAL_SYSTICK_Config(SystemCoreClock/1000U);
 80015b0:	4b0b      	ldr	r3, [pc, #44]	; (80015e0 <HAL_InitTick+0x38>)
 80015b2:	681a      	ldr	r2, [r3, #0]
 80015b4:	23fa      	movs	r3, #250	; 0xfa
 80015b6:	0099      	lsls	r1, r3, #2
 80015b8:	0010      	movs	r0, r2
 80015ba:	f7fe fda5 	bl	8000108 <__udivsi3>
 80015be:	0003      	movs	r3, r0
 80015c0:	0018      	movs	r0, r3
 80015c2:	f000 fdb7 	bl	8002134 <HAL_SYSTICK_Config>

  /*Configure the SysTick IRQ priority */
  HAL_NVIC_SetPriority(SysTick_IRQn, TickPriority ,0U);
 80015c6:	6879      	ldr	r1, [r7, #4]
 80015c8:	2301      	movs	r3, #1
 80015ca:	425b      	negs	r3, r3
 80015cc:	2200      	movs	r2, #0
 80015ce:	0018      	movs	r0, r3
 80015d0:	f000 fd8a 	bl	80020e8 <HAL_NVIC_SetPriority>

   /* Return function status */
  return HAL_OK;
 80015d4:	2300      	movs	r3, #0
}
 80015d6:	0018      	movs	r0, r3
 80015d8:	46bd      	mov	sp, r7
 80015da:	b002      	add	sp, #8
 80015dc:	bd80      	pop	{r7, pc}
 80015de:	46c0      	nop			; (mov r8, r8)
 80015e0:	20000004 	.word	0x20000004

080015e4 <HAL_IncTick>:
 * @note This function is declared as __weak to be overwritten in case of other 
  *      implementations in user file.
  * @retval None
  */
__weak void HAL_IncTick(void)
{
 80015e4:	b580      	push	{r7, lr}
 80015e6:	af00      	add	r7, sp, #0
  uwTick++;
 80015e8:	4b03      	ldr	r3, [pc, #12]	; (80015f8 <HAL_IncTick+0x14>)
 80015ea:	681b      	ldr	r3, [r3, #0]
 80015ec:	1c5a      	adds	r2, r3, #1
 80015ee:	4b02      	ldr	r3, [pc, #8]	; (80015f8 <HAL_IncTick+0x14>)
 80015f0:	601a      	str	r2, [r3, #0]
}
 80015f2:	46c0      	nop			; (mov r8, r8)
 80015f4:	46bd      	mov	sp, r7
 80015f6:	bd80      	pop	{r7, pc}
 80015f8:	20000468 	.word	0x20000468

080015fc <HAL_GetTick>:
  * @note This function is declared as __weak to be overwritten in case of other 
  *       implementations in user file.
  * @retval tick value
  */
__weak uint32_t HAL_GetTick(void)
{
 80015fc:	b580      	push	{r7, lr}
 80015fe:	af00      	add	r7, sp, #0
  return uwTick;
 8001600:	4b02      	ldr	r3, [pc, #8]	; (800160c <HAL_GetTick+0x10>)
 8001602:	681b      	ldr	r3, [r3, #0]
}
 8001604:	0018      	movs	r0, r3
 8001606:	46bd      	mov	sp, r7
 8001608:	bd80      	pop	{r7, pc}
 800160a:	46c0      	nop			; (mov r8, r8)
 800160c:	20000468 	.word	0x20000468

08001610 <HAL_Delay>:
  *       implementations in user file.
  * @param Delay: specifies the delay time length, in milliseconds.
  * @retval None
  */
__weak void HAL_Delay(__IO uint32_t Delay)
{
 8001610:	b580      	push	{r7, lr}
 8001612:	b084      	sub	sp, #16
 8001614:	af00      	add	r7, sp, #0
 8001616:	6078      	str	r0, [r7, #4]
  uint32_t tickstart = 0U;
 8001618:	2300      	movs	r3, #0
 800161a:	60fb      	str	r3, [r7, #12]
  tickstart = HAL_GetTick();
 800161c:	f7ff ffee 	bl	80015fc <HAL_GetTick>
 8001620:	0003      	movs	r3, r0
 8001622:	60fb      	str	r3, [r7, #12]
  while((HAL_GetTick() - tickstart) < Delay)
 8001624:	46c0      	nop			; (mov r8, r8)
 8001626:	f7ff ffe9 	bl	80015fc <HAL_GetTick>
 800162a:	0002      	movs	r2, r0
 800162c:	68fb      	ldr	r3, [r7, #12]
 800162e:	1ad2      	subs	r2, r2, r3
 8001630:	687b      	ldr	r3, [r7, #4]
 8001632:	429a      	cmp	r2, r3
 8001634:	d3f7      	bcc.n	8001626 <HAL_Delay+0x16>
  {
  }
}
 8001636:	46c0      	nop			; (mov r8, r8)
 8001638:	46bd      	mov	sp, r7
 800163a:	b004      	add	sp, #16
 800163c:	bd80      	pop	{r7, pc}
	...

08001640 <HAL_ADC_Init>:
  *         function "HAL_ADCEx_EnableVREFINTTempSensor()" must be called similarilly.  
  * @param  hadc: ADC handle
  * @retval HAL status
  */
HAL_StatusTypeDef HAL_ADC_Init(ADC_HandleTypeDef* hadc)
{
 8001640:	b580      	push	{r7, lr}
 8001642:	b082      	sub	sp, #8
 8001644:	af00      	add	r7, sp, #0
 8001646:	6078      	str	r0, [r7, #4]
 
  /* Check ADC handle */
  if(hadc == NULL)
 8001648:	687b      	ldr	r3, [r7, #4]
 800164a:	2b00      	cmp	r3, #0
 800164c:	d101      	bne.n	8001652 <HAL_ADC_Init+0x12>
  {
    return HAL_ERROR;
 800164e:	2301      	movs	r3, #1
 8001650:	e153      	b.n	80018fa <HAL_ADC_Init+0x2ba>
  /* Refer to header of this file for more details on clock enabling procedure*/
  
  /* Actions performed only if ADC is coming from state reset:                */
  /* - Initialization of ADC MSP                                              */
  /* - ADC voltage regulator enable                                           */
  if(hadc->State == HAL_ADC_STATE_RESET)
 8001652:	687b      	ldr	r3, [r7, #4]
 8001654:	6d9b      	ldr	r3, [r3, #88]	; 0x58
 8001656:	2b00      	cmp	r3, #0
 8001658:	d10a      	bne.n	8001670 <HAL_ADC_Init+0x30>
  {
    /* Initialize ADC error code */
    ADC_CLEAR_ERRORCODE(hadc);
 800165a:	687b      	ldr	r3, [r7, #4]
 800165c:	2200      	movs	r2, #0
 800165e:	65da      	str	r2, [r3, #92]	; 0x5c
    
    /* Allocate lock resource and initialize it */
    hadc->Lock = HAL_UNLOCKED;
 8001660:	687b      	ldr	r3, [r7, #4]
 8001662:	2254      	movs	r2, #84	; 0x54
 8001664:	2100      	movs	r1, #0
 8001666:	5499      	strb	r1, [r3, r2]
    
    /* Init the low level hardware */
    HAL_ADC_MspInit(hadc);
 8001668:	687b      	ldr	r3, [r7, #4]
 800166a:	0018      	movs	r0, r3
 800166c:	f000 f956 	bl	800191c <HAL_ADC_MspInit>
  /* Configuration of ADC parameters if previous preliminary actions are      */ 
  /* correctly completed.                                                     */
  /* and if there is no conversion on going on regular group (ADC can be      */
  /* enabled anyway, in case of call of this function to update a parameter   */
  /* on the fly).                                                             */
  if (HAL_IS_BIT_SET(hadc->State, HAL_ADC_STATE_ERROR_INTERNAL) ||
 8001670:	687b      	ldr	r3, [r7, #4]
 8001672:	6d9b      	ldr	r3, [r3, #88]	; 0x58
 8001674:	2210      	movs	r2, #16
 8001676:	4013      	ands	r3, r2
 8001678:	d105      	bne.n	8001686 <HAL_ADC_Init+0x46>
     (ADC_IS_CONVERSION_ONGOING_REGULAR(hadc) != RESET)  )
 800167a:	687b      	ldr	r3, [r7, #4]
 800167c:	681b      	ldr	r3, [r3, #0]
 800167e:	689b      	ldr	r3, [r3, #8]
 8001680:	2204      	movs	r2, #4
 8001682:	4013      	ands	r3, r2
  if (HAL_IS_BIT_SET(hadc->State, HAL_ADC_STATE_ERROR_INTERNAL) ||
 8001684:	d00b      	beq.n	800169e <HAL_ADC_Init+0x5e>
  {
    /* Update ADC state machine to error */
    SET_BIT(hadc->State, HAL_ADC_STATE_ERROR_INTERNAL);
 8001686:	687b      	ldr	r3, [r7, #4]
 8001688:	6d9b      	ldr	r3, [r3, #88]	; 0x58
 800168a:	2210      	movs	r2, #16
 800168c:	431a      	orrs	r2, r3
 800168e:	687b      	ldr	r3, [r7, #4]
 8001690:	659a      	str	r2, [r3, #88]	; 0x58
        
    /* Process unlocked */
    __HAL_UNLOCK(hadc);
 8001692:	687b      	ldr	r3, [r7, #4]
 8001694:	2254      	movs	r2, #84	; 0x54
 8001696:	2100      	movs	r1, #0
 8001698:	5499      	strb	r1, [r3, r2]
    return HAL_ERROR;
 800169a:	2301      	movs	r3, #1
 800169c:	e12d      	b.n	80018fa <HAL_ADC_Init+0x2ba>
  }

  /* Set ADC state */
  ADC_STATE_CLR_SET(hadc->State,
 800169e:	687b      	ldr	r3, [r7, #4]
 80016a0:	6d9b      	ldr	r3, [r3, #88]	; 0x58
 80016a2:	4a98      	ldr	r2, [pc, #608]	; (8001904 <HAL_ADC_Init+0x2c4>)
 80016a4:	4013      	ands	r3, r2
 80016a6:	2202      	movs	r2, #2
 80016a8:	431a      	orrs	r2, r3
 80016aa:	687b      	ldr	r3, [r7, #4]
 80016ac:	659a      	str	r2, [r3, #88]	; 0x58
  /* Parameters update conditioned to ADC state:                            */
  /* Parameters that can be updated only when ADC is disabled:              */
  /*  - ADC clock mode                                                      */
  /*  - ADC clock prescaler                                                 */
  /*  - ADC Resolution                                                      */
  if (ADC_IS_ENABLE(hadc) == RESET)
 80016ae:	687b      	ldr	r3, [r7, #4]
 80016b0:	681b      	ldr	r3, [r3, #0]
 80016b2:	689b      	ldr	r3, [r3, #8]
 80016b4:	2203      	movs	r2, #3
 80016b6:	4013      	ands	r3, r2
 80016b8:	2b01      	cmp	r3, #1
 80016ba:	d108      	bne.n	80016ce <HAL_ADC_Init+0x8e>
 80016bc:	687b      	ldr	r3, [r7, #4]
 80016be:	681b      	ldr	r3, [r3, #0]
 80016c0:	681b      	ldr	r3, [r3, #0]
 80016c2:	2201      	movs	r2, #1
 80016c4:	4013      	ands	r3, r2
 80016c6:	2b01      	cmp	r3, #1
 80016c8:	d101      	bne.n	80016ce <HAL_ADC_Init+0x8e>
 80016ca:	2301      	movs	r3, #1
 80016cc:	e000      	b.n	80016d0 <HAL_ADC_Init+0x90>
 80016ce:	2300      	movs	r3, #0
 80016d0:	2b00      	cmp	r3, #0
 80016d2:	d149      	bne.n	8001768 <HAL_ADC_Init+0x128>
    /*   - internal measurement paths: Vbat, temperature sensor, Vref       */
    /*     (set into HAL_ADC_ConfigChannel() )                              */
   
    /* Configuration of ADC clock: clock source PCLK or asynchronous with 
    selectable prescaler */
    __HAL_ADC_CLOCK_PRESCALER(hadc);
 80016d4:	687b      	ldr	r3, [r7, #4]
 80016d6:	685a      	ldr	r2, [r3, #4]
 80016d8:	23c0      	movs	r3, #192	; 0xc0
 80016da:	061b      	lsls	r3, r3, #24
 80016dc:	429a      	cmp	r2, r3
 80016de:	d00b      	beq.n	80016f8 <HAL_ADC_Init+0xb8>
 80016e0:	687b      	ldr	r3, [r7, #4]
 80016e2:	685a      	ldr	r2, [r3, #4]
 80016e4:	2380      	movs	r3, #128	; 0x80
 80016e6:	05db      	lsls	r3, r3, #23
 80016e8:	429a      	cmp	r2, r3
 80016ea:	d005      	beq.n	80016f8 <HAL_ADC_Init+0xb8>
 80016ec:	687b      	ldr	r3, [r7, #4]
 80016ee:	685a      	ldr	r2, [r3, #4]
 80016f0:	2380      	movs	r3, #128	; 0x80
 80016f2:	061b      	lsls	r3, r3, #24
 80016f4:	429a      	cmp	r2, r3
 80016f6:	d111      	bne.n	800171c <HAL_ADC_Init+0xdc>
 80016f8:	687b      	ldr	r3, [r7, #4]
 80016fa:	681b      	ldr	r3, [r3, #0]
 80016fc:	687a      	ldr	r2, [r7, #4]
 80016fe:	6812      	ldr	r2, [r2, #0]
 8001700:	6912      	ldr	r2, [r2, #16]
 8001702:	0092      	lsls	r2, r2, #2
 8001704:	0892      	lsrs	r2, r2, #2
 8001706:	611a      	str	r2, [r3, #16]
 8001708:	687b      	ldr	r3, [r7, #4]
 800170a:	681b      	ldr	r3, [r3, #0]
 800170c:	687a      	ldr	r2, [r7, #4]
 800170e:	6812      	ldr	r2, [r2, #0]
 8001710:	6911      	ldr	r1, [r2, #16]
 8001712:	687a      	ldr	r2, [r7, #4]
 8001714:	6852      	ldr	r2, [r2, #4]
 8001716:	430a      	orrs	r2, r1
 8001718:	611a      	str	r2, [r3, #16]
 800171a:	e014      	b.n	8001746 <HAL_ADC_Init+0x106>
 800171c:	687b      	ldr	r3, [r7, #4]
 800171e:	681b      	ldr	r3, [r3, #0]
 8001720:	687a      	ldr	r2, [r7, #4]
 8001722:	6812      	ldr	r2, [r2, #0]
 8001724:	6912      	ldr	r2, [r2, #16]
 8001726:	0092      	lsls	r2, r2, #2
 8001728:	0892      	lsrs	r2, r2, #2
 800172a:	611a      	str	r2, [r3, #16]
 800172c:	4b76      	ldr	r3, [pc, #472]	; (8001908 <HAL_ADC_Init+0x2c8>)
 800172e:	4a76      	ldr	r2, [pc, #472]	; (8001908 <HAL_ADC_Init+0x2c8>)
 8001730:	6812      	ldr	r2, [r2, #0]
 8001732:	4976      	ldr	r1, [pc, #472]	; (800190c <HAL_ADC_Init+0x2cc>)
 8001734:	400a      	ands	r2, r1
 8001736:	601a      	str	r2, [r3, #0]
 8001738:	4a73      	ldr	r2, [pc, #460]	; (8001908 <HAL_ADC_Init+0x2c8>)
 800173a:	4b73      	ldr	r3, [pc, #460]	; (8001908 <HAL_ADC_Init+0x2c8>)
 800173c:	6819      	ldr	r1, [r3, #0]
 800173e:	687b      	ldr	r3, [r7, #4]
 8001740:	685b      	ldr	r3, [r3, #4]
 8001742:	430b      	orrs	r3, r1
 8001744:	6013      	str	r3, [r2, #0]
    
    /* Configuration of ADC:                                                */
    /*  - Resolution                                                        */
    hadc->Instance->CFGR1 &= ~( ADC_CFGR1_RES);
 8001746:	687b      	ldr	r3, [r7, #4]
 8001748:	681b      	ldr	r3, [r3, #0]
 800174a:	687a      	ldr	r2, [r7, #4]
 800174c:	6812      	ldr	r2, [r2, #0]
 800174e:	68d2      	ldr	r2, [r2, #12]
 8001750:	2118      	movs	r1, #24
 8001752:	438a      	bics	r2, r1
 8001754:	60da      	str	r2, [r3, #12]
    hadc->Instance->CFGR1 |= hadc->Init.Resolution;    
 8001756:	687b      	ldr	r3, [r7, #4]
 8001758:	681b      	ldr	r3, [r3, #0]
 800175a:	687a      	ldr	r2, [r7, #4]
 800175c:	6812      	ldr	r2, [r2, #0]
 800175e:	68d1      	ldr	r1, [r2, #12]
 8001760:	687a      	ldr	r2, [r7, #4]
 8001762:	6892      	ldr	r2, [r2, #8]
 8001764:	430a      	orrs	r2, r1
 8001766:	60da      	str	r2, [r3, #12]
  }
  
  /* Set the Low Frequency mode */
  ADC->CCR &= (uint32_t)~ADC_CCR_LFMEN;
 8001768:	4b67      	ldr	r3, [pc, #412]	; (8001908 <HAL_ADC_Init+0x2c8>)
 800176a:	4a67      	ldr	r2, [pc, #412]	; (8001908 <HAL_ADC_Init+0x2c8>)
 800176c:	6812      	ldr	r2, [r2, #0]
 800176e:	4968      	ldr	r1, [pc, #416]	; (8001910 <HAL_ADC_Init+0x2d0>)
 8001770:	400a      	ands	r2, r1
 8001772:	601a      	str	r2, [r3, #0]
  ADC->CCR |=__HAL_ADC_CCR_LOWFREQUENCY(hadc->Init.LowPowerFrequencyMode);  
 8001774:	4a64      	ldr	r2, [pc, #400]	; (8001908 <HAL_ADC_Init+0x2c8>)
 8001776:	4b64      	ldr	r3, [pc, #400]	; (8001908 <HAL_ADC_Init+0x2c8>)
 8001778:	6819      	ldr	r1, [r3, #0]
 800177a:	687b      	ldr	r3, [r7, #4]
 800177c:	6b9b      	ldr	r3, [r3, #56]	; 0x38
 800177e:	065b      	lsls	r3, r3, #25
 8001780:	430b      	orrs	r3, r1
 8001782:	6013      	str	r3, [r2, #0]
   
  /* Enable voltage regulator (if disabled at this step) */
  if (HAL_IS_BIT_CLR(hadc->Instance->CR, ADC_CR_ADVREGEN))
 8001784:	687b      	ldr	r3, [r7, #4]
 8001786:	681b      	ldr	r3, [r3, #0]
 8001788:	689a      	ldr	r2, [r3, #8]
 800178a:	2380      	movs	r3, #128	; 0x80
 800178c:	055b      	lsls	r3, r3, #21
 800178e:	4013      	ands	r3, r2
 8001790:	d108      	bne.n	80017a4 <HAL_ADC_Init+0x164>
  {
    /* Set ADVREGEN bit */
    hadc->Instance->CR |= ADC_CR_ADVREGEN;
 8001792:	687b      	ldr	r3, [r7, #4]
 8001794:	681b      	ldr	r3, [r3, #0]
 8001796:	687a      	ldr	r2, [r7, #4]
 8001798:	6812      	ldr	r2, [r2, #0]
 800179a:	6892      	ldr	r2, [r2, #8]
 800179c:	2180      	movs	r1, #128	; 0x80
 800179e:	0549      	lsls	r1, r1, #21
 80017a0:	430a      	orrs	r2, r1
 80017a2:	609a      	str	r2, [r3, #8]
  /*  - Continuous conversion mode                                            */
  /*  - DMA continuous request                                                */
  /*  - Overrun                                                               */
  /*  - AutoDelay feature                                                     */
  /*  - Discontinuous mode                                                    */
  hadc->Instance->CFGR1 &= ~(ADC_CFGR1_ALIGN   |
 80017a4:	687b      	ldr	r3, [r7, #4]
 80017a6:	681b      	ldr	r3, [r3, #0]
 80017a8:	687a      	ldr	r2, [r7, #4]
 80017aa:	6812      	ldr	r2, [r2, #0]
 80017ac:	68d2      	ldr	r2, [r2, #12]
 80017ae:	4959      	ldr	r1, [pc, #356]	; (8001914 <HAL_ADC_Init+0x2d4>)
 80017b0:	400a      	ands	r2, r1
 80017b2:	60da      	str	r2, [r3, #12]
                             ADC_CFGR1_OVRMOD  |
                             ADC_CFGR1_AUTDLY  |
                             ADC_CFGR1_AUTOFF  |
                             ADC_CFGR1_DISCEN   );
  
  hadc->Instance->CFGR1 |= (hadc->Init.DataAlign                             |
 80017b4:	687b      	ldr	r3, [r7, #4]
 80017b6:	681b      	ldr	r3, [r3, #0]
 80017b8:	687a      	ldr	r2, [r7, #4]
 80017ba:	6812      	ldr	r2, [r2, #0]
 80017bc:	68d1      	ldr	r1, [r2, #12]
 80017be:	687a      	ldr	r2, [r7, #4]
 80017c0:	68d0      	ldr	r0, [r2, #12]
                            ADC_SCANDIR(hadc->Init.ScanConvMode)             |
 80017c2:	687a      	ldr	r2, [r7, #4]
 80017c4:	6912      	ldr	r2, [r2, #16]
 80017c6:	2a02      	cmp	r2, #2
 80017c8:	d101      	bne.n	80017ce <HAL_ADC_Init+0x18e>
 80017ca:	2204      	movs	r2, #4
 80017cc:	e000      	b.n	80017d0 <HAL_ADC_Init+0x190>
 80017ce:	2200      	movs	r2, #0
  hadc->Instance->CFGR1 |= (hadc->Init.DataAlign                             |
 80017d0:	4310      	orrs	r0, r2
                            ADC_CONTINUOUS(hadc->Init.ContinuousConvMode)    |
 80017d2:	687a      	ldr	r2, [r7, #4]
 80017d4:	6a12      	ldr	r2, [r2, #32]
 80017d6:	0352      	lsls	r2, r2, #13
                            ADC_SCANDIR(hadc->Init.ScanConvMode)             |
 80017d8:	4310      	orrs	r0, r2
                            ADC_DMACONTREQ(hadc->Init.DMAContinuousRequests) |
 80017da:	687a      	ldr	r2, [r7, #4]
 80017dc:	6b12      	ldr	r2, [r2, #48]	; 0x30
 80017de:	0052      	lsls	r2, r2, #1
                            ADC_CONTINUOUS(hadc->Init.ContinuousConvMode)    |
 80017e0:	4310      	orrs	r0, r2
                            hadc->Init.Overrun                               |
 80017e2:	687a      	ldr	r2, [r7, #4]
 80017e4:	6b52      	ldr	r2, [r2, #52]	; 0x34
                            ADC_DMACONTREQ(hadc->Init.DMAContinuousRequests) |
 80017e6:	4310      	orrs	r0, r2
                            __HAL_ADC_CFGR1_AutoDelay(hadc->Init.LowPowerAutoWait) |
 80017e8:	687a      	ldr	r2, [r7, #4]
 80017ea:	6992      	ldr	r2, [r2, #24]
 80017ec:	0392      	lsls	r2, r2, #14
                            hadc->Init.Overrun                               |
 80017ee:	4310      	orrs	r0, r2
                            __HAL_ADC_CFGR1_AUTOFF(hadc->Init.LowPowerAutoPowerOff));
 80017f0:	687a      	ldr	r2, [r7, #4]
 80017f2:	69d2      	ldr	r2, [r2, #28]
 80017f4:	03d2      	lsls	r2, r2, #15
                            __HAL_ADC_CFGR1_AutoDelay(hadc->Init.LowPowerAutoWait) |
 80017f6:	4302      	orrs	r2, r0
  hadc->Instance->CFGR1 |= (hadc->Init.DataAlign                             |
 80017f8:	430a      	orrs	r2, r1
 80017fa:	60da      	str	r2, [r3, #12]
  /* Enable external trigger if trigger selection is different of software  */
  /* start.                                                                 */
  /* Note: This configuration keeps the hardware feature of parameter       */
  /*       ExternalTrigConvEdge "trigger edge none" equivalent to           */
  /*       software start.                                                  */
  if (hadc->Init.ExternalTrigConv != ADC_SOFTWARE_START)
 80017fc:	687b      	ldr	r3, [r7, #4]
 80017fe:	6a9a      	ldr	r2, [r3, #40]	; 0x28
 8001800:	23c2      	movs	r3, #194	; 0xc2
 8001802:	33ff      	adds	r3, #255	; 0xff
 8001804:	429a      	cmp	r2, r3
 8001806:	d00b      	beq.n	8001820 <HAL_ADC_Init+0x1e0>
  {
    hadc->Instance->CFGR1 |= hadc->Init.ExternalTrigConv |
 8001808:	687b      	ldr	r3, [r7, #4]
 800180a:	681b      	ldr	r3, [r3, #0]
 800180c:	687a      	ldr	r2, [r7, #4]
 800180e:	6812      	ldr	r2, [r2, #0]
 8001810:	68d1      	ldr	r1, [r2, #12]
 8001812:	687a      	ldr	r2, [r7, #4]
 8001814:	6a90      	ldr	r0, [r2, #40]	; 0x28
                             hadc->Init.ExternalTrigConvEdge;
 8001816:	687a      	ldr	r2, [r7, #4]
 8001818:	6ad2      	ldr	r2, [r2, #44]	; 0x2c
    hadc->Instance->CFGR1 |= hadc->Init.ExternalTrigConv |
 800181a:	4302      	orrs	r2, r0
 800181c:	430a      	orrs	r2, r1
 800181e:	60da      	str	r2, [r3, #12]
  }
  
  /* Enable discontinuous mode only if continuous mode is disabled */
  if (hadc->Init.DiscontinuousConvMode == ENABLE)
 8001820:	687b      	ldr	r3, [r7, #4]
 8001822:	6a5b      	ldr	r3, [r3, #36]	; 0x24
 8001824:	2b01      	cmp	r3, #1
 8001826:	d119      	bne.n	800185c <HAL_ADC_Init+0x21c>
  {
    if (hadc->Init.ContinuousConvMode == DISABLE)
 8001828:	687b      	ldr	r3, [r7, #4]
 800182a:	6a1b      	ldr	r3, [r3, #32]
 800182c:	2b00      	cmp	r3, #0
 800182e:	d109      	bne.n	8001844 <HAL_ADC_Init+0x204>
    {
      /* Enable the selected ADC group regular discontinuous mode */
      hadc->Instance->CFGR1 |= (ADC_CFGR1_DISCEN);
 8001830:	687b      	ldr	r3, [r7, #4]
 8001832:	681b      	ldr	r3, [r3, #0]
 8001834:	687a      	ldr	r2, [r7, #4]
 8001836:	6812      	ldr	r2, [r2, #0]
 8001838:	68d2      	ldr	r2, [r2, #12]
 800183a:	2180      	movs	r1, #128	; 0x80
 800183c:	0249      	lsls	r1, r1, #9
 800183e:	430a      	orrs	r2, r1
 8001840:	60da      	str	r2, [r3, #12]
 8001842:	e00b      	b.n	800185c <HAL_ADC_Init+0x21c>
      /* ADC regular group discontinuous was intended to be enabled,        */
      /* but ADC regular group modes continuous and sequencer discontinuous */
      /* cannot be enabled simultaneously.                                  */
      
      /* Update ADC state machine to error */
      SET_BIT(hadc->State, HAL_ADC_STATE_ERROR_CONFIG);
 8001844:	687b      	ldr	r3, [r7, #4]
 8001846:	6d9b      	ldr	r3, [r3, #88]	; 0x58
 8001848:	2220      	movs	r2, #32
 800184a:	431a      	orrs	r2, r3
 800184c:	687b      	ldr	r3, [r7, #4]
 800184e:	659a      	str	r2, [r3, #88]	; 0x58
      
      /* Set ADC error code to ADC IP internal error */
      SET_BIT(hadc->ErrorCode, HAL_ADC_ERROR_INTERNAL);
 8001850:	687b      	ldr	r3, [r7, #4]
 8001852:	6ddb      	ldr	r3, [r3, #92]	; 0x5c
 8001854:	2201      	movs	r2, #1
 8001856:	431a      	orrs	r2, r3
 8001858:	687b      	ldr	r3, [r7, #4]
 800185a:	65da      	str	r2, [r3, #92]	; 0x5c
    }
  }
  
  if (hadc->Init.OversamplingMode == ENABLE)
 800185c:	687b      	ldr	r3, [r7, #4]
 800185e:	6c1b      	ldr	r3, [r3, #64]	; 0x40
 8001860:	2b01      	cmp	r3, #1
 8001862:	d11f      	bne.n	80018a4 <HAL_ADC_Init+0x264>
    /* Configuration of Oversampler:                                          */
    /*  - Oversampling Ratio                                                  */
    /*  - Right bit shift                                                     */
    /*  - Triggered mode                                                      */
    
    hadc->Instance->CFGR2 &= ~( ADC_CFGR2_OVSR |
 8001864:	687b      	ldr	r3, [r7, #4]
 8001866:	681b      	ldr	r3, [r3, #0]
 8001868:	687a      	ldr	r2, [r7, #4]
 800186a:	6812      	ldr	r2, [r2, #0]
 800186c:	6912      	ldr	r2, [r2, #16]
 800186e:	492a      	ldr	r1, [pc, #168]	; (8001918 <HAL_ADC_Init+0x2d8>)
 8001870:	400a      	ands	r2, r1
 8001872:	611a      	str	r2, [r3, #16]
                                ADC_CFGR2_OVSS |
                                ADC_CFGR2_TOVS );
    
    hadc->Instance->CFGR2 |= ( hadc->Init.Oversample.Ratio         |
 8001874:	687b      	ldr	r3, [r7, #4]
 8001876:	681b      	ldr	r3, [r3, #0]
 8001878:	687a      	ldr	r2, [r7, #4]
 800187a:	6812      	ldr	r2, [r2, #0]
 800187c:	6911      	ldr	r1, [r2, #16]
 800187e:	687a      	ldr	r2, [r7, #4]
 8001880:	6c50      	ldr	r0, [r2, #68]	; 0x44
                               hadc->Init.Oversample.RightBitShift             |
 8001882:	687a      	ldr	r2, [r7, #4]
 8001884:	6c92      	ldr	r2, [r2, #72]	; 0x48
    hadc->Instance->CFGR2 |= ( hadc->Init.Oversample.Ratio         |
 8001886:	4310      	orrs	r0, r2
                               hadc->Init.Oversample.TriggeredMode );
 8001888:	687a      	ldr	r2, [r7, #4]
 800188a:	6cd2      	ldr	r2, [r2, #76]	; 0x4c
                               hadc->Init.Oversample.RightBitShift             |
 800188c:	4302      	orrs	r2, r0
    hadc->Instance->CFGR2 |= ( hadc->Init.Oversample.Ratio         |
 800188e:	430a      	orrs	r2, r1
 8001890:	611a      	str	r2, [r3, #16]
    
    /* Enable OverSampling mode */
     hadc->Instance->CFGR2 |= ADC_CFGR2_OVSE;
 8001892:	687b      	ldr	r3, [r7, #4]
 8001894:	681b      	ldr	r3, [r3, #0]
 8001896:	687a      	ldr	r2, [r7, #4]
 8001898:	6812      	ldr	r2, [r2, #0]
 800189a:	6912      	ldr	r2, [r2, #16]
 800189c:	2101      	movs	r1, #1
 800189e:	430a      	orrs	r2, r1
 80018a0:	611a      	str	r2, [r3, #16]
 80018a2:	e00d      	b.n	80018c0 <HAL_ADC_Init+0x280>
  }
  else
  {
    if(HAL_IS_BIT_SET(hadc->Instance->CFGR2, ADC_CFGR2_OVSE))
 80018a4:	687b      	ldr	r3, [r7, #4]
 80018a6:	681b      	ldr	r3, [r3, #0]
 80018a8:	691b      	ldr	r3, [r3, #16]
 80018aa:	2201      	movs	r2, #1
 80018ac:	4013      	ands	r3, r2
 80018ae:	d007      	beq.n	80018c0 <HAL_ADC_Init+0x280>
    {
      /* Disable OverSampling mode if needed */
      hadc->Instance->CFGR2 &= ~ADC_CFGR2_OVSE;
 80018b0:	687b      	ldr	r3, [r7, #4]
 80018b2:	681b      	ldr	r3, [r3, #0]
 80018b4:	687a      	ldr	r2, [r7, #4]
 80018b6:	6812      	ldr	r2, [r2, #0]
 80018b8:	6912      	ldr	r2, [r2, #16]
 80018ba:	2101      	movs	r1, #1
 80018bc:	438a      	bics	r2, r1
 80018be:	611a      	str	r2, [r3, #16]
    }
  }    
  
  /* Clear the old sampling time */
  hadc->Instance->SMPR &= (uint32_t)(~ADC_SMPR_SMPR);
 80018c0:	687b      	ldr	r3, [r7, #4]
 80018c2:	681b      	ldr	r3, [r3, #0]
 80018c4:	687a      	ldr	r2, [r7, #4]
 80018c6:	6812      	ldr	r2, [r2, #0]
 80018c8:	6952      	ldr	r2, [r2, #20]
 80018ca:	2107      	movs	r1, #7
 80018cc:	438a      	bics	r2, r1
 80018ce:	615a      	str	r2, [r3, #20]
  
  /* Set the new sample time */
  hadc->Instance->SMPR |= hadc->Init.SamplingTime;
 80018d0:	687b      	ldr	r3, [r7, #4]
 80018d2:	681b      	ldr	r3, [r3, #0]
 80018d4:	687a      	ldr	r2, [r7, #4]
 80018d6:	6812      	ldr	r2, [r2, #0]
 80018d8:	6951      	ldr	r1, [r2, #20]
 80018da:	687a      	ldr	r2, [r7, #4]
 80018dc:	6bd2      	ldr	r2, [r2, #60]	; 0x3c
 80018de:	430a      	orrs	r2, r1
 80018e0:	615a      	str	r2, [r3, #20]
  
  /* Clear ADC error code */
  ADC_CLEAR_ERRORCODE(hadc);
 80018e2:	687b      	ldr	r3, [r7, #4]
 80018e4:	2200      	movs	r2, #0
 80018e6:	65da      	str	r2, [r3, #92]	; 0x5c

  /* Set the ADC state */
  ADC_STATE_CLR_SET(hadc->State,
 80018e8:	687b      	ldr	r3, [r7, #4]
 80018ea:	6d9b      	ldr	r3, [r3, #88]	; 0x58
 80018ec:	2203      	movs	r2, #3
 80018ee:	4393      	bics	r3, r2
 80018f0:	2201      	movs	r2, #1
 80018f2:	431a      	orrs	r2, r3
 80018f4:	687b      	ldr	r3, [r7, #4]
 80018f6:	659a      	str	r2, [r3, #88]	; 0x58
                    HAL_ADC_STATE_BUSY_INTERNAL,
                    HAL_ADC_STATE_READY);


  /* Return function status */
  return HAL_OK;
 80018f8:	2300      	movs	r3, #0
}
 80018fa:	0018      	movs	r0, r3
 80018fc:	46bd      	mov	sp, r7
 80018fe:	b002      	add	sp, #8
 8001900:	bd80      	pop	{r7, pc}
 8001902:	46c0      	nop			; (mov r8, r8)
 8001904:	fffffefd 	.word	0xfffffefd
 8001908:	40012708 	.word	0x40012708
 800190c:	ffc3ffff 	.word	0xffc3ffff
 8001910:	fdffffff 	.word	0xfdffffff
 8001914:	fffe0219 	.word	0xfffe0219
 8001918:	fffffc03 	.word	0xfffffc03

0800191c <HAL_ADC_MspInit>:
  * @brief  Initialize the ADC MSP.
  * @param  hadc: ADC handle
  * @retval None
  */
__weak void HAL_ADC_MspInit(ADC_HandleTypeDef* hadc)
{
 800191c:	b580      	push	{r7, lr}
 800191e:	b082      	sub	sp, #8
 8001920:	af00      	add	r7, sp, #0
 8001922:	6078      	str	r0, [r7, #4]
  UNUSED(hadc);

  /* NOTE : This function should not be modified. When the callback is needed,
            function HAL_ADC_MspInit must be implemented in the user file.
   */ 
}
 8001924:	46c0      	nop			; (mov r8, r8)
 8001926:	46bd      	mov	sp, r7
 8001928:	b002      	add	sp, #8
 800192a:	bd80      	pop	{r7, pc}

0800192c <HAL_ADC_Start_DMA>:
  * @param  pData: Destination Buffer address.
  * @param  Length: Length of data to be transferred from ADC peripheral to memory (in bytes)
  * @retval HAL status.
  */
HAL_StatusTypeDef HAL_ADC_Start_DMA(ADC_HandleTypeDef* hadc, uint32_t* pData, uint32_t Length)
{
 800192c:	b590      	push	{r4, r7, lr}
 800192e:	b087      	sub	sp, #28
 8001930:	af00      	add	r7, sp, #0
 8001932:	60f8      	str	r0, [r7, #12]
 8001934:	60b9      	str	r1, [r7, #8]
 8001936:	607a      	str	r2, [r7, #4]
  HAL_StatusTypeDef tmp_hal_status = HAL_OK;
 8001938:	2317      	movs	r3, #23
 800193a:	18fb      	adds	r3, r7, r3
 800193c:	2200      	movs	r2, #0
 800193e:	701a      	strb	r2, [r3, #0]
  
  /* Check the parameters */
  assert_param(IS_ADC_ALL_INSTANCE(hadc->Instance));
  
  /* Perform ADC enable and conversion start if no conversion is on going */
  if (ADC_IS_CONVERSION_ONGOING_REGULAR(hadc) == RESET)
 8001940:	68fb      	ldr	r3, [r7, #12]
 8001942:	681b      	ldr	r3, [r3, #0]
 8001944:	689b      	ldr	r3, [r3, #8]
 8001946:	2204      	movs	r2, #4
 8001948:	4013      	ands	r3, r2
 800194a:	d15e      	bne.n	8001a0a <HAL_ADC_Start_DMA+0xde>
  {
    /* Process locked */
    __HAL_LOCK(hadc);
 800194c:	68fb      	ldr	r3, [r7, #12]
 800194e:	2254      	movs	r2, #84	; 0x54
 8001950:	5c9b      	ldrb	r3, [r3, r2]
 8001952:	2b01      	cmp	r3, #1
 8001954:	d101      	bne.n	800195a <HAL_ADC_Start_DMA+0x2e>
 8001956:	2302      	movs	r3, #2
 8001958:	e05e      	b.n	8001a18 <HAL_ADC_Start_DMA+0xec>
 800195a:	68fb      	ldr	r3, [r7, #12]
 800195c:	2254      	movs	r2, #84	; 0x54
 800195e:	2101      	movs	r1, #1
 8001960:	5499      	strb	r1, [r3, r2]

    /* Enable the ADC peripheral */
    /* If low power mode AutoPowerOff is enabled, power-on/off phases are       */
    /* performed automatically by hardware.                                     */
    if (hadc->Init.LowPowerAutoPowerOff != ENABLE)
 8001962:	68fb      	ldr	r3, [r7, #12]
 8001964:	69db      	ldr	r3, [r3, #28]
 8001966:	2b01      	cmp	r3, #1
 8001968:	d007      	beq.n	800197a <HAL_ADC_Start_DMA+0x4e>
    {
      tmp_hal_status = ADC_Enable(hadc);
 800196a:	2317      	movs	r3, #23
 800196c:	18fc      	adds	r4, r7, r3
 800196e:	68fb      	ldr	r3, [r7, #12]
 8001970:	0018      	movs	r0, r3
 8001972:	f000 f96b 	bl	8001c4c <ADC_Enable>
 8001976:	0003      	movs	r3, r0
 8001978:	7023      	strb	r3, [r4, #0]
    }
    
    /* Start conversion if ADC is effectively enabled */
    if (tmp_hal_status == HAL_OK)
 800197a:	2317      	movs	r3, #23
 800197c:	18fb      	adds	r3, r7, r3
 800197e:	781b      	ldrb	r3, [r3, #0]
 8001980:	2b00      	cmp	r3, #0
 8001982:	d146      	bne.n	8001a12 <HAL_ADC_Start_DMA+0xe6>
    {
      /* Set ADC state                                                        */
      /* - Clear state bitfield related to regular group conversion results   */
      /* - Set state bitfield related to regular operation                    */
      ADC_STATE_CLR_SET(hadc->State,
 8001984:	68fb      	ldr	r3, [r7, #12]
 8001986:	6d9b      	ldr	r3, [r3, #88]	; 0x58
 8001988:	4a25      	ldr	r2, [pc, #148]	; (8001a20 <HAL_ADC_Start_DMA+0xf4>)
 800198a:	4013      	ands	r3, r2
 800198c:	2280      	movs	r2, #128	; 0x80
 800198e:	0052      	lsls	r2, r2, #1
 8001990:	431a      	orrs	r2, r3
 8001992:	68fb      	ldr	r3, [r7, #12]
 8001994:	659a      	str	r2, [r3, #88]	; 0x58
                        HAL_ADC_STATE_READY | HAL_ADC_STATE_REG_EOC | HAL_ADC_STATE_REG_OVR | HAL_ADC_STATE_REG_EOSMP,
                        HAL_ADC_STATE_REG_BUSY);
      
      /* Reset ADC all error code fields */
      ADC_CLEAR_ERRORCODE(hadc);
 8001996:	68fb      	ldr	r3, [r7, #12]
 8001998:	2200      	movs	r2, #0
 800199a:	65da      	str	r2, [r3, #92]	; 0x5c
      
      /* Process unlocked */
      /* Unlock before starting ADC conversions: in case of potential         */
      /* interruption, to let the process to ADC IRQ Handler.                 */
      __HAL_UNLOCK(hadc);
 800199c:	68fb      	ldr	r3, [r7, #12]
 800199e:	2254      	movs	r2, #84	; 0x54
 80019a0:	2100      	movs	r1, #0
 80019a2:	5499      	strb	r1, [r3, r2]

      /* Set the DMA transfer complete callback */
      hadc->DMA_Handle->XferCpltCallback = ADC_DMAConvCplt;
 80019a4:	68fb      	ldr	r3, [r7, #12]
 80019a6:	6d1b      	ldr	r3, [r3, #80]	; 0x50
 80019a8:	4a1e      	ldr	r2, [pc, #120]	; (8001a24 <HAL_ADC_Start_DMA+0xf8>)
 80019aa:	62da      	str	r2, [r3, #44]	; 0x2c
      
      /* Set the DMA half transfer complete callback */
      hadc->DMA_Handle->XferHalfCpltCallback = ADC_DMAHalfConvCplt;
 80019ac:	68fb      	ldr	r3, [r7, #12]
 80019ae:	6d1b      	ldr	r3, [r3, #80]	; 0x50
 80019b0:	4a1d      	ldr	r2, [pc, #116]	; (8001a28 <HAL_ADC_Start_DMA+0xfc>)
 80019b2:	631a      	str	r2, [r3, #48]	; 0x30
      
      /* Set the DMA error callback */
      hadc->DMA_Handle->XferErrorCallback = ADC_DMAError;
 80019b4:	68fb      	ldr	r3, [r7, #12]
 80019b6:	6d1b      	ldr	r3, [r3, #80]	; 0x50
 80019b8:	4a1c      	ldr	r2, [pc, #112]	; (8001a2c <HAL_ADC_Start_DMA+0x100>)
 80019ba:	635a      	str	r2, [r3, #52]	; 0x34
      /* start (in case of SW start):                                         */
      
      /* Clear regular group conversion flag and overrun flag */
      /* (To ensure of no unknown state from potential previous ADC           */
      /* operations)                                                          */
      __HAL_ADC_CLEAR_FLAG(hadc, (ADC_FLAG_EOC | ADC_FLAG_EOS | ADC_FLAG_OVR));
 80019bc:	68fb      	ldr	r3, [r7, #12]
 80019be:	681b      	ldr	r3, [r3, #0]
 80019c0:	221c      	movs	r2, #28
 80019c2:	601a      	str	r2, [r3, #0]
      
      /* Enable ADC overrun interrupt */
      __HAL_ADC_ENABLE_IT(hadc, ADC_IT_OVR);
 80019c4:	68fb      	ldr	r3, [r7, #12]
 80019c6:	681b      	ldr	r3, [r3, #0]
 80019c8:	68fa      	ldr	r2, [r7, #12]
 80019ca:	6812      	ldr	r2, [r2, #0]
 80019cc:	6852      	ldr	r2, [r2, #4]
 80019ce:	2110      	movs	r1, #16
 80019d0:	430a      	orrs	r2, r1
 80019d2:	605a      	str	r2, [r3, #4]
      
      /* Enable ADC DMA mode */
      hadc->Instance->CFGR1 |= ADC_CFGR1_DMAEN;
 80019d4:	68fb      	ldr	r3, [r7, #12]
 80019d6:	681b      	ldr	r3, [r3, #0]
 80019d8:	68fa      	ldr	r2, [r7, #12]
 80019da:	6812      	ldr	r2, [r2, #0]
 80019dc:	68d2      	ldr	r2, [r2, #12]
 80019de:	2101      	movs	r1, #1
 80019e0:	430a      	orrs	r2, r1
 80019e2:	60da      	str	r2, [r3, #12]
      
      /* Start the DMA channel */
      HAL_DMA_Start_IT(hadc->DMA_Handle, (uint32_t)&hadc->Instance->DR, (uint32_t)pData, Length);
 80019e4:	68fb      	ldr	r3, [r7, #12]
 80019e6:	6d18      	ldr	r0, [r3, #80]	; 0x50
 80019e8:	68fb      	ldr	r3, [r7, #12]
 80019ea:	681b      	ldr	r3, [r3, #0]
 80019ec:	3340      	adds	r3, #64	; 0x40
 80019ee:	0019      	movs	r1, r3
 80019f0:	68ba      	ldr	r2, [r7, #8]
 80019f2:	687b      	ldr	r3, [r7, #4]
 80019f4:	f000 fcbe 	bl	8002374 <HAL_DMA_Start_IT>
      
      /* Enable conversion of regular group.                                  */
      /* If software start has been selected, conversion starts immediately.  */
      /* If external trigger has been selected, conversion will start at next */
      /* trigger event.                                                       */
      hadc->Instance->CR |= ADC_CR_ADSTART;
 80019f8:	68fb      	ldr	r3, [r7, #12]
 80019fa:	681b      	ldr	r3, [r3, #0]
 80019fc:	68fa      	ldr	r2, [r7, #12]
 80019fe:	6812      	ldr	r2, [r2, #0]
 8001a00:	6892      	ldr	r2, [r2, #8]
 8001a02:	2104      	movs	r1, #4
 8001a04:	430a      	orrs	r2, r1
 8001a06:	609a      	str	r2, [r3, #8]
 8001a08:	e003      	b.n	8001a12 <HAL_ADC_Start_DMA+0xe6>
    }
  }
  else
  {
    tmp_hal_status = HAL_BUSY;
 8001a0a:	2317      	movs	r3, #23
 8001a0c:	18fb      	adds	r3, r7, r3
 8001a0e:	2202      	movs	r2, #2
 8001a10:	701a      	strb	r2, [r3, #0]
  }
  
  /* Return function status */
  return tmp_hal_status;
 8001a12:	2317      	movs	r3, #23
 8001a14:	18fb      	adds	r3, r7, r3
 8001a16:	781b      	ldrb	r3, [r3, #0]
}
 8001a18:	0018      	movs	r0, r3
 8001a1a:	46bd      	mov	sp, r7
 8001a1c:	b007      	add	sp, #28
 8001a1e:	bd90      	pop	{r4, r7, pc}
 8001a20:	fffff0fe 	.word	0xfffff0fe
 8001a24:	08001e55 	.word	0x08001e55
 8001a28:	08001f09 	.word	0x08001f09
 8001a2c:	08001f27 	.word	0x08001f27

08001a30 <HAL_ADC_Stop_DMA>:
  *         Each of these interruptions has its dedicated callback function.
  * @param  hadc: ADC handle
  * @retval HAL status.
  */
HAL_StatusTypeDef HAL_ADC_Stop_DMA(ADC_HandleTypeDef* hadc)
{
 8001a30:	b590      	push	{r4, r7, lr}
 8001a32:	b085      	sub	sp, #20
 8001a34:	af00      	add	r7, sp, #0
 8001a36:	6078      	str	r0, [r7, #4]
  HAL_StatusTypeDef tmp_hal_status = HAL_OK;
 8001a38:	230f      	movs	r3, #15
 8001a3a:	18fb      	adds	r3, r7, r3
 8001a3c:	2200      	movs	r2, #0
 8001a3e:	701a      	strb	r2, [r3, #0]
  
  /* Check the parameters */
  assert_param(IS_ADC_ALL_INSTANCE(hadc->Instance));
  
  /* Process locked */
  __HAL_LOCK(hadc);
 8001a40:	687b      	ldr	r3, [r7, #4]
 8001a42:	2254      	movs	r2, #84	; 0x54
 8001a44:	5c9b      	ldrb	r3, [r3, r2]
 8001a46:	2b01      	cmp	r3, #1
 8001a48:	d101      	bne.n	8001a4e <HAL_ADC_Stop_DMA+0x1e>
 8001a4a:	2302      	movs	r3, #2
 8001a4c:	e05a      	b.n	8001b04 <HAL_ADC_Stop_DMA+0xd4>
 8001a4e:	687b      	ldr	r3, [r7, #4]
 8001a50:	2254      	movs	r2, #84	; 0x54
 8001a52:	2101      	movs	r1, #1
 8001a54:	5499      	strb	r1, [r3, r2]
  
  /* 1. Stop potential ADC group regular conversion on going */
  tmp_hal_status = ADC_ConversionStop(hadc);
 8001a56:	230f      	movs	r3, #15
 8001a58:	18fc      	adds	r4, r7, r3
 8001a5a:	687b      	ldr	r3, [r7, #4]
 8001a5c:	0018      	movs	r0, r3
 8001a5e:	f000 f9b4 	bl	8001dca <ADC_ConversionStop>
 8001a62:	0003      	movs	r3, r0
 8001a64:	7023      	strb	r3, [r4, #0]
  
  /* Disable ADC peripheral if conversions are effectively stopped */
  if (tmp_hal_status == HAL_OK)
 8001a66:	230f      	movs	r3, #15
 8001a68:	18fb      	adds	r3, r7, r3
 8001a6a:	781b      	ldrb	r3, [r3, #0]
 8001a6c:	2b00      	cmp	r3, #0
 8001a6e:	d142      	bne.n	8001af6 <HAL_ADC_Stop_DMA+0xc6>
  {
    /* Disable ADC DMA (ADC DMA configuration ADC_CFGR_DMACFG is kept) */
    CLEAR_BIT(hadc->Instance->CFGR1, ADC_CFGR1_DMAEN);
 8001a70:	687b      	ldr	r3, [r7, #4]
 8001a72:	681b      	ldr	r3, [r3, #0]
 8001a74:	687a      	ldr	r2, [r7, #4]
 8001a76:	6812      	ldr	r2, [r2, #0]
 8001a78:	68d2      	ldr	r2, [r2, #12]
 8001a7a:	2101      	movs	r1, #1
 8001a7c:	438a      	bics	r2, r1
 8001a7e:	60da      	str	r2, [r3, #12]
    
    /* Disable the DMA channel (in case of DMA in circular mode or stop       */
    /* while DMA transfer is on going)                                        */
    tmp_hal_status = HAL_DMA_Abort(hadc->DMA_Handle);
 8001a80:	687b      	ldr	r3, [r7, #4]
 8001a82:	6d1b      	ldr	r3, [r3, #80]	; 0x50
 8001a84:	220f      	movs	r2, #15
 8001a86:	18bc      	adds	r4, r7, r2
 8001a88:	0018      	movs	r0, r3
 8001a8a:	f000 fcbc 	bl	8002406 <HAL_DMA_Abort>
 8001a8e:	0003      	movs	r3, r0
 8001a90:	7023      	strb	r3, [r4, #0]
    
    /* Check if DMA channel effectively disabled */
    if (tmp_hal_status != HAL_OK)
 8001a92:	230f      	movs	r3, #15
 8001a94:	18fb      	adds	r3, r7, r3
 8001a96:	781b      	ldrb	r3, [r3, #0]
 8001a98:	2b00      	cmp	r3, #0
 8001a9a:	d005      	beq.n	8001aa8 <HAL_ADC_Stop_DMA+0x78>
    {
      /* Update ADC state machine to error */
      SET_BIT(hadc->State, HAL_ADC_STATE_ERROR_DMA);
 8001a9c:	687b      	ldr	r3, [r7, #4]
 8001a9e:	6d9b      	ldr	r3, [r3, #88]	; 0x58
 8001aa0:	2240      	movs	r2, #64	; 0x40
 8001aa2:	431a      	orrs	r2, r3
 8001aa4:	687b      	ldr	r3, [r7, #4]
 8001aa6:	659a      	str	r2, [r3, #88]	; 0x58
    }
    
    /* Disable ADC overrun interrupt */
    __HAL_ADC_DISABLE_IT(hadc, ADC_IT_OVR);
 8001aa8:	687b      	ldr	r3, [r7, #4]
 8001aaa:	681b      	ldr	r3, [r3, #0]
 8001aac:	687a      	ldr	r2, [r7, #4]
 8001aae:	6812      	ldr	r2, [r2, #0]
 8001ab0:	6852      	ldr	r2, [r2, #4]
 8001ab2:	2110      	movs	r1, #16
 8001ab4:	438a      	bics	r2, r1
 8001ab6:	605a      	str	r2, [r3, #4]
    
    /* 2. Disable the ADC peripheral */
    /* Update "tmp_hal_status" only if DMA channel disabling passed, to keep  */
    /* in memory a potential failing status.                                  */
    if (tmp_hal_status == HAL_OK)
 8001ab8:	230f      	movs	r3, #15
 8001aba:	18fb      	adds	r3, r7, r3
 8001abc:	781b      	ldrb	r3, [r3, #0]
 8001abe:	2b00      	cmp	r3, #0
 8001ac0:	d108      	bne.n	8001ad4 <HAL_ADC_Stop_DMA+0xa4>
    {
      tmp_hal_status = ADC_Disable(hadc);
 8001ac2:	230f      	movs	r3, #15
 8001ac4:	18fc      	adds	r4, r7, r3
 8001ac6:	687b      	ldr	r3, [r7, #4]
 8001ac8:	0018      	movs	r0, r3
 8001aca:	f000 f91f 	bl	8001d0c <ADC_Disable>
 8001ace:	0003      	movs	r3, r0
 8001ad0:	7023      	strb	r3, [r4, #0]
 8001ad2:	e003      	b.n	8001adc <HAL_ADC_Stop_DMA+0xac>
    }
    else
    {
      ADC_Disable(hadc);
 8001ad4:	687b      	ldr	r3, [r7, #4]
 8001ad6:	0018      	movs	r0, r3
 8001ad8:	f000 f918 	bl	8001d0c <ADC_Disable>
    }

    /* Check if ADC is effectively disabled */
    if (tmp_hal_status == HAL_OK)
 8001adc:	230f      	movs	r3, #15
 8001ade:	18fb      	adds	r3, r7, r3
 8001ae0:	781b      	ldrb	r3, [r3, #0]
 8001ae2:	2b00      	cmp	r3, #0
 8001ae4:	d107      	bne.n	8001af6 <HAL_ADC_Stop_DMA+0xc6>
    {
      /* Set ADC state */
      ADC_STATE_CLR_SET(hadc->State,
 8001ae6:	687b      	ldr	r3, [r7, #4]
 8001ae8:	6d9b      	ldr	r3, [r3, #88]	; 0x58
 8001aea:	4a08      	ldr	r2, [pc, #32]	; (8001b0c <HAL_ADC_Stop_DMA+0xdc>)
 8001aec:	4013      	ands	r3, r2
 8001aee:	2201      	movs	r2, #1
 8001af0:	431a      	orrs	r2, r3
 8001af2:	687b      	ldr	r3, [r7, #4]
 8001af4:	659a      	str	r2, [r3, #88]	; 0x58
    }
    
  }
  
  /* Process unlocked */
  __HAL_UNLOCK(hadc);
 8001af6:	687b      	ldr	r3, [r7, #4]
 8001af8:	2254      	movs	r2, #84	; 0x54
 8001afa:	2100      	movs	r1, #0
 8001afc:	5499      	strb	r1, [r3, r2]
  
  /* Return function status */
  return tmp_hal_status;
 8001afe:	230f      	movs	r3, #15
 8001b00:	18fb      	adds	r3, r7, r3
 8001b02:	781b      	ldrb	r3, [r3, #0]
}
 8001b04:	0018      	movs	r0, r3
 8001b06:	46bd      	mov	sp, r7
 8001b08:	b005      	add	sp, #20
 8001b0a:	bd90      	pop	{r4, r7, pc}
 8001b0c:	fffffefe 	.word	0xfffffefe

08001b10 <HAL_ADC_ConvCpltCallback>:
  * @brief  Conversion complete callback in non-blocking mode.
  * @param  hadc: ADC handle
  * @retval None
  */
__weak void HAL_ADC_ConvCpltCallback(ADC_HandleTypeDef* hadc)
{
 8001b10:	b580      	push	{r7, lr}
 8001b12:	b082      	sub	sp, #8
 8001b14:	af00      	add	r7, sp, #0
 8001b16:	6078      	str	r0, [r7, #4]
  UNUSED(hadc);

  /* NOTE : This function should not be modified. When the callback is needed,
            function HAL_ADC_ConvCpltCallback must be implemented in the user file.
   */
}
 8001b18:	46c0      	nop			; (mov r8, r8)
 8001b1a:	46bd      	mov	sp, r7
 8001b1c:	b002      	add	sp, #8
 8001b1e:	bd80      	pop	{r7, pc}

08001b20 <HAL_ADC_ConvHalfCpltCallback>:
  * @brief  Conversion DMA half-transfer callback in non-blocking mode.
  * @param  hadc: ADC handle
  * @retval None
  */
__weak void HAL_ADC_ConvHalfCpltCallback(ADC_HandleTypeDef* hadc)
{
 8001b20:	b580      	push	{r7, lr}
 8001b22:	b082      	sub	sp, #8
 8001b24:	af00      	add	r7, sp, #0
 8001b26:	6078      	str	r0, [r7, #4]
  UNUSED(hadc);

  /* NOTE : This function should not be modified. When the callback is needed,
            function HAL_ADC_ConvHalfCpltCallback must be implemented in the user file.
  */
}
 8001b28:	46c0      	nop			; (mov r8, r8)
 8001b2a:	46bd      	mov	sp, r7
 8001b2c:	b002      	add	sp, #8
 8001b2e:	bd80      	pop	{r7, pc}

08001b30 <HAL_ADC_ErrorCallback>:
  *           (this function is also clearing overrun flag)
  * @param  hadc: ADC handle
  * @retval None
  */
__weak void HAL_ADC_ErrorCallback(ADC_HandleTypeDef *hadc)
{
 8001b30:	b580      	push	{r7, lr}
 8001b32:	b082      	sub	sp, #8
 8001b34:	af00      	add	r7, sp, #0
 8001b36:	6078      	str	r0, [r7, #4]
  UNUSED(hadc);

  /* NOTE : This function should not be modified. When the callback is needed,
            function HAL_ADC_ErrorCallback must be implemented in the user file.
  */
}
 8001b38:	46c0      	nop			; (mov r8, r8)
 8001b3a:	46bd      	mov	sp, r7
 8001b3c:	b002      	add	sp, #8
 8001b3e:	bd80      	pop	{r7, pc}

08001b40 <HAL_ADC_ConfigChannel>:
  * @param  hadc: ADC handle
  * @param  sConfig: Structure of ADC channel assigned to ADC group regular.
  * @retval HAL status
  */
HAL_StatusTypeDef HAL_ADC_ConfigChannel(ADC_HandleTypeDef* hadc, ADC_ChannelConfTypeDef* sConfig)
{
 8001b40:	b580      	push	{r7, lr}
 8001b42:	b082      	sub	sp, #8
 8001b44:	af00      	add	r7, sp, #0
 8001b46:	6078      	str	r0, [r7, #4]
 8001b48:	6039      	str	r1, [r7, #0]
  assert_param(IS_ADC_ALL_INSTANCE(hadc->Instance));
  assert_param(IS_ADC_CHANNEL(sConfig->Channel));
  assert_param(IS_ADC_RANK(sConfig->Rank));
  
  /* Process locked */
  __HAL_LOCK(hadc);
 8001b4a:	687b      	ldr	r3, [r7, #4]
 8001b4c:	2254      	movs	r2, #84	; 0x54
 8001b4e:	5c9b      	ldrb	r3, [r3, r2]
 8001b50:	2b01      	cmp	r3, #1
 8001b52:	d101      	bne.n	8001b58 <HAL_ADC_ConfigChannel+0x18>
 8001b54:	2302      	movs	r3, #2
 8001b56:	e06c      	b.n	8001c32 <HAL_ADC_ConfigChannel+0xf2>
 8001b58:	687b      	ldr	r3, [r7, #4]
 8001b5a:	2254      	movs	r2, #84	; 0x54
 8001b5c:	2101      	movs	r1, #1
 8001b5e:	5499      	strb	r1, [r3, r2]
  /* Parameters update conditioned to ADC state:                              */
  /* Parameters that can be updated when ADC is disabled or enabled without   */
  /* conversion on going on regular group:                                    */
  /*  - Channel number                                                        */
  /*  - Management of internal measurement channels: Vbat/VrefInt/TempSensor  */
  if (ADC_IS_CONVERSION_ONGOING_REGULAR(hadc) != RESET)
 8001b60:	687b      	ldr	r3, [r7, #4]
 8001b62:	681b      	ldr	r3, [r3, #0]
 8001b64:	689b      	ldr	r3, [r3, #8]
 8001b66:	2204      	movs	r2, #4
 8001b68:	4013      	ands	r3, r2
 8001b6a:	d00b      	beq.n	8001b84 <HAL_ADC_ConfigChannel+0x44>
  {
    /* Update ADC state machine to error */
    SET_BIT(hadc->State, HAL_ADC_STATE_ERROR_CONFIG);
 8001b6c:	687b      	ldr	r3, [r7, #4]
 8001b6e:	6d9b      	ldr	r3, [r3, #88]	; 0x58
 8001b70:	2220      	movs	r2, #32
 8001b72:	431a      	orrs	r2, r3
 8001b74:	687b      	ldr	r3, [r7, #4]
 8001b76:	659a      	str	r2, [r3, #88]	; 0x58
    /* Process unlocked */
    __HAL_UNLOCK(hadc);
 8001b78:	687b      	ldr	r3, [r7, #4]
 8001b7a:	2254      	movs	r2, #84	; 0x54
 8001b7c:	2100      	movs	r1, #0
 8001b7e:	5499      	strb	r1, [r3, r2]
    return HAL_ERROR;
 8001b80:	2301      	movs	r3, #1
 8001b82:	e056      	b.n	8001c32 <HAL_ADC_ConfigChannel+0xf2>
  }
  
  if (sConfig->Rank != ADC_RANK_NONE)
 8001b84:	683b      	ldr	r3, [r7, #0]
 8001b86:	685b      	ldr	r3, [r3, #4]
 8001b88:	4a2c      	ldr	r2, [pc, #176]	; (8001c3c <HAL_ADC_ConfigChannel+0xfc>)
 8001b8a:	4293      	cmp	r3, r2
 8001b8c:	d028      	beq.n	8001be0 <HAL_ADC_ConfigChannel+0xa0>
  {
    /* Enable selected channels */
    hadc->Instance->CHSELR |= (uint32_t)(sConfig->Channel & ADC_CHANNEL_MASK);
 8001b8e:	687b      	ldr	r3, [r7, #4]
 8001b90:	681b      	ldr	r3, [r3, #0]
 8001b92:	687a      	ldr	r2, [r7, #4]
 8001b94:	6812      	ldr	r2, [r2, #0]
 8001b96:	6a91      	ldr	r1, [r2, #40]	; 0x28
 8001b98:	683a      	ldr	r2, [r7, #0]
 8001b9a:	6812      	ldr	r2, [r2, #0]
 8001b9c:	0352      	lsls	r2, r2, #13
 8001b9e:	0b52      	lsrs	r2, r2, #13
 8001ba0:	430a      	orrs	r2, r1
 8001ba2:	629a      	str	r2, [r3, #40]	; 0x28
    /* internal measurement paths enable: If internal channel selected, enable  */
    /* dedicated internal buffers and path.                                     */
    
    /* If Temperature sensor channel is selected, then enable the internal      */
    /* buffers and path  */
    if (((sConfig->Channel & ADC_CHANNEL_MASK) & ADC_CHANNEL_TEMPSENSOR ) == (ADC_CHANNEL_TEMPSENSOR & ADC_CHANNEL_MASK))
 8001ba4:	683b      	ldr	r3, [r7, #0]
 8001ba6:	681a      	ldr	r2, [r3, #0]
 8001ba8:	2380      	movs	r3, #128	; 0x80
 8001baa:	02db      	lsls	r3, r3, #11
 8001bac:	4013      	ands	r3, r2
 8001bae:	d009      	beq.n	8001bc4 <HAL_ADC_ConfigChannel+0x84>
    {
      ADC->CCR |= ADC_CCR_TSEN;   
 8001bb0:	4b23      	ldr	r3, [pc, #140]	; (8001c40 <HAL_ADC_ConfigChannel+0x100>)
 8001bb2:	4a23      	ldr	r2, [pc, #140]	; (8001c40 <HAL_ADC_ConfigChannel+0x100>)
 8001bb4:	6812      	ldr	r2, [r2, #0]
 8001bb6:	2180      	movs	r1, #128	; 0x80
 8001bb8:	0409      	lsls	r1, r1, #16
 8001bba:	430a      	orrs	r2, r1
 8001bbc:	601a      	str	r2, [r3, #0]
      
      /* Delay for temperature sensor stabilization time */
      ADC_DelayMicroSecond(ADC_TEMPSENSOR_DELAY_US);
 8001bbe:	200a      	movs	r0, #10
 8001bc0:	f000 f9cc 	bl	8001f5c <ADC_DelayMicroSecond>
    }
    
    /* If VRefInt channel is selected, then enable the internal buffers and path   */
    if (((sConfig->Channel & ADC_CHANNEL_MASK) & ADC_CHANNEL_VREFINT) == (ADC_CHANNEL_VREFINT & ADC_CHANNEL_MASK))
 8001bc4:	683b      	ldr	r3, [r7, #0]
 8001bc6:	681a      	ldr	r2, [r3, #0]
 8001bc8:	2380      	movs	r3, #128	; 0x80
 8001bca:	029b      	lsls	r3, r3, #10
 8001bcc:	4013      	ands	r3, r2
 8001bce:	d02b      	beq.n	8001c28 <HAL_ADC_ConfigChannel+0xe8>
    {
      ADC->CCR |= ADC_CCR_VREFEN;   
 8001bd0:	4b1b      	ldr	r3, [pc, #108]	; (8001c40 <HAL_ADC_ConfigChannel+0x100>)
 8001bd2:	4a1b      	ldr	r2, [pc, #108]	; (8001c40 <HAL_ADC_ConfigChannel+0x100>)
 8001bd4:	6812      	ldr	r2, [r2, #0]
 8001bd6:	2180      	movs	r1, #128	; 0x80
 8001bd8:	03c9      	lsls	r1, r1, #15
 8001bda:	430a      	orrs	r2, r1
 8001bdc:	601a      	str	r2, [r3, #0]
 8001bde:	e023      	b.n	8001c28 <HAL_ADC_ConfigChannel+0xe8>
  }
  else
  {
    /* Regular sequence configuration */
    /* Reset the channel selection register from the selected channel */
    hadc->Instance->CHSELR &= ~((uint32_t)(sConfig->Channel & ADC_CHANNEL_MASK));
 8001be0:	687b      	ldr	r3, [r7, #4]
 8001be2:	681b      	ldr	r3, [r3, #0]
 8001be4:	687a      	ldr	r2, [r7, #4]
 8001be6:	6812      	ldr	r2, [r2, #0]
 8001be8:	6a91      	ldr	r1, [r2, #40]	; 0x28
 8001bea:	683a      	ldr	r2, [r7, #0]
 8001bec:	6812      	ldr	r2, [r2, #0]
 8001bee:	0352      	lsls	r2, r2, #13
 8001bf0:	0b52      	lsrs	r2, r2, #13
 8001bf2:	43d2      	mvns	r2, r2
 8001bf4:	400a      	ands	r2, r1
 8001bf6:	629a      	str	r2, [r3, #40]	; 0x28
    
    /* Management of internal measurement channels: VrefInt/TempSensor/Vbat */
    /* internal measurement paths disable: If internal channel selected,    */
    /* disable dedicated internal buffers and path.                         */
    if (((sConfig->Channel & ADC_CHANNEL_MASK) & ADC_CHANNEL_TEMPSENSOR ) == (ADC_CHANNEL_TEMPSENSOR & ADC_CHANNEL_MASK))
 8001bf8:	683b      	ldr	r3, [r7, #0]
 8001bfa:	681a      	ldr	r2, [r3, #0]
 8001bfc:	2380      	movs	r3, #128	; 0x80
 8001bfe:	02db      	lsls	r3, r3, #11
 8001c00:	4013      	ands	r3, r2
 8001c02:	d005      	beq.n	8001c10 <HAL_ADC_ConfigChannel+0xd0>
    {
      ADC->CCR &= ~ADC_CCR_TSEN;   
 8001c04:	4b0e      	ldr	r3, [pc, #56]	; (8001c40 <HAL_ADC_ConfigChannel+0x100>)
 8001c06:	4a0e      	ldr	r2, [pc, #56]	; (8001c40 <HAL_ADC_ConfigChannel+0x100>)
 8001c08:	6812      	ldr	r2, [r2, #0]
 8001c0a:	490e      	ldr	r1, [pc, #56]	; (8001c44 <HAL_ADC_ConfigChannel+0x104>)
 8001c0c:	400a      	ands	r2, r1
 8001c0e:	601a      	str	r2, [r3, #0]
    }
    
    /* If VRefInt channel is selected, then enable the internal buffers and path   */
    if (((sConfig->Channel & ADC_CHANNEL_MASK) & ADC_CHANNEL_VREFINT) == (ADC_CHANNEL_VREFINT & ADC_CHANNEL_MASK))
 8001c10:	683b      	ldr	r3, [r7, #0]
 8001c12:	681a      	ldr	r2, [r3, #0]
 8001c14:	2380      	movs	r3, #128	; 0x80
 8001c16:	029b      	lsls	r3, r3, #10
 8001c18:	4013      	ands	r3, r2
 8001c1a:	d005      	beq.n	8001c28 <HAL_ADC_ConfigChannel+0xe8>
    {
      ADC->CCR &= ~ADC_CCR_VREFEN;   
 8001c1c:	4b08      	ldr	r3, [pc, #32]	; (8001c40 <HAL_ADC_ConfigChannel+0x100>)
 8001c1e:	4a08      	ldr	r2, [pc, #32]	; (8001c40 <HAL_ADC_ConfigChannel+0x100>)
 8001c20:	6812      	ldr	r2, [r2, #0]
 8001c22:	4909      	ldr	r1, [pc, #36]	; (8001c48 <HAL_ADC_ConfigChannel+0x108>)
 8001c24:	400a      	ands	r2, r1
 8001c26:	601a      	str	r2, [r3, #0]
    }
#endif
  }
  
  /* Process unlocked */
  __HAL_UNLOCK(hadc);
 8001c28:	687b      	ldr	r3, [r7, #4]
 8001c2a:	2254      	movs	r2, #84	; 0x54
 8001c2c:	2100      	movs	r1, #0
 8001c2e:	5499      	strb	r1, [r3, r2]
  
  /* Return function status */
  return HAL_OK;
 8001c30:	2300      	movs	r3, #0
}
 8001c32:	0018      	movs	r0, r3
 8001c34:	46bd      	mov	sp, r7
 8001c36:	b002      	add	sp, #8
 8001c38:	bd80      	pop	{r7, pc}
 8001c3a:	46c0      	nop			; (mov r8, r8)
 8001c3c:	00001001 	.word	0x00001001
 8001c40:	40012708 	.word	0x40012708
 8001c44:	ff7fffff 	.word	0xff7fffff
 8001c48:	ffbfffff 	.word	0xffbfffff

08001c4c <ADC_Enable>:
  *         "if (hadc->Init.LowPowerAutoPowerOff != ENABLE)".
  * @param  hadc: ADC handle
  * @retval HAL status.
  */
static HAL_StatusTypeDef ADC_Enable(ADC_HandleTypeDef* hadc)
{
 8001c4c:	b580      	push	{r7, lr}
 8001c4e:	b084      	sub	sp, #16
 8001c50:	af00      	add	r7, sp, #0
 8001c52:	6078      	str	r0, [r7, #4]
  uint32_t tickstart = 0U;
 8001c54:	2300      	movs	r3, #0
 8001c56:	60fb      	str	r3, [r7, #12]

  /* ADC enable and wait for ADC ready (in case of ADC is disabled or         */
  /* enabling phase not yet completed: flag ADC ready not yet set).           */
  /* Timeout implemented to not be stuck if ADC cannot be enabled (possible   */
  /* causes: ADC clock not running, ...).                                     */
  if (ADC_IS_ENABLE(hadc) == RESET)
 8001c58:	687b      	ldr	r3, [r7, #4]
 8001c5a:	681b      	ldr	r3, [r3, #0]
 8001c5c:	689b      	ldr	r3, [r3, #8]
 8001c5e:	2203      	movs	r2, #3
 8001c60:	4013      	ands	r3, r2
 8001c62:	2b01      	cmp	r3, #1
 8001c64:	d108      	bne.n	8001c78 <ADC_Enable+0x2c>
 8001c66:	687b      	ldr	r3, [r7, #4]
 8001c68:	681b      	ldr	r3, [r3, #0]
 8001c6a:	681b      	ldr	r3, [r3, #0]
 8001c6c:	2201      	movs	r2, #1
 8001c6e:	4013      	ands	r3, r2
 8001c70:	2b01      	cmp	r3, #1
 8001c72:	d101      	bne.n	8001c78 <ADC_Enable+0x2c>
 8001c74:	2301      	movs	r3, #1
 8001c76:	e000      	b.n	8001c7a <ADC_Enable+0x2e>
 8001c78:	2300      	movs	r3, #0
 8001c7a:	2b00      	cmp	r3, #0
 8001c7c:	d13f      	bne.n	8001cfe <ADC_Enable+0xb2>
  {
    /* Check if conditions to enable the ADC are fulfilled */
    if (ADC_ENABLING_CONDITIONS(hadc) == RESET)
 8001c7e:	687b      	ldr	r3, [r7, #4]
 8001c80:	681b      	ldr	r3, [r3, #0]
 8001c82:	689b      	ldr	r3, [r3, #8]
 8001c84:	4a20      	ldr	r2, [pc, #128]	; (8001d08 <ADC_Enable+0xbc>)
 8001c86:	4013      	ands	r3, r2
 8001c88:	d00d      	beq.n	8001ca6 <ADC_Enable+0x5a>
    {
      /* Update ADC state machine to error */
      SET_BIT(hadc->State, HAL_ADC_STATE_ERROR_INTERNAL);
 8001c8a:	687b      	ldr	r3, [r7, #4]
 8001c8c:	6d9b      	ldr	r3, [r3, #88]	; 0x58
 8001c8e:	2210      	movs	r2, #16
 8001c90:	431a      	orrs	r2, r3
 8001c92:	687b      	ldr	r3, [r7, #4]
 8001c94:	659a      	str	r2, [r3, #88]	; 0x58
      
      /* Set ADC error code to ADC IP internal error */
      SET_BIT(hadc->ErrorCode, HAL_ADC_ERROR_INTERNAL);
 8001c96:	687b      	ldr	r3, [r7, #4]
 8001c98:	6ddb      	ldr	r3, [r3, #92]	; 0x5c
 8001c9a:	2201      	movs	r2, #1
 8001c9c:	431a      	orrs	r2, r3
 8001c9e:	687b      	ldr	r3, [r7, #4]
 8001ca0:	65da      	str	r2, [r3, #92]	; 0x5c
      
      return HAL_ERROR;
 8001ca2:	2301      	movs	r3, #1
 8001ca4:	e02c      	b.n	8001d00 <ADC_Enable+0xb4>
    }
    
    /* Enable the ADC peripheral */
    __HAL_ADC_ENABLE(hadc);
 8001ca6:	687b      	ldr	r3, [r7, #4]
 8001ca8:	681b      	ldr	r3, [r3, #0]
 8001caa:	687a      	ldr	r2, [r7, #4]
 8001cac:	6812      	ldr	r2, [r2, #0]
 8001cae:	6892      	ldr	r2, [r2, #8]
 8001cb0:	2101      	movs	r1, #1
 8001cb2:	430a      	orrs	r2, r1
 8001cb4:	609a      	str	r2, [r3, #8]
    
    /* Delay for ADC stabilization time. */
    ADC_DelayMicroSecond(ADC_STAB_DELAY_US);
 8001cb6:	2001      	movs	r0, #1
 8001cb8:	f000 f950 	bl	8001f5c <ADC_DelayMicroSecond>

    /* Get tick count */
    tickstart = HAL_GetTick();
 8001cbc:	f7ff fc9e 	bl	80015fc <HAL_GetTick>
 8001cc0:	0003      	movs	r3, r0
 8001cc2:	60fb      	str	r3, [r7, #12]
    
    /* Wait for ADC effectively enabled */
    while(__HAL_ADC_GET_FLAG(hadc, ADC_FLAG_RDY) == RESET)
 8001cc4:	e014      	b.n	8001cf0 <ADC_Enable+0xa4>
    {
      if((HAL_GetTick() - tickstart) > ADC_ENABLE_TIMEOUT)
 8001cc6:	f7ff fc99 	bl	80015fc <HAL_GetTick>
 8001cca:	0002      	movs	r2, r0
 8001ccc:	68fb      	ldr	r3, [r7, #12]
 8001cce:	1ad3      	subs	r3, r2, r3
 8001cd0:	2b0a      	cmp	r3, #10
 8001cd2:	d90d      	bls.n	8001cf0 <ADC_Enable+0xa4>
      {
        /* Update ADC state machine to error */
        SET_BIT(hadc->State, HAL_ADC_STATE_ERROR_INTERNAL);
 8001cd4:	687b      	ldr	r3, [r7, #4]
 8001cd6:	6d9b      	ldr	r3, [r3, #88]	; 0x58
 8001cd8:	2210      	movs	r2, #16
 8001cda:	431a      	orrs	r2, r3
 8001cdc:	687b      	ldr	r3, [r7, #4]
 8001cde:	659a      	str	r2, [r3, #88]	; 0x58
        
        /* Set ADC error code to ADC IP internal error */
        SET_BIT(hadc->ErrorCode, HAL_ADC_ERROR_INTERNAL);
 8001ce0:	687b      	ldr	r3, [r7, #4]
 8001ce2:	6ddb      	ldr	r3, [r3, #92]	; 0x5c
 8001ce4:	2201      	movs	r2, #1
 8001ce6:	431a      	orrs	r2, r3
 8001ce8:	687b      	ldr	r3, [r7, #4]
 8001cea:	65da      	str	r2, [r3, #92]	; 0x5c
        
        return HAL_ERROR;
 8001cec:	2301      	movs	r3, #1
 8001cee:	e007      	b.n	8001d00 <ADC_Enable+0xb4>
    while(__HAL_ADC_GET_FLAG(hadc, ADC_FLAG_RDY) == RESET)
 8001cf0:	687b      	ldr	r3, [r7, #4]
 8001cf2:	681b      	ldr	r3, [r3, #0]
 8001cf4:	681b      	ldr	r3, [r3, #0]
 8001cf6:	2201      	movs	r2, #1
 8001cf8:	4013      	ands	r3, r2
 8001cfa:	2b01      	cmp	r3, #1
 8001cfc:	d1e3      	bne.n	8001cc6 <ADC_Enable+0x7a>
      }
    }
  }
   
  /* Return HAL status */
  return HAL_OK;
 8001cfe:	2300      	movs	r3, #0
}
 8001d00:	0018      	movs	r0, r3
 8001d02:	46bd      	mov	sp, r7
 8001d04:	b004      	add	sp, #16
 8001d06:	bd80      	pop	{r7, pc}
 8001d08:	80000017 	.word	0x80000017

08001d0c <ADC_Disable>:
  *         stopped.
  * @param  hadc: ADC handle
  * @retval HAL status.
  */
static HAL_StatusTypeDef ADC_Disable(ADC_HandleTypeDef* hadc)
{
 8001d0c:	b580      	push	{r7, lr}
 8001d0e:	b084      	sub	sp, #16
 8001d10:	af00      	add	r7, sp, #0
 8001d12:	6078      	str	r0, [r7, #4]
  uint32_t tickstart = 0U;
 8001d14:	2300      	movs	r3, #0
 8001d16:	60fb      	str	r3, [r7, #12]
  
  /* Verification if ADC is not already disabled:                             */
  /* Note: forbidden to disable ADC (set bit ADC_CR_ADDIS) if ADC is already  */
  /*       disabled.                                                          */
  if (ADC_IS_ENABLE(hadc) != RESET)
 8001d18:	687b      	ldr	r3, [r7, #4]
 8001d1a:	681b      	ldr	r3, [r3, #0]
 8001d1c:	689b      	ldr	r3, [r3, #8]
 8001d1e:	2203      	movs	r2, #3
 8001d20:	4013      	ands	r3, r2
 8001d22:	2b01      	cmp	r3, #1
 8001d24:	d108      	bne.n	8001d38 <ADC_Disable+0x2c>
 8001d26:	687b      	ldr	r3, [r7, #4]
 8001d28:	681b      	ldr	r3, [r3, #0]
 8001d2a:	681b      	ldr	r3, [r3, #0]
 8001d2c:	2201      	movs	r2, #1
 8001d2e:	4013      	ands	r3, r2
 8001d30:	2b01      	cmp	r3, #1
 8001d32:	d101      	bne.n	8001d38 <ADC_Disable+0x2c>
 8001d34:	2301      	movs	r3, #1
 8001d36:	e000      	b.n	8001d3a <ADC_Disable+0x2e>
 8001d38:	2300      	movs	r3, #0
 8001d3a:	2b00      	cmp	r3, #0
 8001d3c:	d040      	beq.n	8001dc0 <ADC_Disable+0xb4>
  {
    /* Check if conditions to disable the ADC are fulfilled */
    if (ADC_DISABLING_CONDITIONS(hadc) != RESET)
 8001d3e:	687b      	ldr	r3, [r7, #4]
 8001d40:	681b      	ldr	r3, [r3, #0]
 8001d42:	689b      	ldr	r3, [r3, #8]
 8001d44:	2205      	movs	r2, #5
 8001d46:	4013      	ands	r3, r2
 8001d48:	2b01      	cmp	r3, #1
 8001d4a:	d110      	bne.n	8001d6e <ADC_Disable+0x62>
    {
      /* Disable the ADC peripheral */
      __HAL_ADC_DISABLE(hadc);
 8001d4c:	687b      	ldr	r3, [r7, #4]
 8001d4e:	681b      	ldr	r3, [r3, #0]
 8001d50:	687a      	ldr	r2, [r7, #4]
 8001d52:	6812      	ldr	r2, [r2, #0]
 8001d54:	6892      	ldr	r2, [r2, #8]
 8001d56:	2102      	movs	r1, #2
 8001d58:	430a      	orrs	r2, r1
 8001d5a:	609a      	str	r2, [r3, #8]
 8001d5c:	687b      	ldr	r3, [r7, #4]
 8001d5e:	681b      	ldr	r3, [r3, #0]
 8001d60:	2203      	movs	r2, #3
 8001d62:	601a      	str	r2, [r3, #0]
      return HAL_ERROR;
    }
     
    /* Wait for ADC effectively disabled */
    /* Get tick count */
    tickstart = HAL_GetTick();
 8001d64:	f7ff fc4a 	bl	80015fc <HAL_GetTick>
 8001d68:	0003      	movs	r3, r0
 8001d6a:	60fb      	str	r3, [r7, #12]
    
    while(HAL_IS_BIT_SET(hadc->Instance->CR, ADC_CR_ADEN))
 8001d6c:	e022      	b.n	8001db4 <ADC_Disable+0xa8>
      SET_BIT(hadc->State, HAL_ADC_STATE_ERROR_INTERNAL);
 8001d6e:	687b      	ldr	r3, [r7, #4]
 8001d70:	6d9b      	ldr	r3, [r3, #88]	; 0x58
 8001d72:	2210      	movs	r2, #16
 8001d74:	431a      	orrs	r2, r3
 8001d76:	687b      	ldr	r3, [r7, #4]
 8001d78:	659a      	str	r2, [r3, #88]	; 0x58
      SET_BIT(hadc->ErrorCode, HAL_ADC_ERROR_INTERNAL);
 8001d7a:	687b      	ldr	r3, [r7, #4]
 8001d7c:	6ddb      	ldr	r3, [r3, #92]	; 0x5c
 8001d7e:	2201      	movs	r2, #1
 8001d80:	431a      	orrs	r2, r3
 8001d82:	687b      	ldr	r3, [r7, #4]
 8001d84:	65da      	str	r2, [r3, #92]	; 0x5c
      return HAL_ERROR;
 8001d86:	2301      	movs	r3, #1
 8001d88:	e01b      	b.n	8001dc2 <ADC_Disable+0xb6>
    {
      if((HAL_GetTick() - tickstart) > ADC_DISABLE_TIMEOUT)
 8001d8a:	f7ff fc37 	bl	80015fc <HAL_GetTick>
 8001d8e:	0002      	movs	r2, r0
 8001d90:	68fb      	ldr	r3, [r7, #12]
 8001d92:	1ad3      	subs	r3, r2, r3
 8001d94:	2b0a      	cmp	r3, #10
 8001d96:	d90d      	bls.n	8001db4 <ADC_Disable+0xa8>
      {
        /* Update ADC state machine to error */
        SET_BIT(hadc->State, HAL_ADC_STATE_ERROR_INTERNAL);
 8001d98:	687b      	ldr	r3, [r7, #4]
 8001d9a:	6d9b      	ldr	r3, [r3, #88]	; 0x58
 8001d9c:	2210      	movs	r2, #16
 8001d9e:	431a      	orrs	r2, r3
 8001da0:	687b      	ldr	r3, [r7, #4]
 8001da2:	659a      	str	r2, [r3, #88]	; 0x58
        
        /* Set ADC error code to ADC IP internal error */
        SET_BIT(hadc->ErrorCode, HAL_ADC_ERROR_INTERNAL);
 8001da4:	687b      	ldr	r3, [r7, #4]
 8001da6:	6ddb      	ldr	r3, [r3, #92]	; 0x5c
 8001da8:	2201      	movs	r2, #1
 8001daa:	431a      	orrs	r2, r3
 8001dac:	687b      	ldr	r3, [r7, #4]
 8001dae:	65da      	str	r2, [r3, #92]	; 0x5c
        
        return HAL_ERROR;
 8001db0:	2301      	movs	r3, #1
 8001db2:	e006      	b.n	8001dc2 <ADC_Disable+0xb6>
    while(HAL_IS_BIT_SET(hadc->Instance->CR, ADC_CR_ADEN))
 8001db4:	687b      	ldr	r3, [r7, #4]
 8001db6:	681b      	ldr	r3, [r3, #0]
 8001db8:	689b      	ldr	r3, [r3, #8]
 8001dba:	2201      	movs	r2, #1
 8001dbc:	4013      	ands	r3, r2
 8001dbe:	d1e4      	bne.n	8001d8a <ADC_Disable+0x7e>
      }
    }
  }
  
  /* Return HAL status */
  return HAL_OK;
 8001dc0:	2300      	movs	r3, #0
}
 8001dc2:	0018      	movs	r0, r3
 8001dc4:	46bd      	mov	sp, r7
 8001dc6:	b004      	add	sp, #16
 8001dc8:	bd80      	pop	{r7, pc}

08001dca <ADC_ConversionStop>:
  *         stopped to disable the ADC.
  * @param  hadc: ADC handle
  * @retval HAL status.
  */
static HAL_StatusTypeDef ADC_ConversionStop(ADC_HandleTypeDef* hadc)
{
 8001dca:	b580      	push	{r7, lr}
 8001dcc:	b084      	sub	sp, #16
 8001dce:	af00      	add	r7, sp, #0
 8001dd0:	6078      	str	r0, [r7, #4]
  uint32_t tickstart = 0U;
 8001dd2:	2300      	movs	r3, #0
 8001dd4:	60fb      	str	r3, [r7, #12]
  /* Check the parameters */
  assert_param(IS_ADC_ALL_INSTANCE(hadc->Instance));
    
  /* Verification if ADC is not already stopped on regular group to bypass    */
  /* this function if not needed.                                             */
  if (ADC_IS_CONVERSION_ONGOING_REGULAR(hadc))
 8001dd6:	687b      	ldr	r3, [r7, #4]
 8001dd8:	681b      	ldr	r3, [r3, #0]
 8001dda:	689b      	ldr	r3, [r3, #8]
 8001ddc:	2204      	movs	r2, #4
 8001dde:	4013      	ands	r3, r2
 8001de0:	d033      	beq.n	8001e4a <ADC_ConversionStop+0x80>
  {
    
    /* Stop potential conversion on going on regular group */
    /* Software is allowed to set ADSTP only when ADSTART=1 and ADDIS=0 */
    if (HAL_IS_BIT_SET(hadc->Instance->CR, ADC_CR_ADSTART) && 
 8001de2:	687b      	ldr	r3, [r7, #4]
 8001de4:	681b      	ldr	r3, [r3, #0]
 8001de6:	689b      	ldr	r3, [r3, #8]
 8001de8:	2204      	movs	r2, #4
 8001dea:	4013      	ands	r3, r2
 8001dec:	d00d      	beq.n	8001e0a <ADC_ConversionStop+0x40>
        HAL_IS_BIT_CLR(hadc->Instance->CR, ADC_CR_ADDIS)                  )
 8001dee:	687b      	ldr	r3, [r7, #4]
 8001df0:	681b      	ldr	r3, [r3, #0]
 8001df2:	689b      	ldr	r3, [r3, #8]
 8001df4:	2202      	movs	r2, #2
 8001df6:	4013      	ands	r3, r2
    if (HAL_IS_BIT_SET(hadc->Instance->CR, ADC_CR_ADSTART) && 
 8001df8:	d107      	bne.n	8001e0a <ADC_ConversionStop+0x40>
    {
      /* Stop conversions on regular group */
      hadc->Instance->CR |= ADC_CR_ADSTP;
 8001dfa:	687b      	ldr	r3, [r7, #4]
 8001dfc:	681b      	ldr	r3, [r3, #0]
 8001dfe:	687a      	ldr	r2, [r7, #4]
 8001e00:	6812      	ldr	r2, [r2, #0]
 8001e02:	6892      	ldr	r2, [r2, #8]
 8001e04:	2110      	movs	r1, #16
 8001e06:	430a      	orrs	r2, r1
 8001e08:	609a      	str	r2, [r3, #8]
    }
    
    /* Wait for conversion effectively stopped */
    /* Get tick count */
    tickstart = HAL_GetTick();
 8001e0a:	f7ff fbf7 	bl	80015fc <HAL_GetTick>
 8001e0e:	0003      	movs	r3, r0
 8001e10:	60fb      	str	r3, [r7, #12]
      
    while((hadc->Instance->CR & ADC_CR_ADSTART) != RESET)
 8001e12:	e014      	b.n	8001e3e <ADC_ConversionStop+0x74>
    {
      if((HAL_GetTick() - tickstart) > ADC_STOP_CONVERSION_TIMEOUT)
 8001e14:	f7ff fbf2 	bl	80015fc <HAL_GetTick>
 8001e18:	0002      	movs	r2, r0
 8001e1a:	68fb      	ldr	r3, [r7, #12]
 8001e1c:	1ad3      	subs	r3, r2, r3
 8001e1e:	2b0a      	cmp	r3, #10
 8001e20:	d90d      	bls.n	8001e3e <ADC_ConversionStop+0x74>
      {
        /* Update ADC state machine to error */
        SET_BIT(hadc->State, HAL_ADC_STATE_ERROR_INTERNAL);
 8001e22:	687b      	ldr	r3, [r7, #4]
 8001e24:	6d9b      	ldr	r3, [r3, #88]	; 0x58
 8001e26:	2210      	movs	r2, #16
 8001e28:	431a      	orrs	r2, r3
 8001e2a:	687b      	ldr	r3, [r7, #4]
 8001e2c:	659a      	str	r2, [r3, #88]	; 0x58
      
        /* Set ADC error code to ADC IP internal error */
        SET_BIT(hadc->ErrorCode, HAL_ADC_ERROR_INTERNAL);
 8001e2e:	687b      	ldr	r3, [r7, #4]
 8001e30:	6ddb      	ldr	r3, [r3, #92]	; 0x5c
 8001e32:	2201      	movs	r2, #1
 8001e34:	431a      	orrs	r2, r3
 8001e36:	687b      	ldr	r3, [r7, #4]
 8001e38:	65da      	str	r2, [r3, #92]	; 0x5c
        
        return HAL_ERROR;
 8001e3a:	2301      	movs	r3, #1
 8001e3c:	e006      	b.n	8001e4c <ADC_ConversionStop+0x82>
    while((hadc->Instance->CR & ADC_CR_ADSTART) != RESET)
 8001e3e:	687b      	ldr	r3, [r7, #4]
 8001e40:	681b      	ldr	r3, [r3, #0]
 8001e42:	689b      	ldr	r3, [r3, #8]
 8001e44:	2204      	movs	r2, #4
 8001e46:	4013      	ands	r3, r2
 8001e48:	d1e4      	bne.n	8001e14 <ADC_ConversionStop+0x4a>
    }
    
  }
   
  /* Return HAL status */
  return HAL_OK;
 8001e4a:	2300      	movs	r3, #0
}
 8001e4c:	0018      	movs	r0, r3
 8001e4e:	46bd      	mov	sp, r7
 8001e50:	b004      	add	sp, #16
 8001e52:	bd80      	pop	{r7, pc}

08001e54 <ADC_DMAConvCplt>:
  * @brief  DMA transfer complete callback. 
  * @param  hdma: pointer to DMA handle.
  * @retval None
  */
static void ADC_DMAConvCplt(DMA_HandleTypeDef *hdma)
{
 8001e54:	b580      	push	{r7, lr}
 8001e56:	b084      	sub	sp, #16
 8001e58:	af00      	add	r7, sp, #0
 8001e5a:	6078      	str	r0, [r7, #4]
  /* Retrieve ADC handle corresponding to current DMA handle */
  ADC_HandleTypeDef* hadc = ( ADC_HandleTypeDef* )((DMA_HandleTypeDef* )hdma)->Parent;
 8001e5c:	687b      	ldr	r3, [r7, #4]
 8001e5e:	6a9b      	ldr	r3, [r3, #40]	; 0x28
 8001e60:	60fb      	str	r3, [r7, #12]
  
  /* Update state machine on conversion status if not in error state */
  if (HAL_IS_BIT_CLR(hadc->State, HAL_ADC_STATE_ERROR_INTERNAL | HAL_ADC_STATE_ERROR_DMA))
 8001e62:	68fb      	ldr	r3, [r7, #12]
 8001e64:	6d9b      	ldr	r3, [r3, #88]	; 0x58
 8001e66:	2250      	movs	r2, #80	; 0x50
 8001e68:	4013      	ands	r3, r2
 8001e6a:	d140      	bne.n	8001eee <ADC_DMAConvCplt+0x9a>
  {
    /* Set ADC state */
    SET_BIT(hadc->State, HAL_ADC_STATE_REG_EOC);
 8001e6c:	68fb      	ldr	r3, [r7, #12]
 8001e6e:	6d9b      	ldr	r3, [r3, #88]	; 0x58
 8001e70:	2280      	movs	r2, #128	; 0x80
 8001e72:	0092      	lsls	r2, r2, #2
 8001e74:	431a      	orrs	r2, r3
 8001e76:	68fb      	ldr	r3, [r7, #12]
 8001e78:	659a      	str	r2, [r3, #88]	; 0x58
    
    /* Determine whether any further conversion upcoming on group regular     */
    /* by external trigger, continuous mode or scan sequence on going.        */
    if(ADC_IS_SOFTWARE_START_REGULAR(hadc)        && 
 8001e7a:	68fb      	ldr	r3, [r7, #12]
 8001e7c:	681b      	ldr	r3, [r3, #0]
 8001e7e:	68da      	ldr	r2, [r3, #12]
 8001e80:	23c0      	movs	r3, #192	; 0xc0
 8001e82:	011b      	lsls	r3, r3, #4
 8001e84:	4013      	ands	r3, r2
 8001e86:	d12d      	bne.n	8001ee4 <ADC_DMAConvCplt+0x90>
       (hadc->Init.ContinuousConvMode == DISABLE)   )
 8001e88:	68fb      	ldr	r3, [r7, #12]
 8001e8a:	6a1b      	ldr	r3, [r3, #32]
    if(ADC_IS_SOFTWARE_START_REGULAR(hadc)        && 
 8001e8c:	2b00      	cmp	r3, #0
 8001e8e:	d129      	bne.n	8001ee4 <ADC_DMAConvCplt+0x90>
    {
      /* If End of Sequence is reached, disable interrupts */
      if( __HAL_ADC_GET_FLAG(hadc, ADC_FLAG_EOS) )
 8001e90:	68fb      	ldr	r3, [r7, #12]
 8001e92:	681b      	ldr	r3, [r3, #0]
 8001e94:	681b      	ldr	r3, [r3, #0]
 8001e96:	2208      	movs	r2, #8
 8001e98:	4013      	ands	r3, r2
 8001e9a:	2b08      	cmp	r3, #8
 8001e9c:	d122      	bne.n	8001ee4 <ADC_DMAConvCplt+0x90>
      {
        /* Allowed to modify bits ADC_IT_EOC/ADC_IT_EOS only if bit           */
        /* ADSTART==0 (no conversion on going)                                */
        if (ADC_IS_CONVERSION_ONGOING_REGULAR(hadc) == RESET)
 8001e9e:	68fb      	ldr	r3, [r7, #12]
 8001ea0:	681b      	ldr	r3, [r3, #0]
 8001ea2:	689b      	ldr	r3, [r3, #8]
 8001ea4:	2204      	movs	r2, #4
 8001ea6:	4013      	ands	r3, r2
 8001ea8:	d110      	bne.n	8001ecc <ADC_DMAConvCplt+0x78>
        {
          /* Disable ADC end of single conversion interrupt on group regular */
          /* Note: Overrun interrupt was enabled with EOC interrupt in        */
          /* HAL_Start_IT(), but is not disabled here because can be used     */
          /* by overrun IRQ process below.                                    */
          __HAL_ADC_DISABLE_IT(hadc, ADC_IT_EOC | ADC_IT_EOS);
 8001eaa:	68fb      	ldr	r3, [r7, #12]
 8001eac:	681b      	ldr	r3, [r3, #0]
 8001eae:	68fa      	ldr	r2, [r7, #12]
 8001eb0:	6812      	ldr	r2, [r2, #0]
 8001eb2:	6852      	ldr	r2, [r2, #4]
 8001eb4:	210c      	movs	r1, #12
 8001eb6:	438a      	bics	r2, r1
 8001eb8:	605a      	str	r2, [r3, #4]
          
          /* Set ADC state */
          ADC_STATE_CLR_SET(hadc->State,
 8001eba:	68fb      	ldr	r3, [r7, #12]
 8001ebc:	6d9b      	ldr	r3, [r3, #88]	; 0x58
 8001ebe:	4a11      	ldr	r2, [pc, #68]	; (8001f04 <ADC_DMAConvCplt+0xb0>)
 8001ec0:	4013      	ands	r3, r2
 8001ec2:	2201      	movs	r2, #1
 8001ec4:	431a      	orrs	r2, r3
 8001ec6:	68fb      	ldr	r3, [r7, #12]
 8001ec8:	659a      	str	r2, [r3, #88]	; 0x58
 8001eca:	e00b      	b.n	8001ee4 <ADC_DMAConvCplt+0x90>
                            HAL_ADC_STATE_READY);
        }
        else
        {
          /* Change ADC state to error state */
          SET_BIT(hadc->State, HAL_ADC_STATE_ERROR_CONFIG);
 8001ecc:	68fb      	ldr	r3, [r7, #12]
 8001ece:	6d9b      	ldr	r3, [r3, #88]	; 0x58
 8001ed0:	2220      	movs	r2, #32
 8001ed2:	431a      	orrs	r2, r3
 8001ed4:	68fb      	ldr	r3, [r7, #12]
 8001ed6:	659a      	str	r2, [r3, #88]	; 0x58
          
          /* Set ADC error code to ADC IP internal error */
          SET_BIT(hadc->ErrorCode, HAL_ADC_ERROR_INTERNAL);
 8001ed8:	68fb      	ldr	r3, [r7, #12]
 8001eda:	6ddb      	ldr	r3, [r3, #92]	; 0x5c
 8001edc:	2201      	movs	r2, #1
 8001ede:	431a      	orrs	r2, r3
 8001ee0:	68fb      	ldr	r3, [r7, #12]
 8001ee2:	65da      	str	r2, [r3, #92]	; 0x5c
        }
      }
    }

    /* Conversion complete callback */
    HAL_ADC_ConvCpltCallback(hadc);
 8001ee4:	68fb      	ldr	r3, [r7, #12]
 8001ee6:	0018      	movs	r0, r3
 8001ee8:	f7ff fe12 	bl	8001b10 <HAL_ADC_ConvCpltCallback>
  else
  {
    /* Call DMA error callback */
    hadc->DMA_Handle->XferErrorCallback(hdma);
  }
}
 8001eec:	e005      	b.n	8001efa <ADC_DMAConvCplt+0xa6>
    hadc->DMA_Handle->XferErrorCallback(hdma);
 8001eee:	68fb      	ldr	r3, [r7, #12]
 8001ef0:	6d1b      	ldr	r3, [r3, #80]	; 0x50
 8001ef2:	6b5b      	ldr	r3, [r3, #52]	; 0x34
 8001ef4:	687a      	ldr	r2, [r7, #4]
 8001ef6:	0010      	movs	r0, r2
 8001ef8:	4798      	blx	r3
}
 8001efa:	46c0      	nop			; (mov r8, r8)
 8001efc:	46bd      	mov	sp, r7
 8001efe:	b004      	add	sp, #16
 8001f00:	bd80      	pop	{r7, pc}
 8001f02:	46c0      	nop			; (mov r8, r8)
 8001f04:	fffffefe 	.word	0xfffffefe

08001f08 <ADC_DMAHalfConvCplt>:
  * @brief  DMA half transfer complete callback. 
  * @param  hdma: pointer to DMA handle.
  * @retval None
  */
static void ADC_DMAHalfConvCplt(DMA_HandleTypeDef *hdma)
{
 8001f08:	b580      	push	{r7, lr}
 8001f0a:	b084      	sub	sp, #16
 8001f0c:	af00      	add	r7, sp, #0
 8001f0e:	6078      	str	r0, [r7, #4]
  /* Retrieve ADC handle corresponding to current DMA handle */
  ADC_HandleTypeDef* hadc = ( ADC_HandleTypeDef* )((DMA_HandleTypeDef* )hdma)->Parent;
 8001f10:	687b      	ldr	r3, [r7, #4]
 8001f12:	6a9b      	ldr	r3, [r3, #40]	; 0x28
 8001f14:	60fb      	str	r3, [r7, #12]
  
  /* Half conversion callback */
  HAL_ADC_ConvHalfCpltCallback(hadc); 
 8001f16:	68fb      	ldr	r3, [r7, #12]
 8001f18:	0018      	movs	r0, r3
 8001f1a:	f7ff fe01 	bl	8001b20 <HAL_ADC_ConvHalfCpltCallback>
}
 8001f1e:	46c0      	nop			; (mov r8, r8)
 8001f20:	46bd      	mov	sp, r7
 8001f22:	b004      	add	sp, #16
 8001f24:	bd80      	pop	{r7, pc}

08001f26 <ADC_DMAError>:
  * @brief  DMA error callback.
  * @param  hdma: pointer to DMA handle.
  * @retval None
  */
static void ADC_DMAError(DMA_HandleTypeDef *hdma)
{
 8001f26:	b580      	push	{r7, lr}
 8001f28:	b084      	sub	sp, #16
 8001f2a:	af00      	add	r7, sp, #0
 8001f2c:	6078      	str	r0, [r7, #4]
  /* Retrieve ADC handle corresponding to current DMA handle */
  ADC_HandleTypeDef* hadc = ( ADC_HandleTypeDef* )((DMA_HandleTypeDef* )hdma)->Parent;
 8001f2e:	687b      	ldr	r3, [r7, #4]
 8001f30:	6a9b      	ldr	r3, [r3, #40]	; 0x28
 8001f32:	60fb      	str	r3, [r7, #12]
  
  /* Set ADC state */
  SET_BIT(hadc->State, HAL_ADC_STATE_ERROR_DMA);
 8001f34:	68fb      	ldr	r3, [r7, #12]
 8001f36:	6d9b      	ldr	r3, [r3, #88]	; 0x58
 8001f38:	2240      	movs	r2, #64	; 0x40
 8001f3a:	431a      	orrs	r2, r3
 8001f3c:	68fb      	ldr	r3, [r7, #12]
 8001f3e:	659a      	str	r2, [r3, #88]	; 0x58
  
  /* Set ADC error code to DMA error */
  SET_BIT(hadc->ErrorCode, HAL_ADC_ERROR_DMA);
 8001f40:	68fb      	ldr	r3, [r7, #12]
 8001f42:	6ddb      	ldr	r3, [r3, #92]	; 0x5c
 8001f44:	2204      	movs	r2, #4
 8001f46:	431a      	orrs	r2, r3
 8001f48:	68fb      	ldr	r3, [r7, #12]
 8001f4a:	65da      	str	r2, [r3, #92]	; 0x5c
  
  /* Error callback */
  HAL_ADC_ErrorCallback(hadc); 
 8001f4c:	68fb      	ldr	r3, [r7, #12]
 8001f4e:	0018      	movs	r0, r3
 8001f50:	f7ff fdee 	bl	8001b30 <HAL_ADC_ErrorCallback>
}
 8001f54:	46c0      	nop			; (mov r8, r8)
 8001f56:	46bd      	mov	sp, r7
 8001f58:	b004      	add	sp, #16
 8001f5a:	bd80      	pop	{r7, pc}

08001f5c <ADC_DelayMicroSecond>:
  * @brief  Delay micro seconds 
  * @param  microSecond : delay
  * @retval None
  */
static void ADC_DelayMicroSecond(uint32_t microSecond)
{
 8001f5c:	b580      	push	{r7, lr}
 8001f5e:	b084      	sub	sp, #16
 8001f60:	af00      	add	r7, sp, #0
 8001f62:	6078      	str	r0, [r7, #4]
  /* Compute number of CPU cycles to wait for */
  __IO uint32_t waitLoopIndex = (microSecond * (SystemCoreClock / 1000000U));
 8001f64:	4b0a      	ldr	r3, [pc, #40]	; (8001f90 <ADC_DelayMicroSecond+0x34>)
 8001f66:	681b      	ldr	r3, [r3, #0]
 8001f68:	490a      	ldr	r1, [pc, #40]	; (8001f94 <ADC_DelayMicroSecond+0x38>)
 8001f6a:	0018      	movs	r0, r3
 8001f6c:	f7fe f8cc 	bl	8000108 <__udivsi3>
 8001f70:	0003      	movs	r3, r0
 8001f72:	001a      	movs	r2, r3
 8001f74:	687b      	ldr	r3, [r7, #4]
 8001f76:	4353      	muls	r3, r2
 8001f78:	60fb      	str	r3, [r7, #12]

  while(waitLoopIndex != 0U)
 8001f7a:	e002      	b.n	8001f82 <ADC_DelayMicroSecond+0x26>
  {
    waitLoopIndex--;
 8001f7c:	68fb      	ldr	r3, [r7, #12]
 8001f7e:	3b01      	subs	r3, #1
 8001f80:	60fb      	str	r3, [r7, #12]
  while(waitLoopIndex != 0U)
 8001f82:	68fb      	ldr	r3, [r7, #12]
 8001f84:	2b00      	cmp	r3, #0
 8001f86:	d1f9      	bne.n	8001f7c <ADC_DelayMicroSecond+0x20>
  } 
}
 8001f88:	46c0      	nop			; (mov r8, r8)
 8001f8a:	46bd      	mov	sp, r7
 8001f8c:	b004      	add	sp, #16
 8001f8e:	bd80      	pop	{r7, pc}
 8001f90:	20000004 	.word	0x20000004
 8001f94:	000f4240 	.word	0x000f4240

08001f98 <NVIC_EnableIRQ>:
  \brief   Enable External Interrupt
  \details Enables a device-specific interrupt in the NVIC interrupt controller.
  \param [in]      IRQn  External interrupt number. Value cannot be negative.
 */
__STATIC_INLINE void NVIC_EnableIRQ(IRQn_Type IRQn)
{
 8001f98:	b580      	push	{r7, lr}
 8001f9a:	b082      	sub	sp, #8
 8001f9c:	af00      	add	r7, sp, #0
 8001f9e:	0002      	movs	r2, r0
 8001fa0:	1dfb      	adds	r3, r7, #7
 8001fa2:	701a      	strb	r2, [r3, #0]
  NVIC->ISER[0U] = (uint32_t)(1UL << (((uint32_t)(int32_t)IRQn) & 0x1FUL));
 8001fa4:	4b06      	ldr	r3, [pc, #24]	; (8001fc0 <NVIC_EnableIRQ+0x28>)
 8001fa6:	1dfa      	adds	r2, r7, #7
 8001fa8:	7812      	ldrb	r2, [r2, #0]
 8001faa:	0011      	movs	r1, r2
 8001fac:	221f      	movs	r2, #31
 8001fae:	400a      	ands	r2, r1
 8001fb0:	2101      	movs	r1, #1
 8001fb2:	4091      	lsls	r1, r2
 8001fb4:	000a      	movs	r2, r1
 8001fb6:	601a      	str	r2, [r3, #0]
}
 8001fb8:	46c0      	nop			; (mov r8, r8)
 8001fba:	46bd      	mov	sp, r7
 8001fbc:	b002      	add	sp, #8
 8001fbe:	bd80      	pop	{r7, pc}
 8001fc0:	e000e100 	.word	0xe000e100

08001fc4 <NVIC_SetPriority>:
  \note    The priority cannot be set for every core interrupt.
  \param [in]      IRQn  Interrupt number.
  \param [in]  priority  Priority to set.
 */
__STATIC_INLINE void NVIC_SetPriority(IRQn_Type IRQn, uint32_t priority)
{
 8001fc4:	b5b0      	push	{r4, r5, r7, lr}
 8001fc6:	b082      	sub	sp, #8
 8001fc8:	af00      	add	r7, sp, #0
 8001fca:	0002      	movs	r2, r0
 8001fcc:	6039      	str	r1, [r7, #0]
 8001fce:	1dfb      	adds	r3, r7, #7
 8001fd0:	701a      	strb	r2, [r3, #0]
  if ((int32_t)(IRQn) < 0)
 8001fd2:	1dfb      	adds	r3, r7, #7
 8001fd4:	781b      	ldrb	r3, [r3, #0]
 8001fd6:	2b7f      	cmp	r3, #127	; 0x7f
 8001fd8:	d932      	bls.n	8002040 <NVIC_SetPriority+0x7c>
  {
    SCB->SHP[_SHP_IDX(IRQn)] = ((uint32_t)(SCB->SHP[_SHP_IDX(IRQn)] & ~(0xFFUL << _BIT_SHIFT(IRQn))) |
 8001fda:	4c2f      	ldr	r4, [pc, #188]	; (8002098 <NVIC_SetPriority+0xd4>)
 8001fdc:	1dfb      	adds	r3, r7, #7
 8001fde:	781b      	ldrb	r3, [r3, #0]
 8001fe0:	001a      	movs	r2, r3
 8001fe2:	230f      	movs	r3, #15
 8001fe4:	4013      	ands	r3, r2
 8001fe6:	3b08      	subs	r3, #8
 8001fe8:	0899      	lsrs	r1, r3, #2
 8001fea:	4a2b      	ldr	r2, [pc, #172]	; (8002098 <NVIC_SetPriority+0xd4>)
 8001fec:	1dfb      	adds	r3, r7, #7
 8001fee:	781b      	ldrb	r3, [r3, #0]
 8001ff0:	0018      	movs	r0, r3
 8001ff2:	230f      	movs	r3, #15
 8001ff4:	4003      	ands	r3, r0
 8001ff6:	3b08      	subs	r3, #8
 8001ff8:	089b      	lsrs	r3, r3, #2
 8001ffa:	3306      	adds	r3, #6
 8001ffc:	009b      	lsls	r3, r3, #2
 8001ffe:	18d3      	adds	r3, r2, r3
 8002000:	3304      	adds	r3, #4
 8002002:	681b      	ldr	r3, [r3, #0]
 8002004:	1dfa      	adds	r2, r7, #7
 8002006:	7812      	ldrb	r2, [r2, #0]
 8002008:	0010      	movs	r0, r2
 800200a:	2203      	movs	r2, #3
 800200c:	4002      	ands	r2, r0
 800200e:	00d2      	lsls	r2, r2, #3
 8002010:	20ff      	movs	r0, #255	; 0xff
 8002012:	4090      	lsls	r0, r2
 8002014:	0002      	movs	r2, r0
 8002016:	43d2      	mvns	r2, r2
 8002018:	401a      	ands	r2, r3
       (((priority << (8U - __NVIC_PRIO_BITS)) & (uint32_t)0xFFUL) << _BIT_SHIFT(IRQn)));
 800201a:	683b      	ldr	r3, [r7, #0]
 800201c:	019b      	lsls	r3, r3, #6
 800201e:	20ff      	movs	r0, #255	; 0xff
 8002020:	4018      	ands	r0, r3
 8002022:	1dfb      	adds	r3, r7, #7
 8002024:	781b      	ldrb	r3, [r3, #0]
 8002026:	001d      	movs	r5, r3
 8002028:	2303      	movs	r3, #3
 800202a:	402b      	ands	r3, r5
 800202c:	00db      	lsls	r3, r3, #3
 800202e:	4098      	lsls	r0, r3
 8002030:	0003      	movs	r3, r0
    SCB->SHP[_SHP_IDX(IRQn)] = ((uint32_t)(SCB->SHP[_SHP_IDX(IRQn)] & ~(0xFFUL << _BIT_SHIFT(IRQn))) |
 8002032:	431a      	orrs	r2, r3
 8002034:	1d8b      	adds	r3, r1, #6
 8002036:	009b      	lsls	r3, r3, #2
 8002038:	18e3      	adds	r3, r4, r3
 800203a:	3304      	adds	r3, #4
 800203c:	601a      	str	r2, [r3, #0]
  else
  {
    NVIC->IP[_IP_IDX(IRQn)]  = ((uint32_t)(NVIC->IP[_IP_IDX(IRQn)]  & ~(0xFFUL << _BIT_SHIFT(IRQn))) |
       (((priority << (8U - __NVIC_PRIO_BITS)) & (uint32_t)0xFFUL) << _BIT_SHIFT(IRQn)));
  }
}
 800203e:	e027      	b.n	8002090 <NVIC_SetPriority+0xcc>
    NVIC->IP[_IP_IDX(IRQn)]  = ((uint32_t)(NVIC->IP[_IP_IDX(IRQn)]  & ~(0xFFUL << _BIT_SHIFT(IRQn))) |
 8002040:	4c16      	ldr	r4, [pc, #88]	; (800209c <NVIC_SetPriority+0xd8>)
 8002042:	1dfb      	adds	r3, r7, #7
 8002044:	781b      	ldrb	r3, [r3, #0]
 8002046:	b25b      	sxtb	r3, r3
 8002048:	089b      	lsrs	r3, r3, #2
 800204a:	4914      	ldr	r1, [pc, #80]	; (800209c <NVIC_SetPriority+0xd8>)
 800204c:	1dfa      	adds	r2, r7, #7
 800204e:	7812      	ldrb	r2, [r2, #0]
 8002050:	b252      	sxtb	r2, r2
 8002052:	0892      	lsrs	r2, r2, #2
 8002054:	32c0      	adds	r2, #192	; 0xc0
 8002056:	0092      	lsls	r2, r2, #2
 8002058:	5852      	ldr	r2, [r2, r1]
 800205a:	1df9      	adds	r1, r7, #7
 800205c:	7809      	ldrb	r1, [r1, #0]
 800205e:	0008      	movs	r0, r1
 8002060:	2103      	movs	r1, #3
 8002062:	4001      	ands	r1, r0
 8002064:	00c9      	lsls	r1, r1, #3
 8002066:	20ff      	movs	r0, #255	; 0xff
 8002068:	4088      	lsls	r0, r1
 800206a:	0001      	movs	r1, r0
 800206c:	43c9      	mvns	r1, r1
 800206e:	4011      	ands	r1, r2
       (((priority << (8U - __NVIC_PRIO_BITS)) & (uint32_t)0xFFUL) << _BIT_SHIFT(IRQn)));
 8002070:	683a      	ldr	r2, [r7, #0]
 8002072:	0192      	lsls	r2, r2, #6
 8002074:	20ff      	movs	r0, #255	; 0xff
 8002076:	4010      	ands	r0, r2
 8002078:	1dfa      	adds	r2, r7, #7
 800207a:	7812      	ldrb	r2, [r2, #0]
 800207c:	0015      	movs	r5, r2
 800207e:	2203      	movs	r2, #3
 8002080:	402a      	ands	r2, r5
 8002082:	00d2      	lsls	r2, r2, #3
 8002084:	4090      	lsls	r0, r2
 8002086:	0002      	movs	r2, r0
    NVIC->IP[_IP_IDX(IRQn)]  = ((uint32_t)(NVIC->IP[_IP_IDX(IRQn)]  & ~(0xFFUL << _BIT_SHIFT(IRQn))) |
 8002088:	430a      	orrs	r2, r1
 800208a:	33c0      	adds	r3, #192	; 0xc0
 800208c:	009b      	lsls	r3, r3, #2
 800208e:	511a      	str	r2, [r3, r4]
}
 8002090:	46c0      	nop			; (mov r8, r8)
 8002092:	46bd      	mov	sp, r7
 8002094:	b002      	add	sp, #8
 8002096:	bdb0      	pop	{r4, r5, r7, pc}
 8002098:	e000ed00 	.word	0xe000ed00
 800209c:	e000e100 	.word	0xe000e100

080020a0 <SysTick_Config>:
  \note    When the variable <b>__Vendor_SysTickConfig</b> is set to 1, then the
           function <b>SysTick_Config</b> is not included. In this case, the file <b><i>device</i>.h</b>
           must contain a vendor-specific implementation of this function.
 */
__STATIC_INLINE uint32_t SysTick_Config(uint32_t ticks)
{
 80020a0:	b580      	push	{r7, lr}
 80020a2:	b082      	sub	sp, #8
 80020a4:	af00      	add	r7, sp, #0
 80020a6:	6078      	str	r0, [r7, #4]
  if ((ticks - 1UL) > SysTick_LOAD_RELOAD_Msk)
 80020a8:	687b      	ldr	r3, [r7, #4]
 80020aa:	3b01      	subs	r3, #1
 80020ac:	4a0c      	ldr	r2, [pc, #48]	; (80020e0 <SysTick_Config+0x40>)
 80020ae:	4293      	cmp	r3, r2
 80020b0:	d901      	bls.n	80020b6 <SysTick_Config+0x16>
  {
    return (1UL);                                                   /* Reload value impossible */
 80020b2:	2301      	movs	r3, #1
 80020b4:	e010      	b.n	80020d8 <SysTick_Config+0x38>
  }

  SysTick->LOAD  = (uint32_t)(ticks - 1UL);                         /* set reload register */
 80020b6:	4b0b      	ldr	r3, [pc, #44]	; (80020e4 <SysTick_Config+0x44>)
 80020b8:	687a      	ldr	r2, [r7, #4]
 80020ba:	3a01      	subs	r2, #1
 80020bc:	605a      	str	r2, [r3, #4]
  NVIC_SetPriority (SysTick_IRQn, (1UL << __NVIC_PRIO_BITS) - 1UL); /* set Priority for Systick Interrupt */
 80020be:	2301      	movs	r3, #1
 80020c0:	425b      	negs	r3, r3
 80020c2:	2103      	movs	r1, #3
 80020c4:	0018      	movs	r0, r3
 80020c6:	f7ff ff7d 	bl	8001fc4 <NVIC_SetPriority>
  SysTick->VAL   = 0UL;                                             /* Load the SysTick Counter Value */
 80020ca:	4b06      	ldr	r3, [pc, #24]	; (80020e4 <SysTick_Config+0x44>)
 80020cc:	2200      	movs	r2, #0
 80020ce:	609a      	str	r2, [r3, #8]
  SysTick->CTRL  = SysTick_CTRL_CLKSOURCE_Msk |
 80020d0:	4b04      	ldr	r3, [pc, #16]	; (80020e4 <SysTick_Config+0x44>)
 80020d2:	2207      	movs	r2, #7
 80020d4:	601a      	str	r2, [r3, #0]
                   SysTick_CTRL_TICKINT_Msk   |
                   SysTick_CTRL_ENABLE_Msk;                         /* Enable SysTick IRQ and SysTick Timer */
  return (0UL);                                                     /* Function successful */
 80020d6:	2300      	movs	r3, #0
}
 80020d8:	0018      	movs	r0, r3
 80020da:	46bd      	mov	sp, r7
 80020dc:	b002      	add	sp, #8
 80020de:	bd80      	pop	{r7, pc}
 80020e0:	00ffffff 	.word	0x00ffffff
 80020e4:	e000e010 	.word	0xe000e010

080020e8 <HAL_NVIC_SetPriority>:
  *         with stm32l0xx devices, this parameter is a dummy value and it is ignored, because 
  *         no subpriority supported in Cortex M0+ based products.   
  * @retval None
  */
void HAL_NVIC_SetPriority(IRQn_Type IRQn, uint32_t PreemptPriority, uint32_t SubPriority)
{ 
 80020e8:	b580      	push	{r7, lr}
 80020ea:	b084      	sub	sp, #16
 80020ec:	af00      	add	r7, sp, #0
 80020ee:	60b9      	str	r1, [r7, #8]
 80020f0:	607a      	str	r2, [r7, #4]
 80020f2:	230f      	movs	r3, #15
 80020f4:	18fb      	adds	r3, r7, r3
 80020f6:	1c02      	adds	r2, r0, #0
 80020f8:	701a      	strb	r2, [r3, #0]
    /* Check the parameters */
  assert_param(IS_NVIC_PREEMPTION_PRIORITY(PreemptPriority));
  NVIC_SetPriority(IRQn,PreemptPriority);
 80020fa:	68ba      	ldr	r2, [r7, #8]
 80020fc:	230f      	movs	r3, #15
 80020fe:	18fb      	adds	r3, r7, r3
 8002100:	781b      	ldrb	r3, [r3, #0]
 8002102:	b25b      	sxtb	r3, r3
 8002104:	0011      	movs	r1, r2
 8002106:	0018      	movs	r0, r3
 8002108:	f7ff ff5c 	bl	8001fc4 <NVIC_SetPriority>
}
 800210c:	46c0      	nop			; (mov r8, r8)
 800210e:	46bd      	mov	sp, r7
 8002110:	b004      	add	sp, #16
 8002112:	bd80      	pop	{r7, pc}

08002114 <HAL_NVIC_EnableIRQ>:
  *         This parameter can be an enumerator of  IRQn_Type enumeration
  *         (For the complete STM32 Devices IRQ Channels list, please refer to stm32l0xx.h file)  
  * @retval None
  */
void HAL_NVIC_EnableIRQ(IRQn_Type IRQn)
{
 8002114:	b580      	push	{r7, lr}
 8002116:	b082      	sub	sp, #8
 8002118:	af00      	add	r7, sp, #0
 800211a:	0002      	movs	r2, r0
 800211c:	1dfb      	adds	r3, r7, #7
 800211e:	701a      	strb	r2, [r3, #0]
  /* Check the parameters */
  assert_param(IS_NVIC_DEVICE_IRQ(IRQn));
  
  /* Enable interrupt */
  NVIC_EnableIRQ(IRQn);
 8002120:	1dfb      	adds	r3, r7, #7
 8002122:	781b      	ldrb	r3, [r3, #0]
 8002124:	b25b      	sxtb	r3, r3
 8002126:	0018      	movs	r0, r3
 8002128:	f7ff ff36 	bl	8001f98 <NVIC_EnableIRQ>
}
 800212c:	46c0      	nop			; (mov r8, r8)
 800212e:	46bd      	mov	sp, r7
 8002130:	b002      	add	sp, #8
 8002132:	bd80      	pop	{r7, pc}

08002134 <HAL_SYSTICK_Config>:
  * @param  TicksNumb: Specifies the ticks Number of ticks between two interrupts.
  * @retval status:  - 0  Function succeeded.
  *                  - 1  Function failed.
  */
uint32_t HAL_SYSTICK_Config(uint32_t TicksNumb)
{
 8002134:	b580      	push	{r7, lr}
 8002136:	b082      	sub	sp, #8
 8002138:	af00      	add	r7, sp, #0
 800213a:	6078      	str	r0, [r7, #4]
   return SysTick_Config(TicksNumb);
 800213c:	687b      	ldr	r3, [r7, #4]
 800213e:	0018      	movs	r0, r3
 8002140:	f7ff ffae 	bl	80020a0 <SysTick_Config>
 8002144:	0003      	movs	r3, r0
}
 8002146:	0018      	movs	r0, r3
 8002148:	46bd      	mov	sp, r7
 800214a:	b002      	add	sp, #8
 800214c:	bd80      	pop	{r7, pc}
	...

08002150 <HAL_SYSTICK_CLKSourceConfig>:
  *             @arg SYSTICK_CLKSOURCE_HCLK_DIV8: AHB clock divided by 8 selected as SysTick clock source.
  *             @arg SYSTICK_CLKSOURCE_HCLK: AHB clock selected as SysTick clock source.
  * @retval None
  */
void HAL_SYSTICK_CLKSourceConfig(uint32_t CLKSource)
{
 8002150:	b580      	push	{r7, lr}
 8002152:	b082      	sub	sp, #8
 8002154:	af00      	add	r7, sp, #0
 8002156:	6078      	str	r0, [r7, #4]
  /* Check the parameters */
  assert_param(IS_SYSTICK_CLK_SOURCE(CLKSource));
  if (CLKSource == SYSTICK_CLKSOURCE_HCLK)
 8002158:	687b      	ldr	r3, [r7, #4]
 800215a:	2b04      	cmp	r3, #4
 800215c:	d106      	bne.n	800216c <HAL_SYSTICK_CLKSourceConfig+0x1c>
  {
    SysTick->CTRL |= SYSTICK_CLKSOURCE_HCLK;
 800215e:	4b08      	ldr	r3, [pc, #32]	; (8002180 <HAL_SYSTICK_CLKSourceConfig+0x30>)
 8002160:	4a07      	ldr	r2, [pc, #28]	; (8002180 <HAL_SYSTICK_CLKSourceConfig+0x30>)
 8002162:	6812      	ldr	r2, [r2, #0]
 8002164:	2104      	movs	r1, #4
 8002166:	430a      	orrs	r2, r1
 8002168:	601a      	str	r2, [r3, #0]
  }
  else
  {
    SysTick->CTRL &= ~SYSTICK_CLKSOURCE_HCLK;
  }
}
 800216a:	e005      	b.n	8002178 <HAL_SYSTICK_CLKSourceConfig+0x28>
    SysTick->CTRL &= ~SYSTICK_CLKSOURCE_HCLK;
 800216c:	4b04      	ldr	r3, [pc, #16]	; (8002180 <HAL_SYSTICK_CLKSourceConfig+0x30>)
 800216e:	4a04      	ldr	r2, [pc, #16]	; (8002180 <HAL_SYSTICK_CLKSourceConfig+0x30>)
 8002170:	6812      	ldr	r2, [r2, #0]
 8002172:	2104      	movs	r1, #4
 8002174:	438a      	bics	r2, r1
 8002176:	601a      	str	r2, [r3, #0]
}
 8002178:	46c0      	nop			; (mov r8, r8)
 800217a:	46bd      	mov	sp, r7
 800217c:	b002      	add	sp, #8
 800217e:	bd80      	pop	{r7, pc}
 8002180:	e000e010 	.word	0xe000e010

08002184 <HAL_SYSTICK_IRQHandler>:
/**
  * @brief  This function handles SYSTICK interrupt request.
  * @retval None
  */
void HAL_SYSTICK_IRQHandler(void)
{
 8002184:	b580      	push	{r7, lr}
 8002186:	af00      	add	r7, sp, #0
  HAL_SYSTICK_Callback();
 8002188:	f000 f803 	bl	8002192 <HAL_SYSTICK_Callback>
}
 800218c:	46c0      	nop			; (mov r8, r8)
 800218e:	46bd      	mov	sp, r7
 8002190:	bd80      	pop	{r7, pc}

08002192 <HAL_SYSTICK_Callback>:
/**
  * @brief  SYSTICK callback.
  * @retval None
  */
__weak void HAL_SYSTICK_Callback(void)
{
 8002192:	b580      	push	{r7, lr}
 8002194:	af00      	add	r7, sp, #0
  /* NOTE : This function Should not be modified, when the callback is needed,
            the HAL_SYSTICK_Callback could be implemented in the user file
   */
}
 8002196:	46c0      	nop			; (mov r8, r8)
 8002198:	46bd      	mov	sp, r7
 800219a:	bd80      	pop	{r7, pc}

0800219c <HAL_DMA_Init>:
  * @param  hdma: Pointer to a DMA_HandleTypeDef structure that contains
  *               the configuration information for the specified DMA Channel.  
  * @retval HAL status
  */
HAL_StatusTypeDef HAL_DMA_Init(DMA_HandleTypeDef *hdma)
{ 
 800219c:	b580      	push	{r7, lr}
 800219e:	b084      	sub	sp, #16
 80021a0:	af00      	add	r7, sp, #0
 80021a2:	6078      	str	r0, [r7, #4]
  uint32_t tmp = 0U;
 80021a4:	2300      	movs	r3, #0
 80021a6:	60fb      	str	r3, [r7, #12]
  
  /* Check the DMA peripheral state */
  if(hdma == NULL)
 80021a8:	687b      	ldr	r3, [r7, #4]
 80021aa:	2b00      	cmp	r3, #0
 80021ac:	d101      	bne.n	80021b2 <HAL_DMA_Init+0x16>
  {
    return HAL_ERROR;
 80021ae:	2301      	movs	r3, #1
 80021b0:	e0bf      	b.n	8002332 <HAL_DMA_Init+0x196>
  assert_param(IS_DMA_PERIPHERAL_DATA_SIZE(hdma->Init.PeriphDataAlignment));
  assert_param(IS_DMA_MEMORY_DATA_SIZE(hdma->Init.MemDataAlignment));
  assert_param(IS_DMA_MODE(hdma->Init.Mode));
  assert_param(IS_DMA_PRIORITY(hdma->Init.Priority));
  
  if(hdma->State == HAL_DMA_STATE_RESET)
 80021b2:	687b      	ldr	r3, [r7, #4]
 80021b4:	2225      	movs	r2, #37	; 0x25
 80021b6:	5c9b      	ldrb	r3, [r3, r2]
 80021b8:	b2db      	uxtb	r3, r3
 80021ba:	2b00      	cmp	r3, #0
 80021bc:	d103      	bne.n	80021c6 <HAL_DMA_Init+0x2a>
  {
    /* Allocate lock resource and initialize it */
    hdma->Lock = HAL_UNLOCKED;
 80021be:	687b      	ldr	r3, [r7, #4]
 80021c0:	2224      	movs	r2, #36	; 0x24
 80021c2:	2100      	movs	r1, #0
 80021c4:	5499      	strb	r1, [r3, r2]
  }

  /* Change DMA peripheral state */
  hdma->State = HAL_DMA_STATE_BUSY;
 80021c6:	687b      	ldr	r3, [r7, #4]
 80021c8:	2225      	movs	r2, #37	; 0x25
 80021ca:	2102      	movs	r1, #2
 80021cc:	5499      	strb	r1, [r3, r2]

  /* Get the CR register value */
  tmp = hdma->Instance->CCR;
 80021ce:	687b      	ldr	r3, [r7, #4]
 80021d0:	681b      	ldr	r3, [r3, #0]
 80021d2:	681b      	ldr	r3, [r3, #0]
 80021d4:	60fb      	str	r3, [r7, #12]
  
  /* Clear PL, MSIZE, PSIZE, MINC, PINC, CIRC, DIR bits */
  tmp &= ((uint32_t)~(DMA_CCR_PL    | DMA_CCR_MSIZE  | DMA_CCR_PSIZE  | \
 80021d6:	68fb      	ldr	r3, [r7, #12]
 80021d8:	4a58      	ldr	r2, [pc, #352]	; (800233c <HAL_DMA_Init+0x1a0>)
 80021da:	4013      	ands	r3, r2
 80021dc:	60fb      	str	r3, [r7, #12]
                      DMA_CCR_MINC  | DMA_CCR_PINC   | DMA_CCR_CIRC   | \
                      DMA_CCR_DIR));
  
  /* Prepare the DMA Channel configuration */
  tmp |=  hdma->Init.Direction        |
 80021de:	687b      	ldr	r3, [r7, #4]
 80021e0:	689a      	ldr	r2, [r3, #8]
          hdma->Init.PeriphInc           | hdma->Init.MemInc           |
 80021e2:	687b      	ldr	r3, [r7, #4]
 80021e4:	68db      	ldr	r3, [r3, #12]
  tmp |=  hdma->Init.Direction        |
 80021e6:	431a      	orrs	r2, r3
          hdma->Init.PeriphInc           | hdma->Init.MemInc           |
 80021e8:	687b      	ldr	r3, [r7, #4]
 80021ea:	691b      	ldr	r3, [r3, #16]
 80021ec:	431a      	orrs	r2, r3
          hdma->Init.PeriphDataAlignment | hdma->Init.MemDataAlignment |
 80021ee:	687b      	ldr	r3, [r7, #4]
 80021f0:	695b      	ldr	r3, [r3, #20]
          hdma->Init.PeriphInc           | hdma->Init.MemInc           |
 80021f2:	431a      	orrs	r2, r3
          hdma->Init.PeriphDataAlignment | hdma->Init.MemDataAlignment |
 80021f4:	687b      	ldr	r3, [r7, #4]
 80021f6:	699b      	ldr	r3, [r3, #24]
 80021f8:	431a      	orrs	r2, r3
          hdma->Init.Mode                | hdma->Init.Priority;
 80021fa:	687b      	ldr	r3, [r7, #4]
 80021fc:	69db      	ldr	r3, [r3, #28]
          hdma->Init.PeriphDataAlignment | hdma->Init.MemDataAlignment |
 80021fe:	431a      	orrs	r2, r3
          hdma->Init.Mode                | hdma->Init.Priority;
 8002200:	687b      	ldr	r3, [r7, #4]
 8002202:	6a1b      	ldr	r3, [r3, #32]
 8002204:	4313      	orrs	r3, r2
  tmp |=  hdma->Init.Direction        |
 8002206:	68fa      	ldr	r2, [r7, #12]
 8002208:	4313      	orrs	r3, r2
 800220a:	60fb      	str	r3, [r7, #12]

  /* Write to DMA Channel CR register */
  hdma->Instance->CCR = tmp;  
 800220c:	687b      	ldr	r3, [r7, #4]
 800220e:	681b      	ldr	r3, [r3, #0]
 8002210:	68fa      	ldr	r2, [r7, #12]
 8002212:	601a      	str	r2, [r3, #0]
  
  /* Write to DMA channel selection register */
  if (hdma->Instance == DMA1_Channel1)
 8002214:	687b      	ldr	r3, [r7, #4]
 8002216:	681b      	ldr	r3, [r3, #0]
 8002218:	4a49      	ldr	r2, [pc, #292]	; (8002340 <HAL_DMA_Init+0x1a4>)
 800221a:	4293      	cmp	r3, r2
 800221c:	d10d      	bne.n	800223a <HAL_DMA_Init+0x9e>
  {
    /*Reset request selection for DMA1 Channel1*/
    DMA1_CSELR->CSELR &= ~DMA_CSELR_C1S;
 800221e:	4b49      	ldr	r3, [pc, #292]	; (8002344 <HAL_DMA_Init+0x1a8>)
 8002220:	4a48      	ldr	r2, [pc, #288]	; (8002344 <HAL_DMA_Init+0x1a8>)
 8002222:	6812      	ldr	r2, [r2, #0]
 8002224:	210f      	movs	r1, #15
 8002226:	438a      	bics	r2, r1
 8002228:	601a      	str	r2, [r3, #0]
    
    /* Configure request selection for DMA1 Channel1 */
    DMA1_CSELR->CSELR |= hdma->Init.Request;
 800222a:	4a46      	ldr	r2, [pc, #280]	; (8002344 <HAL_DMA_Init+0x1a8>)
 800222c:	4b45      	ldr	r3, [pc, #276]	; (8002344 <HAL_DMA_Init+0x1a8>)
 800222e:	6819      	ldr	r1, [r3, #0]
 8002230:	687b      	ldr	r3, [r7, #4]
 8002232:	685b      	ldr	r3, [r3, #4]
 8002234:	430b      	orrs	r3, r1
 8002236:	6013      	str	r3, [r2, #0]
 8002238:	e076      	b.n	8002328 <HAL_DMA_Init+0x18c>
  }
  else if (hdma->Instance == DMA1_Channel2)
 800223a:	687b      	ldr	r3, [r7, #4]
 800223c:	681b      	ldr	r3, [r3, #0]
 800223e:	4a42      	ldr	r2, [pc, #264]	; (8002348 <HAL_DMA_Init+0x1ac>)
 8002240:	4293      	cmp	r3, r2
 8002242:	d10e      	bne.n	8002262 <HAL_DMA_Init+0xc6>
  {
    /*Reset request selection for DMA1 Channel2*/
    DMA1_CSELR->CSELR &= ~DMA_CSELR_C2S;
 8002244:	4b3f      	ldr	r3, [pc, #252]	; (8002344 <HAL_DMA_Init+0x1a8>)
 8002246:	4a3f      	ldr	r2, [pc, #252]	; (8002344 <HAL_DMA_Init+0x1a8>)
 8002248:	6812      	ldr	r2, [r2, #0]
 800224a:	21f0      	movs	r1, #240	; 0xf0
 800224c:	438a      	bics	r2, r1
 800224e:	601a      	str	r2, [r3, #0]
    
    /* Configure request selection for DMA1 Channel2 */
    DMA1_CSELR->CSELR |= (uint32_t)(hdma->Init.Request << 4U);
 8002250:	4a3c      	ldr	r2, [pc, #240]	; (8002344 <HAL_DMA_Init+0x1a8>)
 8002252:	4b3c      	ldr	r3, [pc, #240]	; (8002344 <HAL_DMA_Init+0x1a8>)
 8002254:	6819      	ldr	r1, [r3, #0]
 8002256:	687b      	ldr	r3, [r7, #4]
 8002258:	685b      	ldr	r3, [r3, #4]
 800225a:	011b      	lsls	r3, r3, #4
 800225c:	430b      	orrs	r3, r1
 800225e:	6013      	str	r3, [r2, #0]
 8002260:	e062      	b.n	8002328 <HAL_DMA_Init+0x18c>
  }
  else if (hdma->Instance == DMA1_Channel3)
 8002262:	687b      	ldr	r3, [r7, #4]
 8002264:	681b      	ldr	r3, [r3, #0]
 8002266:	4a39      	ldr	r2, [pc, #228]	; (800234c <HAL_DMA_Init+0x1b0>)
 8002268:	4293      	cmp	r3, r2
 800226a:	d10e      	bne.n	800228a <HAL_DMA_Init+0xee>
  {
    /*Reset request selection for DMA1 Channel3*/
    DMA1_CSELR->CSELR &= ~DMA_CSELR_C3S;
 800226c:	4b35      	ldr	r3, [pc, #212]	; (8002344 <HAL_DMA_Init+0x1a8>)
 800226e:	4a35      	ldr	r2, [pc, #212]	; (8002344 <HAL_DMA_Init+0x1a8>)
 8002270:	6812      	ldr	r2, [r2, #0]
 8002272:	4937      	ldr	r1, [pc, #220]	; (8002350 <HAL_DMA_Init+0x1b4>)
 8002274:	400a      	ands	r2, r1
 8002276:	601a      	str	r2, [r3, #0]
    
    /* Configure request selection for DMA1 Channel3 */
    DMA1_CSELR->CSELR |= (uint32_t) (hdma->Init.Request << 8U);
 8002278:	4a32      	ldr	r2, [pc, #200]	; (8002344 <HAL_DMA_Init+0x1a8>)
 800227a:	4b32      	ldr	r3, [pc, #200]	; (8002344 <HAL_DMA_Init+0x1a8>)
 800227c:	6819      	ldr	r1, [r3, #0]
 800227e:	687b      	ldr	r3, [r7, #4]
 8002280:	685b      	ldr	r3, [r3, #4]
 8002282:	021b      	lsls	r3, r3, #8
 8002284:	430b      	orrs	r3, r1
 8002286:	6013      	str	r3, [r2, #0]
 8002288:	e04e      	b.n	8002328 <HAL_DMA_Init+0x18c>
  }
  else if (hdma->Instance == DMA1_Channel4)
 800228a:	687b      	ldr	r3, [r7, #4]
 800228c:	681b      	ldr	r3, [r3, #0]
 800228e:	4a31      	ldr	r2, [pc, #196]	; (8002354 <HAL_DMA_Init+0x1b8>)
 8002290:	4293      	cmp	r3, r2
 8002292:	d10e      	bne.n	80022b2 <HAL_DMA_Init+0x116>
  {
    /*Reset request selection for DMA1 Channel4*/
    DMA1_CSELR->CSELR &= ~DMA_CSELR_C4S;
 8002294:	4b2b      	ldr	r3, [pc, #172]	; (8002344 <HAL_DMA_Init+0x1a8>)
 8002296:	4a2b      	ldr	r2, [pc, #172]	; (8002344 <HAL_DMA_Init+0x1a8>)
 8002298:	6812      	ldr	r2, [r2, #0]
 800229a:	492f      	ldr	r1, [pc, #188]	; (8002358 <HAL_DMA_Init+0x1bc>)
 800229c:	400a      	ands	r2, r1
 800229e:	601a      	str	r2, [r3, #0]
    
    /* Configure request selection for DMA1 Channel4 */
    DMA1_CSELR->CSELR |= (uint32_t) (hdma->Init.Request << 12U);
 80022a0:	4a28      	ldr	r2, [pc, #160]	; (8002344 <HAL_DMA_Init+0x1a8>)
 80022a2:	4b28      	ldr	r3, [pc, #160]	; (8002344 <HAL_DMA_Init+0x1a8>)
 80022a4:	6819      	ldr	r1, [r3, #0]
 80022a6:	687b      	ldr	r3, [r7, #4]
 80022a8:	685b      	ldr	r3, [r3, #4]
 80022aa:	031b      	lsls	r3, r3, #12
 80022ac:	430b      	orrs	r3, r1
 80022ae:	6013      	str	r3, [r2, #0]
 80022b0:	e03a      	b.n	8002328 <HAL_DMA_Init+0x18c>
  }
  else if (hdma->Instance == DMA1_Channel5)
 80022b2:	687b      	ldr	r3, [r7, #4]
 80022b4:	681b      	ldr	r3, [r3, #0]
 80022b6:	4a29      	ldr	r2, [pc, #164]	; (800235c <HAL_DMA_Init+0x1c0>)
 80022b8:	4293      	cmp	r3, r2
 80022ba:	d10e      	bne.n	80022da <HAL_DMA_Init+0x13e>
  {
    /*Reset request selection for DMA1 Channel5*/
    DMA1_CSELR->CSELR &= ~DMA_CSELR_C5S;
 80022bc:	4b21      	ldr	r3, [pc, #132]	; (8002344 <HAL_DMA_Init+0x1a8>)
 80022be:	4a21      	ldr	r2, [pc, #132]	; (8002344 <HAL_DMA_Init+0x1a8>)
 80022c0:	6812      	ldr	r2, [r2, #0]
 80022c2:	4927      	ldr	r1, [pc, #156]	; (8002360 <HAL_DMA_Init+0x1c4>)
 80022c4:	400a      	ands	r2, r1
 80022c6:	601a      	str	r2, [r3, #0]
    
    /* Configure request selection for DMA1 Channel5 */
    DMA1_CSELR->CSELR |= (uint32_t) (hdma->Init.Request << 16U);
 80022c8:	4a1e      	ldr	r2, [pc, #120]	; (8002344 <HAL_DMA_Init+0x1a8>)
 80022ca:	4b1e      	ldr	r3, [pc, #120]	; (8002344 <HAL_DMA_Init+0x1a8>)
 80022cc:	6819      	ldr	r1, [r3, #0]
 80022ce:	687b      	ldr	r3, [r7, #4]
 80022d0:	685b      	ldr	r3, [r3, #4]
 80022d2:	041b      	lsls	r3, r3, #16
 80022d4:	430b      	orrs	r3, r1
 80022d6:	6013      	str	r3, [r2, #0]
 80022d8:	e026      	b.n	8002328 <HAL_DMA_Init+0x18c>
  }
#if !defined (STM32L011xx) && !defined (STM32L021xx)
  else if (hdma->Instance == DMA1_Channel6)
 80022da:	687b      	ldr	r3, [r7, #4]
 80022dc:	681b      	ldr	r3, [r3, #0]
 80022de:	4a21      	ldr	r2, [pc, #132]	; (8002364 <HAL_DMA_Init+0x1c8>)
 80022e0:	4293      	cmp	r3, r2
 80022e2:	d10e      	bne.n	8002302 <HAL_DMA_Init+0x166>
  {
    /*Reset request selection for DMA1 Channel6*/
    DMA1_CSELR->CSELR &= ~DMA_CSELR_C6S;
 80022e4:	4b17      	ldr	r3, [pc, #92]	; (8002344 <HAL_DMA_Init+0x1a8>)
 80022e6:	4a17      	ldr	r2, [pc, #92]	; (8002344 <HAL_DMA_Init+0x1a8>)
 80022e8:	6812      	ldr	r2, [r2, #0]
 80022ea:	491f      	ldr	r1, [pc, #124]	; (8002368 <HAL_DMA_Init+0x1cc>)
 80022ec:	400a      	ands	r2, r1
 80022ee:	601a      	str	r2, [r3, #0]
    
    /* Configure request selection for DMA1 Channel6 */
    DMA1_CSELR->CSELR |= (uint32_t) (hdma->Init.Request << 20U);
 80022f0:	4a14      	ldr	r2, [pc, #80]	; (8002344 <HAL_DMA_Init+0x1a8>)
 80022f2:	4b14      	ldr	r3, [pc, #80]	; (8002344 <HAL_DMA_Init+0x1a8>)
 80022f4:	6819      	ldr	r1, [r3, #0]
 80022f6:	687b      	ldr	r3, [r7, #4]
 80022f8:	685b      	ldr	r3, [r3, #4]
 80022fa:	051b      	lsls	r3, r3, #20
 80022fc:	430b      	orrs	r3, r1
 80022fe:	6013      	str	r3, [r2, #0]
 8002300:	e012      	b.n	8002328 <HAL_DMA_Init+0x18c>
  }
  else if (hdma->Instance == DMA1_Channel7)
 8002302:	687b      	ldr	r3, [r7, #4]
 8002304:	681b      	ldr	r3, [r3, #0]
 8002306:	4a19      	ldr	r2, [pc, #100]	; (800236c <HAL_DMA_Init+0x1d0>)
 8002308:	4293      	cmp	r3, r2
 800230a:	d10d      	bne.n	8002328 <HAL_DMA_Init+0x18c>
  {
    /*Reset request selection for DMA1 Channel7*/
    DMA1_CSELR->CSELR &= ~DMA_CSELR_C7S;
 800230c:	4b0d      	ldr	r3, [pc, #52]	; (8002344 <HAL_DMA_Init+0x1a8>)
 800230e:	4a0d      	ldr	r2, [pc, #52]	; (8002344 <HAL_DMA_Init+0x1a8>)
 8002310:	6812      	ldr	r2, [r2, #0]
 8002312:	4917      	ldr	r1, [pc, #92]	; (8002370 <HAL_DMA_Init+0x1d4>)
 8002314:	400a      	ands	r2, r1
 8002316:	601a      	str	r2, [r3, #0]
    
    /* Configure request selection for DMA1 Channel7 */
    DMA1_CSELR->CSELR |= (uint32_t) (hdma->Init.Request << 24U);
 8002318:	4a0a      	ldr	r2, [pc, #40]	; (8002344 <HAL_DMA_Init+0x1a8>)
 800231a:	4b0a      	ldr	r3, [pc, #40]	; (8002344 <HAL_DMA_Init+0x1a8>)
 800231c:	6819      	ldr	r1, [r3, #0]
 800231e:	687b      	ldr	r3, [r7, #4]
 8002320:	685b      	ldr	r3, [r3, #4]
 8002322:	061b      	lsls	r3, r3, #24
 8002324:	430b      	orrs	r3, r1
 8002326:	6013      	str	r3, [r2, #0]
  }
#endif   
  /* Initialize the DMA state*/
  hdma->State  = HAL_DMA_STATE_READY;
 8002328:	687b      	ldr	r3, [r7, #4]
 800232a:	2225      	movs	r2, #37	; 0x25
 800232c:	2101      	movs	r1, #1
 800232e:	5499      	strb	r1, [r3, r2]
  
  return HAL_OK;
 8002330:	2300      	movs	r3, #0
}  
 8002332:	0018      	movs	r0, r3
 8002334:	46bd      	mov	sp, r7
 8002336:	b004      	add	sp, #16
 8002338:	bd80      	pop	{r7, pc}
 800233a:	46c0      	nop			; (mov r8, r8)
 800233c:	ffffc00f 	.word	0xffffc00f
 8002340:	40020008 	.word	0x40020008
 8002344:	400200a8 	.word	0x400200a8
 8002348:	4002001c 	.word	0x4002001c
 800234c:	40020030 	.word	0x40020030
 8002350:	fffff0ff 	.word	0xfffff0ff
 8002354:	40020044 	.word	0x40020044
 8002358:	ffff0fff 	.word	0xffff0fff
 800235c:	40020058 	.word	0x40020058
 8002360:	fff0ffff 	.word	0xfff0ffff
 8002364:	4002006c 	.word	0x4002006c
 8002368:	ff0fffff 	.word	0xff0fffff
 800236c:	40020080 	.word	0x40020080
 8002370:	f0ffffff 	.word	0xf0ffffff

08002374 <HAL_DMA_Start_IT>:
  * @param  DstAddress: The destination memory Buffer address
  * @param  DataLength: The length of data to be transferred from source to destination
  * @retval HAL status
  */
HAL_StatusTypeDef HAL_DMA_Start_IT(DMA_HandleTypeDef *hdma, uint32_t SrcAddress, uint32_t DstAddress, uint32_t DataLength)
{
 8002374:	b580      	push	{r7, lr}
 8002376:	b084      	sub	sp, #16
 8002378:	af00      	add	r7, sp, #0
 800237a:	60f8      	str	r0, [r7, #12]
 800237c:	60b9      	str	r1, [r7, #8]
 800237e:	607a      	str	r2, [r7, #4]
 8002380:	603b      	str	r3, [r7, #0]
  /* Process locked */
  __HAL_LOCK(hdma);
 8002382:	68fb      	ldr	r3, [r7, #12]
 8002384:	2224      	movs	r2, #36	; 0x24
 8002386:	5c9b      	ldrb	r3, [r3, r2]
 8002388:	2b01      	cmp	r3, #1
 800238a:	d101      	bne.n	8002390 <HAL_DMA_Start_IT+0x1c>
 800238c:	2302      	movs	r3, #2
 800238e:	e036      	b.n	80023fe <HAL_DMA_Start_IT+0x8a>
 8002390:	68fb      	ldr	r3, [r7, #12]
 8002392:	2224      	movs	r2, #36	; 0x24
 8002394:	2101      	movs	r1, #1
 8002396:	5499      	strb	r1, [r3, r2]

  /* Change DMA peripheral state */  
  hdma->State = HAL_DMA_STATE_BUSY;  
 8002398:	68fb      	ldr	r3, [r7, #12]
 800239a:	2225      	movs	r2, #37	; 0x25
 800239c:	2102      	movs	r1, #2
 800239e:	5499      	strb	r1, [r3, r2]

   /* Check the parameters */
  assert_param(IS_DMA_BUFFER_SIZE(DataLength));
  
  /* Disable the peripheral */
  __HAL_DMA_DISABLE(hdma);
 80023a0:	68fb      	ldr	r3, [r7, #12]
 80023a2:	681b      	ldr	r3, [r3, #0]
 80023a4:	68fa      	ldr	r2, [r7, #12]
 80023a6:	6812      	ldr	r2, [r2, #0]
 80023a8:	6812      	ldr	r2, [r2, #0]
 80023aa:	2101      	movs	r1, #1
 80023ac:	438a      	bics	r2, r1
 80023ae:	601a      	str	r2, [r3, #0]
  
  /* Configure the source, destination address and the data length */  
  DMA_SetConfig(hdma, SrcAddress, DstAddress, DataLength);
 80023b0:	683b      	ldr	r3, [r7, #0]
 80023b2:	687a      	ldr	r2, [r7, #4]
 80023b4:	68b9      	ldr	r1, [r7, #8]
 80023b6:	68f8      	ldr	r0, [r7, #12]
 80023b8:	f000 fa4e 	bl	8002858 <DMA_SetConfig>
  
  /* Enable the transfer complete interrupt */
  __HAL_DMA_ENABLE_IT(hdma, DMA_IT_TC);
 80023bc:	68fb      	ldr	r3, [r7, #12]
 80023be:	681b      	ldr	r3, [r3, #0]
 80023c0:	68fa      	ldr	r2, [r7, #12]
 80023c2:	6812      	ldr	r2, [r2, #0]
 80023c4:	6812      	ldr	r2, [r2, #0]
 80023c6:	2102      	movs	r1, #2
 80023c8:	430a      	orrs	r2, r1
 80023ca:	601a      	str	r2, [r3, #0]

  /* Enable the Half transfer complete interrupt */
  __HAL_DMA_ENABLE_IT(hdma, DMA_IT_HT);  
 80023cc:	68fb      	ldr	r3, [r7, #12]
 80023ce:	681b      	ldr	r3, [r3, #0]
 80023d0:	68fa      	ldr	r2, [r7, #12]
 80023d2:	6812      	ldr	r2, [r2, #0]
 80023d4:	6812      	ldr	r2, [r2, #0]
 80023d6:	2104      	movs	r1, #4
 80023d8:	430a      	orrs	r2, r1
 80023da:	601a      	str	r2, [r3, #0]

  /* Enable the transfer Error interrupt */
  __HAL_DMA_ENABLE_IT(hdma, DMA_IT_TE);
 80023dc:	68fb      	ldr	r3, [r7, #12]
 80023de:	681b      	ldr	r3, [r3, #0]
 80023e0:	68fa      	ldr	r2, [r7, #12]
 80023e2:	6812      	ldr	r2, [r2, #0]
 80023e4:	6812      	ldr	r2, [r2, #0]
 80023e6:	2108      	movs	r1, #8
 80023e8:	430a      	orrs	r2, r1
 80023ea:	601a      	str	r2, [r3, #0]
  
   /* Enable the Peripheral */
  __HAL_DMA_ENABLE(hdma);   
 80023ec:	68fb      	ldr	r3, [r7, #12]
 80023ee:	681b      	ldr	r3, [r3, #0]
 80023f0:	68fa      	ldr	r2, [r7, #12]
 80023f2:	6812      	ldr	r2, [r2, #0]
 80023f4:	6812      	ldr	r2, [r2, #0]
 80023f6:	2101      	movs	r1, #1
 80023f8:	430a      	orrs	r2, r1
 80023fa:	601a      	str	r2, [r3, #0]
  
  return HAL_OK;    
 80023fc:	2300      	movs	r3, #0
} 
 80023fe:	0018      	movs	r0, r3
 8002400:	46bd      	mov	sp, r7
 8002402:	b004      	add	sp, #16
 8002404:	bd80      	pop	{r7, pc}

08002406 <HAL_DMA_Abort>:
  * @param  hdma  : pointer to a DMA_HandleTypeDef structure that contains
  *                 the configuration information for the specified DMA Channel.
  * @retval HAL status
  */
HAL_StatusTypeDef HAL_DMA_Abort(DMA_HandleTypeDef *hdma)
{
 8002406:	b580      	push	{r7, lr}
 8002408:	b084      	sub	sp, #16
 800240a:	af00      	add	r7, sp, #0
 800240c:	6078      	str	r0, [r7, #4]
  uint32_t tickstart = 0U;
 800240e:	2300      	movs	r3, #0
 8002410:	60fb      	str	r3, [r7, #12]
  
  /* Disable the channel */
  __HAL_DMA_DISABLE(hdma);
 8002412:	687b      	ldr	r3, [r7, #4]
 8002414:	681b      	ldr	r3, [r3, #0]
 8002416:	687a      	ldr	r2, [r7, #4]
 8002418:	6812      	ldr	r2, [r2, #0]
 800241a:	6812      	ldr	r2, [r2, #0]
 800241c:	2101      	movs	r1, #1
 800241e:	438a      	bics	r2, r1
 8002420:	601a      	str	r2, [r3, #0]
  
  /* Get timeout */
  tickstart = HAL_GetTick();
 8002422:	f7ff f8eb 	bl	80015fc <HAL_GetTick>
 8002426:	0003      	movs	r3, r0
 8002428:	60fb      	str	r3, [r7, #12]
  
  /* Check if the DMA Channel is effectively disabled */
  while((hdma->Instance->CCR & DMA_CCR_EN) != 0U) 
 800242a:	e018      	b.n	800245e <HAL_DMA_Abort+0x58>
  {
    /* Check for the Timeout */
    if( (HAL_GetTick()  - tickstart ) > HAL_TIMEOUT_DMA_ABORT)
 800242c:	f7ff f8e6 	bl	80015fc <HAL_GetTick>
 8002430:	0002      	movs	r2, r0
 8002432:	68fb      	ldr	r3, [r7, #12]
 8002434:	1ad2      	subs	r2, r2, r3
 8002436:	23fa      	movs	r3, #250	; 0xfa
 8002438:	009b      	lsls	r3, r3, #2
 800243a:	429a      	cmp	r2, r3
 800243c:	d90f      	bls.n	800245e <HAL_DMA_Abort+0x58>
    {
      /* Update error code */
      hdma->ErrorCode |= HAL_DMA_ERROR_TIMEOUT;
 800243e:	687b      	ldr	r3, [r7, #4]
 8002440:	6bdb      	ldr	r3, [r3, #60]	; 0x3c
 8002442:	2220      	movs	r2, #32
 8002444:	431a      	orrs	r2, r3
 8002446:	687b      	ldr	r3, [r7, #4]
 8002448:	63da      	str	r2, [r3, #60]	; 0x3c
      
      /* Process Unlocked */
      __HAL_UNLOCK(hdma);
 800244a:	687b      	ldr	r3, [r7, #4]
 800244c:	2224      	movs	r2, #36	; 0x24
 800244e:	2100      	movs	r1, #0
 8002450:	5499      	strb	r1, [r3, r2]
      
      /* Change the DMA state */
      hdma->State = HAL_DMA_STATE_TIMEOUT;
 8002452:	687b      	ldr	r3, [r7, #4]
 8002454:	2225      	movs	r2, #37	; 0x25
 8002456:	2103      	movs	r1, #3
 8002458:	5499      	strb	r1, [r3, r2]
      
      return HAL_TIMEOUT;
 800245a:	2303      	movs	r3, #3
 800245c:	e00e      	b.n	800247c <HAL_DMA_Abort+0x76>
  while((hdma->Instance->CCR & DMA_CCR_EN) != 0U) 
 800245e:	687b      	ldr	r3, [r7, #4]
 8002460:	681b      	ldr	r3, [r3, #0]
 8002462:	681b      	ldr	r3, [r3, #0]
 8002464:	2201      	movs	r2, #1
 8002466:	4013      	ands	r3, r2
 8002468:	d1e0      	bne.n	800242c <HAL_DMA_Abort+0x26>
    }
  }
  /* Process Unlocked */
  __HAL_UNLOCK(hdma);
 800246a:	687b      	ldr	r3, [r7, #4]
 800246c:	2224      	movs	r2, #36	; 0x24
 800246e:	2100      	movs	r1, #0
 8002470:	5499      	strb	r1, [r3, r2]
  
  /* Change the DMA state*/
  hdma->State = HAL_DMA_STATE_READY; 
 8002472:	687b      	ldr	r3, [r7, #4]
 8002474:	2225      	movs	r2, #37	; 0x25
 8002476:	2101      	movs	r1, #1
 8002478:	5499      	strb	r1, [r3, r2]
  
  return HAL_OK; 
 800247a:	2300      	movs	r3, #0
}
 800247c:	0018      	movs	r0, r3
 800247e:	46bd      	mov	sp, r7
 8002480:	b004      	add	sp, #16
 8002482:	bd80      	pop	{r7, pc}

08002484 <HAL_DMA_IRQHandler>:
  * @param  hdma: pointer to a DMA_HandleTypeDef structure that contains
  *               the configuration information for the specified DMA Channel.  
  * @retval None
  */
void HAL_DMA_IRQHandler(DMA_HandleTypeDef *hdma)
{        
 8002484:	b580      	push	{r7, lr}
 8002486:	b082      	sub	sp, #8
 8002488:	af00      	add	r7, sp, #0
 800248a:	6078      	str	r0, [r7, #4]
  /* Transfer Error Interrupt management ***************************************/
  if(__HAL_DMA_GET_FLAG(hdma, __HAL_DMA_GET_TE_FLAG_INDEX(hdma)) != RESET)
 800248c:	4bb0      	ldr	r3, [pc, #704]	; (8002750 <HAL_DMA_IRQHandler+0x2cc>)
 800248e:	681a      	ldr	r2, [r3, #0]
 8002490:	687b      	ldr	r3, [r7, #4]
 8002492:	681b      	ldr	r3, [r3, #0]
 8002494:	0019      	movs	r1, r3
 8002496:	4baf      	ldr	r3, [pc, #700]	; (8002754 <HAL_DMA_IRQHandler+0x2d0>)
 8002498:	4299      	cmp	r1, r3
 800249a:	d02e      	beq.n	80024fa <HAL_DMA_IRQHandler+0x76>
 800249c:	687b      	ldr	r3, [r7, #4]
 800249e:	681b      	ldr	r3, [r3, #0]
 80024a0:	0019      	movs	r1, r3
 80024a2:	4bad      	ldr	r3, [pc, #692]	; (8002758 <HAL_DMA_IRQHandler+0x2d4>)
 80024a4:	4299      	cmp	r1, r3
 80024a6:	d026      	beq.n	80024f6 <HAL_DMA_IRQHandler+0x72>
 80024a8:	687b      	ldr	r3, [r7, #4]
 80024aa:	681b      	ldr	r3, [r3, #0]
 80024ac:	0019      	movs	r1, r3
 80024ae:	4bab      	ldr	r3, [pc, #684]	; (800275c <HAL_DMA_IRQHandler+0x2d8>)
 80024b0:	4299      	cmp	r1, r3
 80024b2:	d01d      	beq.n	80024f0 <HAL_DMA_IRQHandler+0x6c>
 80024b4:	687b      	ldr	r3, [r7, #4]
 80024b6:	681b      	ldr	r3, [r3, #0]
 80024b8:	0019      	movs	r1, r3
 80024ba:	4ba9      	ldr	r3, [pc, #676]	; (8002760 <HAL_DMA_IRQHandler+0x2dc>)
 80024bc:	4299      	cmp	r1, r3
 80024be:	d014      	beq.n	80024ea <HAL_DMA_IRQHandler+0x66>
 80024c0:	687b      	ldr	r3, [r7, #4]
 80024c2:	681b      	ldr	r3, [r3, #0]
 80024c4:	0019      	movs	r1, r3
 80024c6:	4ba7      	ldr	r3, [pc, #668]	; (8002764 <HAL_DMA_IRQHandler+0x2e0>)
 80024c8:	4299      	cmp	r1, r3
 80024ca:	d00b      	beq.n	80024e4 <HAL_DMA_IRQHandler+0x60>
 80024cc:	687b      	ldr	r3, [r7, #4]
 80024ce:	681b      	ldr	r3, [r3, #0]
 80024d0:	0019      	movs	r1, r3
 80024d2:	4ba5      	ldr	r3, [pc, #660]	; (8002768 <HAL_DMA_IRQHandler+0x2e4>)
 80024d4:	4299      	cmp	r1, r3
 80024d6:	d102      	bne.n	80024de <HAL_DMA_IRQHandler+0x5a>
 80024d8:	2380      	movs	r3, #128	; 0x80
 80024da:	041b      	lsls	r3, r3, #16
 80024dc:	e00e      	b.n	80024fc <HAL_DMA_IRQHandler+0x78>
 80024de:	2380      	movs	r3, #128	; 0x80
 80024e0:	051b      	lsls	r3, r3, #20
 80024e2:	e00b      	b.n	80024fc <HAL_DMA_IRQHandler+0x78>
 80024e4:	2380      	movs	r3, #128	; 0x80
 80024e6:	031b      	lsls	r3, r3, #12
 80024e8:	e008      	b.n	80024fc <HAL_DMA_IRQHandler+0x78>
 80024ea:	2380      	movs	r3, #128	; 0x80
 80024ec:	021b      	lsls	r3, r3, #8
 80024ee:	e005      	b.n	80024fc <HAL_DMA_IRQHandler+0x78>
 80024f0:	2380      	movs	r3, #128	; 0x80
 80024f2:	011b      	lsls	r3, r3, #4
 80024f4:	e002      	b.n	80024fc <HAL_DMA_IRQHandler+0x78>
 80024f6:	2380      	movs	r3, #128	; 0x80
 80024f8:	e000      	b.n	80024fc <HAL_DMA_IRQHandler+0x78>
 80024fa:	2308      	movs	r3, #8
 80024fc:	4013      	ands	r3, r2
 80024fe:	d05c      	beq.n	80025ba <HAL_DMA_IRQHandler+0x136>
  {
    if(__HAL_DMA_GET_IT_SOURCE(hdma, DMA_IT_TE) != RESET)
 8002500:	687b      	ldr	r3, [r7, #4]
 8002502:	681b      	ldr	r3, [r3, #0]
 8002504:	681b      	ldr	r3, [r3, #0]
 8002506:	2208      	movs	r2, #8
 8002508:	4013      	ands	r3, r2
 800250a:	d056      	beq.n	80025ba <HAL_DMA_IRQHandler+0x136>
    {
      /* Disable the transfer error interrupt */
      __HAL_DMA_DISABLE_IT(hdma, DMA_IT_TE);
 800250c:	687b      	ldr	r3, [r7, #4]
 800250e:	681b      	ldr	r3, [r3, #0]
 8002510:	687a      	ldr	r2, [r7, #4]
 8002512:	6812      	ldr	r2, [r2, #0]
 8002514:	6812      	ldr	r2, [r2, #0]
 8002516:	2108      	movs	r1, #8
 8002518:	438a      	bics	r2, r1
 800251a:	601a      	str	r2, [r3, #0]
    
      /* Clear the transfer error flag */
      __HAL_DMA_CLEAR_FLAG(hdma, __HAL_DMA_GET_TE_FLAG_INDEX(hdma));
 800251c:	4a8c      	ldr	r2, [pc, #560]	; (8002750 <HAL_DMA_IRQHandler+0x2cc>)
 800251e:	687b      	ldr	r3, [r7, #4]
 8002520:	681b      	ldr	r3, [r3, #0]
 8002522:	0019      	movs	r1, r3
 8002524:	4b8b      	ldr	r3, [pc, #556]	; (8002754 <HAL_DMA_IRQHandler+0x2d0>)
 8002526:	4299      	cmp	r1, r3
 8002528:	d02e      	beq.n	8002588 <HAL_DMA_IRQHandler+0x104>
 800252a:	687b      	ldr	r3, [r7, #4]
 800252c:	681b      	ldr	r3, [r3, #0]
 800252e:	0019      	movs	r1, r3
 8002530:	4b89      	ldr	r3, [pc, #548]	; (8002758 <HAL_DMA_IRQHandler+0x2d4>)
 8002532:	4299      	cmp	r1, r3
 8002534:	d026      	beq.n	8002584 <HAL_DMA_IRQHandler+0x100>
 8002536:	687b      	ldr	r3, [r7, #4]
 8002538:	681b      	ldr	r3, [r3, #0]
 800253a:	0019      	movs	r1, r3
 800253c:	4b87      	ldr	r3, [pc, #540]	; (800275c <HAL_DMA_IRQHandler+0x2d8>)
 800253e:	4299      	cmp	r1, r3
 8002540:	d01d      	beq.n	800257e <HAL_DMA_IRQHandler+0xfa>
 8002542:	687b      	ldr	r3, [r7, #4]
 8002544:	681b      	ldr	r3, [r3, #0]
 8002546:	0019      	movs	r1, r3
 8002548:	4b85      	ldr	r3, [pc, #532]	; (8002760 <HAL_DMA_IRQHandler+0x2dc>)
 800254a:	4299      	cmp	r1, r3
 800254c:	d014      	beq.n	8002578 <HAL_DMA_IRQHandler+0xf4>
 800254e:	687b      	ldr	r3, [r7, #4]
 8002550:	681b      	ldr	r3, [r3, #0]
 8002552:	0019      	movs	r1, r3
 8002554:	4b83      	ldr	r3, [pc, #524]	; (8002764 <HAL_DMA_IRQHandler+0x2e0>)
 8002556:	4299      	cmp	r1, r3
 8002558:	d00b      	beq.n	8002572 <HAL_DMA_IRQHandler+0xee>
 800255a:	687b      	ldr	r3, [r7, #4]
 800255c:	681b      	ldr	r3, [r3, #0]
 800255e:	0019      	movs	r1, r3
 8002560:	4b81      	ldr	r3, [pc, #516]	; (8002768 <HAL_DMA_IRQHandler+0x2e4>)
 8002562:	4299      	cmp	r1, r3
 8002564:	d102      	bne.n	800256c <HAL_DMA_IRQHandler+0xe8>
 8002566:	2380      	movs	r3, #128	; 0x80
 8002568:	041b      	lsls	r3, r3, #16
 800256a:	e00e      	b.n	800258a <HAL_DMA_IRQHandler+0x106>
 800256c:	2380      	movs	r3, #128	; 0x80
 800256e:	051b      	lsls	r3, r3, #20
 8002570:	e00b      	b.n	800258a <HAL_DMA_IRQHandler+0x106>
 8002572:	2380      	movs	r3, #128	; 0x80
 8002574:	031b      	lsls	r3, r3, #12
 8002576:	e008      	b.n	800258a <HAL_DMA_IRQHandler+0x106>
 8002578:	2380      	movs	r3, #128	; 0x80
 800257a:	021b      	lsls	r3, r3, #8
 800257c:	e005      	b.n	800258a <HAL_DMA_IRQHandler+0x106>
 800257e:	2380      	movs	r3, #128	; 0x80
 8002580:	011b      	lsls	r3, r3, #4
 8002582:	e002      	b.n	800258a <HAL_DMA_IRQHandler+0x106>
 8002584:	2380      	movs	r3, #128	; 0x80
 8002586:	e000      	b.n	800258a <HAL_DMA_IRQHandler+0x106>
 8002588:	2308      	movs	r3, #8
 800258a:	6053      	str	r3, [r2, #4]
    
      /* Update error code */
      hdma->ErrorCode |= HAL_DMA_ERROR_TE;
 800258c:	687b      	ldr	r3, [r7, #4]
 800258e:	6bdb      	ldr	r3, [r3, #60]	; 0x3c
 8002590:	2201      	movs	r2, #1
 8002592:	431a      	orrs	r2, r3
 8002594:	687b      	ldr	r3, [r7, #4]
 8002596:	63da      	str	r2, [r3, #60]	; 0x3c

      /* Change the DMA state */
      hdma->State = HAL_DMA_STATE_ERROR;    
 8002598:	687b      	ldr	r3, [r7, #4]
 800259a:	2225      	movs	r2, #37	; 0x25
 800259c:	2104      	movs	r1, #4
 800259e:	5499      	strb	r1, [r3, r2]
    
      /* Process Unlocked */
      __HAL_UNLOCK(hdma); 
 80025a0:	687b      	ldr	r3, [r7, #4]
 80025a2:	2224      	movs	r2, #36	; 0x24
 80025a4:	2100      	movs	r1, #0
 80025a6:	5499      	strb	r1, [r3, r2]
    
      if (hdma->XferErrorCallback != NULL)
 80025a8:	687b      	ldr	r3, [r7, #4]
 80025aa:	6b5b      	ldr	r3, [r3, #52]	; 0x34
 80025ac:	2b00      	cmp	r3, #0
 80025ae:	d004      	beq.n	80025ba <HAL_DMA_IRQHandler+0x136>
      {
        /* Transfer error callback */
        hdma->XferErrorCallback(hdma);
 80025b0:	687b      	ldr	r3, [r7, #4]
 80025b2:	6b5b      	ldr	r3, [r3, #52]	; 0x34
 80025b4:	687a      	ldr	r2, [r7, #4]
 80025b6:	0010      	movs	r0, r2
 80025b8:	4798      	blx	r3
      }
    }
  }

  /* Half Transfer Complete Interrupt management ******************************/
  if(__HAL_DMA_GET_FLAG(hdma, __HAL_DMA_GET_HT_FLAG_INDEX(hdma)) != RESET)
 80025ba:	4b65      	ldr	r3, [pc, #404]	; (8002750 <HAL_DMA_IRQHandler+0x2cc>)
 80025bc:	681a      	ldr	r2, [r3, #0]
 80025be:	687b      	ldr	r3, [r7, #4]
 80025c0:	681b      	ldr	r3, [r3, #0]
 80025c2:	0019      	movs	r1, r3
 80025c4:	4b63      	ldr	r3, [pc, #396]	; (8002754 <HAL_DMA_IRQHandler+0x2d0>)
 80025c6:	4299      	cmp	r1, r3
 80025c8:	d02e      	beq.n	8002628 <HAL_DMA_IRQHandler+0x1a4>
 80025ca:	687b      	ldr	r3, [r7, #4]
 80025cc:	681b      	ldr	r3, [r3, #0]
 80025ce:	0019      	movs	r1, r3
 80025d0:	4b61      	ldr	r3, [pc, #388]	; (8002758 <HAL_DMA_IRQHandler+0x2d4>)
 80025d2:	4299      	cmp	r1, r3
 80025d4:	d026      	beq.n	8002624 <HAL_DMA_IRQHandler+0x1a0>
 80025d6:	687b      	ldr	r3, [r7, #4]
 80025d8:	681b      	ldr	r3, [r3, #0]
 80025da:	0019      	movs	r1, r3
 80025dc:	4b5f      	ldr	r3, [pc, #380]	; (800275c <HAL_DMA_IRQHandler+0x2d8>)
 80025de:	4299      	cmp	r1, r3
 80025e0:	d01d      	beq.n	800261e <HAL_DMA_IRQHandler+0x19a>
 80025e2:	687b      	ldr	r3, [r7, #4]
 80025e4:	681b      	ldr	r3, [r3, #0]
 80025e6:	0019      	movs	r1, r3
 80025e8:	4b5d      	ldr	r3, [pc, #372]	; (8002760 <HAL_DMA_IRQHandler+0x2dc>)
 80025ea:	4299      	cmp	r1, r3
 80025ec:	d014      	beq.n	8002618 <HAL_DMA_IRQHandler+0x194>
 80025ee:	687b      	ldr	r3, [r7, #4]
 80025f0:	681b      	ldr	r3, [r3, #0]
 80025f2:	0019      	movs	r1, r3
 80025f4:	4b5b      	ldr	r3, [pc, #364]	; (8002764 <HAL_DMA_IRQHandler+0x2e0>)
 80025f6:	4299      	cmp	r1, r3
 80025f8:	d00b      	beq.n	8002612 <HAL_DMA_IRQHandler+0x18e>
 80025fa:	687b      	ldr	r3, [r7, #4]
 80025fc:	681b      	ldr	r3, [r3, #0]
 80025fe:	0019      	movs	r1, r3
 8002600:	4b59      	ldr	r3, [pc, #356]	; (8002768 <HAL_DMA_IRQHandler+0x2e4>)
 8002602:	4299      	cmp	r1, r3
 8002604:	d102      	bne.n	800260c <HAL_DMA_IRQHandler+0x188>
 8002606:	2380      	movs	r3, #128	; 0x80
 8002608:	03db      	lsls	r3, r3, #15
 800260a:	e00e      	b.n	800262a <HAL_DMA_IRQHandler+0x1a6>
 800260c:	2380      	movs	r3, #128	; 0x80
 800260e:	04db      	lsls	r3, r3, #19
 8002610:	e00b      	b.n	800262a <HAL_DMA_IRQHandler+0x1a6>
 8002612:	2380      	movs	r3, #128	; 0x80
 8002614:	02db      	lsls	r3, r3, #11
 8002616:	e008      	b.n	800262a <HAL_DMA_IRQHandler+0x1a6>
 8002618:	2380      	movs	r3, #128	; 0x80
 800261a:	01db      	lsls	r3, r3, #7
 800261c:	e005      	b.n	800262a <HAL_DMA_IRQHandler+0x1a6>
 800261e:	2380      	movs	r3, #128	; 0x80
 8002620:	00db      	lsls	r3, r3, #3
 8002622:	e002      	b.n	800262a <HAL_DMA_IRQHandler+0x1a6>
 8002624:	2340      	movs	r3, #64	; 0x40
 8002626:	e000      	b.n	800262a <HAL_DMA_IRQHandler+0x1a6>
 8002628:	2304      	movs	r3, #4
 800262a:	4013      	ands	r3, r2
 800262c:	d058      	beq.n	80026e0 <HAL_DMA_IRQHandler+0x25c>
  {
    if(__HAL_DMA_GET_IT_SOURCE(hdma, DMA_IT_HT) != RESET)
 800262e:	687b      	ldr	r3, [r7, #4]
 8002630:	681b      	ldr	r3, [r3, #0]
 8002632:	681b      	ldr	r3, [r3, #0]
 8002634:	2204      	movs	r2, #4
 8002636:	4013      	ands	r3, r2
 8002638:	d052      	beq.n	80026e0 <HAL_DMA_IRQHandler+0x25c>
    { 
      /* Disable the half transfer interrupt if the DMA mode is not CIRCULAR */
      if((hdma->Instance->CCR & DMA_CCR_CIRC) == 0U)
 800263a:	687b      	ldr	r3, [r7, #4]
 800263c:	681b      	ldr	r3, [r3, #0]
 800263e:	681b      	ldr	r3, [r3, #0]
 8002640:	2220      	movs	r2, #32
 8002642:	4013      	ands	r3, r2
 8002644:	d107      	bne.n	8002656 <HAL_DMA_IRQHandler+0x1d2>
      {
        /* Disable the half transfer interrupt */
        __HAL_DMA_DISABLE_IT(hdma, DMA_IT_HT);
 8002646:	687b      	ldr	r3, [r7, #4]
 8002648:	681b      	ldr	r3, [r3, #0]
 800264a:	687a      	ldr	r2, [r7, #4]
 800264c:	6812      	ldr	r2, [r2, #0]
 800264e:	6812      	ldr	r2, [r2, #0]
 8002650:	2104      	movs	r1, #4
 8002652:	438a      	bics	r2, r1
 8002654:	601a      	str	r2, [r3, #0]
      }
      /* Clear the half transfer complete flag */
      __HAL_DMA_CLEAR_FLAG(hdma, __HAL_DMA_GET_HT_FLAG_INDEX(hdma));
 8002656:	4a3e      	ldr	r2, [pc, #248]	; (8002750 <HAL_DMA_IRQHandler+0x2cc>)
 8002658:	687b      	ldr	r3, [r7, #4]
 800265a:	681b      	ldr	r3, [r3, #0]
 800265c:	0019      	movs	r1, r3
 800265e:	4b3d      	ldr	r3, [pc, #244]	; (8002754 <HAL_DMA_IRQHandler+0x2d0>)
 8002660:	4299      	cmp	r1, r3
 8002662:	d02e      	beq.n	80026c2 <HAL_DMA_IRQHandler+0x23e>
 8002664:	687b      	ldr	r3, [r7, #4]
 8002666:	681b      	ldr	r3, [r3, #0]
 8002668:	0019      	movs	r1, r3
 800266a:	4b3b      	ldr	r3, [pc, #236]	; (8002758 <HAL_DMA_IRQHandler+0x2d4>)
 800266c:	4299      	cmp	r1, r3
 800266e:	d026      	beq.n	80026be <HAL_DMA_IRQHandler+0x23a>
 8002670:	687b      	ldr	r3, [r7, #4]
 8002672:	681b      	ldr	r3, [r3, #0]
 8002674:	0019      	movs	r1, r3
 8002676:	4b39      	ldr	r3, [pc, #228]	; (800275c <HAL_DMA_IRQHandler+0x2d8>)
 8002678:	4299      	cmp	r1, r3
 800267a:	d01d      	beq.n	80026b8 <HAL_DMA_IRQHandler+0x234>
 800267c:	687b      	ldr	r3, [r7, #4]
 800267e:	681b      	ldr	r3, [r3, #0]
 8002680:	0019      	movs	r1, r3
 8002682:	4b37      	ldr	r3, [pc, #220]	; (8002760 <HAL_DMA_IRQHandler+0x2dc>)
 8002684:	4299      	cmp	r1, r3
 8002686:	d014      	beq.n	80026b2 <HAL_DMA_IRQHandler+0x22e>
 8002688:	687b      	ldr	r3, [r7, #4]
 800268a:	681b      	ldr	r3, [r3, #0]
 800268c:	0019      	movs	r1, r3
 800268e:	4b35      	ldr	r3, [pc, #212]	; (8002764 <HAL_DMA_IRQHandler+0x2e0>)
 8002690:	4299      	cmp	r1, r3
 8002692:	d00b      	beq.n	80026ac <HAL_DMA_IRQHandler+0x228>
 8002694:	687b      	ldr	r3, [r7, #4]
 8002696:	681b      	ldr	r3, [r3, #0]
 8002698:	0019      	movs	r1, r3
 800269a:	4b33      	ldr	r3, [pc, #204]	; (8002768 <HAL_DMA_IRQHandler+0x2e4>)
 800269c:	4299      	cmp	r1, r3
 800269e:	d102      	bne.n	80026a6 <HAL_DMA_IRQHandler+0x222>
 80026a0:	2380      	movs	r3, #128	; 0x80
 80026a2:	03db      	lsls	r3, r3, #15
 80026a4:	e00e      	b.n	80026c4 <HAL_DMA_IRQHandler+0x240>
 80026a6:	2380      	movs	r3, #128	; 0x80
 80026a8:	04db      	lsls	r3, r3, #19
 80026aa:	e00b      	b.n	80026c4 <HAL_DMA_IRQHandler+0x240>
 80026ac:	2380      	movs	r3, #128	; 0x80
 80026ae:	02db      	lsls	r3, r3, #11
 80026b0:	e008      	b.n	80026c4 <HAL_DMA_IRQHandler+0x240>
 80026b2:	2380      	movs	r3, #128	; 0x80
 80026b4:	01db      	lsls	r3, r3, #7
 80026b6:	e005      	b.n	80026c4 <HAL_DMA_IRQHandler+0x240>
 80026b8:	2380      	movs	r3, #128	; 0x80
 80026ba:	00db      	lsls	r3, r3, #3
 80026bc:	e002      	b.n	80026c4 <HAL_DMA_IRQHandler+0x240>
 80026be:	2340      	movs	r3, #64	; 0x40
 80026c0:	e000      	b.n	80026c4 <HAL_DMA_IRQHandler+0x240>
 80026c2:	2304      	movs	r3, #4
 80026c4:	6053      	str	r3, [r2, #4]

      /* Change DMA peripheral state */
      hdma->State = HAL_DMA_STATE_READY_HALF;
 80026c6:	687b      	ldr	r3, [r7, #4]
 80026c8:	2225      	movs	r2, #37	; 0x25
 80026ca:	2105      	movs	r1, #5
 80026cc:	5499      	strb	r1, [r3, r2]

      if(hdma->XferHalfCpltCallback != NULL)
 80026ce:	687b      	ldr	r3, [r7, #4]
 80026d0:	6b1b      	ldr	r3, [r3, #48]	; 0x30
 80026d2:	2b00      	cmp	r3, #0
 80026d4:	d004      	beq.n	80026e0 <HAL_DMA_IRQHandler+0x25c>
      {
        /* Half transfer callback */
        hdma->XferHalfCpltCallback(hdma);
 80026d6:	687b      	ldr	r3, [r7, #4]
 80026d8:	6b1b      	ldr	r3, [r3, #48]	; 0x30
 80026da:	687a      	ldr	r2, [r7, #4]
 80026dc:	0010      	movs	r0, r2
 80026de:	4798      	blx	r3
      }
    }
  }
  
  /* Transfer Complete Interrupt management ***********************************/
  if(__HAL_DMA_GET_FLAG(hdma, __HAL_DMA_GET_TC_FLAG_INDEX(hdma)) != RESET)
 80026e0:	4b1b      	ldr	r3, [pc, #108]	; (8002750 <HAL_DMA_IRQHandler+0x2cc>)
 80026e2:	681a      	ldr	r2, [r3, #0]
 80026e4:	687b      	ldr	r3, [r7, #4]
 80026e6:	681b      	ldr	r3, [r3, #0]
 80026e8:	0019      	movs	r1, r3
 80026ea:	4b1a      	ldr	r3, [pc, #104]	; (8002754 <HAL_DMA_IRQHandler+0x2d0>)
 80026ec:	4299      	cmp	r1, r3
 80026ee:	d03d      	beq.n	800276c <HAL_DMA_IRQHandler+0x2e8>
 80026f0:	687b      	ldr	r3, [r7, #4]
 80026f2:	681b      	ldr	r3, [r3, #0]
 80026f4:	0019      	movs	r1, r3
 80026f6:	4b18      	ldr	r3, [pc, #96]	; (8002758 <HAL_DMA_IRQHandler+0x2d4>)
 80026f8:	4299      	cmp	r1, r3
 80026fa:	d026      	beq.n	800274a <HAL_DMA_IRQHandler+0x2c6>
 80026fc:	687b      	ldr	r3, [r7, #4]
 80026fe:	681b      	ldr	r3, [r3, #0]
 8002700:	0019      	movs	r1, r3
 8002702:	4b16      	ldr	r3, [pc, #88]	; (800275c <HAL_DMA_IRQHandler+0x2d8>)
 8002704:	4299      	cmp	r1, r3
 8002706:	d01d      	beq.n	8002744 <HAL_DMA_IRQHandler+0x2c0>
 8002708:	687b      	ldr	r3, [r7, #4]
 800270a:	681b      	ldr	r3, [r3, #0]
 800270c:	0019      	movs	r1, r3
 800270e:	4b14      	ldr	r3, [pc, #80]	; (8002760 <HAL_DMA_IRQHandler+0x2dc>)
 8002710:	4299      	cmp	r1, r3
 8002712:	d014      	beq.n	800273e <HAL_DMA_IRQHandler+0x2ba>
 8002714:	687b      	ldr	r3, [r7, #4]
 8002716:	681b      	ldr	r3, [r3, #0]
 8002718:	0019      	movs	r1, r3
 800271a:	4b12      	ldr	r3, [pc, #72]	; (8002764 <HAL_DMA_IRQHandler+0x2e0>)
 800271c:	4299      	cmp	r1, r3
 800271e:	d00b      	beq.n	8002738 <HAL_DMA_IRQHandler+0x2b4>
 8002720:	687b      	ldr	r3, [r7, #4]
 8002722:	681b      	ldr	r3, [r3, #0]
 8002724:	0019      	movs	r1, r3
 8002726:	4b10      	ldr	r3, [pc, #64]	; (8002768 <HAL_DMA_IRQHandler+0x2e4>)
 8002728:	4299      	cmp	r1, r3
 800272a:	d102      	bne.n	8002732 <HAL_DMA_IRQHandler+0x2ae>
 800272c:	2380      	movs	r3, #128	; 0x80
 800272e:	039b      	lsls	r3, r3, #14
 8002730:	e01d      	b.n	800276e <HAL_DMA_IRQHandler+0x2ea>
 8002732:	2380      	movs	r3, #128	; 0x80
 8002734:	049b      	lsls	r3, r3, #18
 8002736:	e01a      	b.n	800276e <HAL_DMA_IRQHandler+0x2ea>
 8002738:	2380      	movs	r3, #128	; 0x80
 800273a:	029b      	lsls	r3, r3, #10
 800273c:	e017      	b.n	800276e <HAL_DMA_IRQHandler+0x2ea>
 800273e:	2380      	movs	r3, #128	; 0x80
 8002740:	019b      	lsls	r3, r3, #6
 8002742:	e014      	b.n	800276e <HAL_DMA_IRQHandler+0x2ea>
 8002744:	2380      	movs	r3, #128	; 0x80
 8002746:	009b      	lsls	r3, r3, #2
 8002748:	e011      	b.n	800276e <HAL_DMA_IRQHandler+0x2ea>
 800274a:	2320      	movs	r3, #32
 800274c:	e00f      	b.n	800276e <HAL_DMA_IRQHandler+0x2ea>
 800274e:	46c0      	nop			; (mov r8, r8)
 8002750:	40020000 	.word	0x40020000
 8002754:	40020008 	.word	0x40020008
 8002758:	4002001c 	.word	0x4002001c
 800275c:	40020030 	.word	0x40020030
 8002760:	40020044 	.word	0x40020044
 8002764:	40020058 	.word	0x40020058
 8002768:	4002006c 	.word	0x4002006c
 800276c:	2302      	movs	r3, #2
 800276e:	4013      	ands	r3, r2
 8002770:	d060      	beq.n	8002834 <HAL_DMA_IRQHandler+0x3b0>
  {
    if(__HAL_DMA_GET_IT_SOURCE(hdma, DMA_IT_TC) != RESET)
 8002772:	687b      	ldr	r3, [r7, #4]
 8002774:	681b      	ldr	r3, [r3, #0]
 8002776:	681b      	ldr	r3, [r3, #0]
 8002778:	2202      	movs	r2, #2
 800277a:	4013      	ands	r3, r2
 800277c:	d05a      	beq.n	8002834 <HAL_DMA_IRQHandler+0x3b0>
    {
      if((hdma->Instance->CCR & DMA_CCR_CIRC) == 0U)
 800277e:	687b      	ldr	r3, [r7, #4]
 8002780:	681b      	ldr	r3, [r3, #0]
 8002782:	681b      	ldr	r3, [r3, #0]
 8002784:	2220      	movs	r2, #32
 8002786:	4013      	ands	r3, r2
 8002788:	d107      	bne.n	800279a <HAL_DMA_IRQHandler+0x316>
      {
        /* Disable the transfer complete interrupt */
        __HAL_DMA_DISABLE_IT(hdma, DMA_IT_TC);
 800278a:	687b      	ldr	r3, [r7, #4]
 800278c:	681b      	ldr	r3, [r3, #0]
 800278e:	687a      	ldr	r2, [r7, #4]
 8002790:	6812      	ldr	r2, [r2, #0]
 8002792:	6812      	ldr	r2, [r2, #0]
 8002794:	2102      	movs	r1, #2
 8002796:	438a      	bics	r2, r1
 8002798:	601a      	str	r2, [r3, #0]
      }
      /* Clear the transfer complete flag */
      __HAL_DMA_CLEAR_FLAG(hdma, __HAL_DMA_GET_TC_FLAG_INDEX(hdma));
 800279a:	4a28      	ldr	r2, [pc, #160]	; (800283c <HAL_DMA_IRQHandler+0x3b8>)
 800279c:	687b      	ldr	r3, [r7, #4]
 800279e:	681b      	ldr	r3, [r3, #0]
 80027a0:	0019      	movs	r1, r3
 80027a2:	4b27      	ldr	r3, [pc, #156]	; (8002840 <HAL_DMA_IRQHandler+0x3bc>)
 80027a4:	4299      	cmp	r1, r3
 80027a6:	d02e      	beq.n	8002806 <HAL_DMA_IRQHandler+0x382>
 80027a8:	687b      	ldr	r3, [r7, #4]
 80027aa:	681b      	ldr	r3, [r3, #0]
 80027ac:	0019      	movs	r1, r3
 80027ae:	4b25      	ldr	r3, [pc, #148]	; (8002844 <HAL_DMA_IRQHandler+0x3c0>)
 80027b0:	4299      	cmp	r1, r3
 80027b2:	d026      	beq.n	8002802 <HAL_DMA_IRQHandler+0x37e>
 80027b4:	687b      	ldr	r3, [r7, #4]
 80027b6:	681b      	ldr	r3, [r3, #0]
 80027b8:	0019      	movs	r1, r3
 80027ba:	4b23      	ldr	r3, [pc, #140]	; (8002848 <HAL_DMA_IRQHandler+0x3c4>)
 80027bc:	4299      	cmp	r1, r3
 80027be:	d01d      	beq.n	80027fc <HAL_DMA_IRQHandler+0x378>
 80027c0:	687b      	ldr	r3, [r7, #4]
 80027c2:	681b      	ldr	r3, [r3, #0]
 80027c4:	0019      	movs	r1, r3
 80027c6:	4b21      	ldr	r3, [pc, #132]	; (800284c <HAL_DMA_IRQHandler+0x3c8>)
 80027c8:	4299      	cmp	r1, r3
 80027ca:	d014      	beq.n	80027f6 <HAL_DMA_IRQHandler+0x372>
 80027cc:	687b      	ldr	r3, [r7, #4]
 80027ce:	681b      	ldr	r3, [r3, #0]
 80027d0:	0019      	movs	r1, r3
 80027d2:	4b1f      	ldr	r3, [pc, #124]	; (8002850 <HAL_DMA_IRQHandler+0x3cc>)
 80027d4:	4299      	cmp	r1, r3
 80027d6:	d00b      	beq.n	80027f0 <HAL_DMA_IRQHandler+0x36c>
 80027d8:	687b      	ldr	r3, [r7, #4]
 80027da:	681b      	ldr	r3, [r3, #0]
 80027dc:	0019      	movs	r1, r3
 80027de:	4b1d      	ldr	r3, [pc, #116]	; (8002854 <HAL_DMA_IRQHandler+0x3d0>)
 80027e0:	4299      	cmp	r1, r3
 80027e2:	d102      	bne.n	80027ea <HAL_DMA_IRQHandler+0x366>
 80027e4:	2380      	movs	r3, #128	; 0x80
 80027e6:	039b      	lsls	r3, r3, #14
 80027e8:	e00e      	b.n	8002808 <HAL_DMA_IRQHandler+0x384>
 80027ea:	2380      	movs	r3, #128	; 0x80
 80027ec:	049b      	lsls	r3, r3, #18
 80027ee:	e00b      	b.n	8002808 <HAL_DMA_IRQHandler+0x384>
 80027f0:	2380      	movs	r3, #128	; 0x80
 80027f2:	029b      	lsls	r3, r3, #10
 80027f4:	e008      	b.n	8002808 <HAL_DMA_IRQHandler+0x384>
 80027f6:	2380      	movs	r3, #128	; 0x80
 80027f8:	019b      	lsls	r3, r3, #6
 80027fa:	e005      	b.n	8002808 <HAL_DMA_IRQHandler+0x384>
 80027fc:	2380      	movs	r3, #128	; 0x80
 80027fe:	009b      	lsls	r3, r3, #2
 8002800:	e002      	b.n	8002808 <HAL_DMA_IRQHandler+0x384>
 8002802:	2320      	movs	r3, #32
 8002804:	e000      	b.n	8002808 <HAL_DMA_IRQHandler+0x384>
 8002806:	2302      	movs	r3, #2
 8002808:	6053      	str	r3, [r2, #4]
    
      /* Update error code */
      hdma->ErrorCode |= HAL_DMA_ERROR_NONE;
 800280a:	687b      	ldr	r3, [r7, #4]
 800280c:	6bda      	ldr	r2, [r3, #60]	; 0x3c
 800280e:	687b      	ldr	r3, [r7, #4]
 8002810:	63da      	str	r2, [r3, #60]	; 0x3c

      /* Change the DMA state */
      hdma->State = HAL_DMA_STATE_READY;    
 8002812:	687b      	ldr	r3, [r7, #4]
 8002814:	2225      	movs	r2, #37	; 0x25
 8002816:	2101      	movs	r1, #1
 8002818:	5499      	strb	r1, [r3, r2]
    
      /* Process Unlocked */
      __HAL_UNLOCK(hdma);
 800281a:	687b      	ldr	r3, [r7, #4]
 800281c:	2224      	movs	r2, #36	; 0x24
 800281e:	2100      	movs	r1, #0
 8002820:	5499      	strb	r1, [r3, r2]
    
      if(hdma->XferCpltCallback != NULL)
 8002822:	687b      	ldr	r3, [r7, #4]
 8002824:	6adb      	ldr	r3, [r3, #44]	; 0x2c
 8002826:	2b00      	cmp	r3, #0
 8002828:	d004      	beq.n	8002834 <HAL_DMA_IRQHandler+0x3b0>
      {       
        /* Transfer complete callback */
        hdma->XferCpltCallback(hdma);
 800282a:	687b      	ldr	r3, [r7, #4]
 800282c:	6adb      	ldr	r3, [r3, #44]	; 0x2c
 800282e:	687a      	ldr	r2, [r7, #4]
 8002830:	0010      	movs	r0, r2
 8002832:	4798      	blx	r3
      }
    }
  }
}  
 8002834:	46c0      	nop			; (mov r8, r8)
 8002836:	46bd      	mov	sp, r7
 8002838:	b002      	add	sp, #8
 800283a:	bd80      	pop	{r7, pc}
 800283c:	40020000 	.word	0x40020000
 8002840:	40020008 	.word	0x40020008
 8002844:	4002001c 	.word	0x4002001c
 8002848:	40020030 	.word	0x40020030
 800284c:	40020044 	.word	0x40020044
 8002850:	40020058 	.word	0x40020058
 8002854:	4002006c 	.word	0x4002006c

08002858 <DMA_SetConfig>:
  * @param  DstAddress: The destination memory Buffer address
  * @param  DataLength: The length of data to be transferred from source to destination
  * @retval HAL status
  */
static void DMA_SetConfig(DMA_HandleTypeDef *hdma, uint32_t SrcAddress, uint32_t DstAddress, uint32_t DataLength)
{  
 8002858:	b580      	push	{r7, lr}
 800285a:	b084      	sub	sp, #16
 800285c:	af00      	add	r7, sp, #0
 800285e:	60f8      	str	r0, [r7, #12]
 8002860:	60b9      	str	r1, [r7, #8]
 8002862:	607a      	str	r2, [r7, #4]
 8002864:	603b      	str	r3, [r7, #0]
  /* Configure DMA Channel data length */
  hdma->Instance->CNDTR = DataLength;
 8002866:	68fb      	ldr	r3, [r7, #12]
 8002868:	681b      	ldr	r3, [r3, #0]
 800286a:	683a      	ldr	r2, [r7, #0]
 800286c:	605a      	str	r2, [r3, #4]
  
  /* Peripheral to Memory */
  if((hdma->Init.Direction) == DMA_MEMORY_TO_PERIPH)
 800286e:	68fb      	ldr	r3, [r7, #12]
 8002870:	689b      	ldr	r3, [r3, #8]
 8002872:	2b10      	cmp	r3, #16
 8002874:	d108      	bne.n	8002888 <DMA_SetConfig+0x30>
  {   
    /* Configure DMA Channel destination address */
    hdma->Instance->CPAR = DstAddress;
 8002876:	68fb      	ldr	r3, [r7, #12]
 8002878:	681b      	ldr	r3, [r3, #0]
 800287a:	687a      	ldr	r2, [r7, #4]
 800287c:	609a      	str	r2, [r3, #8]
    
    /* Configure DMA Channel source address */
    hdma->Instance->CMAR = SrcAddress;
 800287e:	68fb      	ldr	r3, [r7, #12]
 8002880:	681b      	ldr	r3, [r3, #0]
 8002882:	68ba      	ldr	r2, [r7, #8]
 8002884:	60da      	str	r2, [r3, #12]
    hdma->Instance->CPAR = SrcAddress;
    
    /* Configure DMA Channel destination address */
    hdma->Instance->CMAR = DstAddress;
  }
}
 8002886:	e007      	b.n	8002898 <DMA_SetConfig+0x40>
    hdma->Instance->CPAR = SrcAddress;
 8002888:	68fb      	ldr	r3, [r7, #12]
 800288a:	681b      	ldr	r3, [r3, #0]
 800288c:	68ba      	ldr	r2, [r7, #8]
 800288e:	609a      	str	r2, [r3, #8]
    hdma->Instance->CMAR = DstAddress;
 8002890:	68fb      	ldr	r3, [r7, #12]
 8002892:	681b      	ldr	r3, [r3, #0]
 8002894:	687a      	ldr	r2, [r7, #4]
 8002896:	60da      	str	r2, [r3, #12]
}
 8002898:	46c0      	nop			; (mov r8, r8)
 800289a:	46bd      	mov	sp, r7
 800289c:	b004      	add	sp, #16
 800289e:	bd80      	pop	{r7, pc}

080028a0 <HAL_GPIO_Init>:
  * @param  GPIO_Init: pointer to a GPIO_InitTypeDef structure that contains
  *                    the configuration information for the specified GPIO peripheral.
  * @retval None
  */
void HAL_GPIO_Init(GPIO_TypeDef  *GPIOx, GPIO_InitTypeDef *GPIO_Init)
{
 80028a0:	b580      	push	{r7, lr}
 80028a2:	b086      	sub	sp, #24
 80028a4:	af00      	add	r7, sp, #0
 80028a6:	6078      	str	r0, [r7, #4]
 80028a8:	6039      	str	r1, [r7, #0]
  uint32_t position = 0x00U;
 80028aa:	2300      	movs	r3, #0
 80028ac:	617b      	str	r3, [r7, #20]
  uint32_t iocurrent = 0x00U;
 80028ae:	2300      	movs	r3, #0
 80028b0:	60fb      	str	r3, [r7, #12]
  uint32_t temp = 0x00U;
 80028b2:	2300      	movs	r3, #0
 80028b4:	613b      	str	r3, [r7, #16]
  assert_param(IS_GPIO_MODE(GPIO_Init->Mode));
  assert_param(IS_GPIO_PULL(GPIO_Init->Pull));
  assert_param(IS_GPIO_PIN_AVAILABLE(GPIOx,(GPIO_Init->Pin)));

  /* Configure the port pins */
  while (((GPIO_Init->Pin) >> position) != 0)
 80028b6:	e14f      	b.n	8002b58 <HAL_GPIO_Init+0x2b8>
  {
    /* Get the IO position */
    iocurrent = (GPIO_Init->Pin) & (1U << position);
 80028b8:	683b      	ldr	r3, [r7, #0]
 80028ba:	681b      	ldr	r3, [r3, #0]
 80028bc:	2101      	movs	r1, #1
 80028be:	697a      	ldr	r2, [r7, #20]
 80028c0:	4091      	lsls	r1, r2
 80028c2:	000a      	movs	r2, r1
 80028c4:	4013      	ands	r3, r2
 80028c6:	60fb      	str	r3, [r7, #12]
    
    if(iocurrent)
 80028c8:	68fb      	ldr	r3, [r7, #12]
 80028ca:	2b00      	cmp	r3, #0
 80028cc:	d100      	bne.n	80028d0 <HAL_GPIO_Init+0x30>
 80028ce:	e140      	b.n	8002b52 <HAL_GPIO_Init+0x2b2>
    {
      /*--------------------- GPIO Mode Configuration ------------------------*/
      /* In case of Alternate function mode selection */
      if((GPIO_Init->Mode == GPIO_MODE_AF_PP) || (GPIO_Init->Mode == GPIO_MODE_AF_OD)) 
 80028d0:	683b      	ldr	r3, [r7, #0]
 80028d2:	685b      	ldr	r3, [r3, #4]
 80028d4:	2b02      	cmp	r3, #2
 80028d6:	d003      	beq.n	80028e0 <HAL_GPIO_Init+0x40>
 80028d8:	683b      	ldr	r3, [r7, #0]
 80028da:	685b      	ldr	r3, [r3, #4]
 80028dc:	2b12      	cmp	r3, #18
 80028de:	d123      	bne.n	8002928 <HAL_GPIO_Init+0x88>
      {
        /* Check if the Alternate function is compliant with the GPIO in use */
        assert_param(IS_GPIO_AF_AVAILABLE(GPIOx,(GPIO_Init->Alternate)));
        /* Configure Alternate function mapped with the current IO */ 
        temp = GPIOx->AFR[position >> 3U];
 80028e0:	697b      	ldr	r3, [r7, #20]
 80028e2:	08da      	lsrs	r2, r3, #3
 80028e4:	687b      	ldr	r3, [r7, #4]
 80028e6:	3208      	adds	r2, #8
 80028e8:	0092      	lsls	r2, r2, #2
 80028ea:	58d3      	ldr	r3, [r2, r3]
 80028ec:	613b      	str	r3, [r7, #16]
        temp &= ~((uint32_t)0xFU << ((uint32_t)(position & (uint32_t)0x07U) * 4U)) ;
 80028ee:	697b      	ldr	r3, [r7, #20]
 80028f0:	2207      	movs	r2, #7
 80028f2:	4013      	ands	r3, r2
 80028f4:	009b      	lsls	r3, r3, #2
 80028f6:	220f      	movs	r2, #15
 80028f8:	409a      	lsls	r2, r3
 80028fa:	0013      	movs	r3, r2
 80028fc:	43da      	mvns	r2, r3
 80028fe:	693b      	ldr	r3, [r7, #16]
 8002900:	4013      	ands	r3, r2
 8002902:	613b      	str	r3, [r7, #16]
        temp |= ((uint32_t)(GPIO_Init->Alternate) << (((uint32_t)position & (uint32_t)0x07U) * 4U)) ;
 8002904:	683b      	ldr	r3, [r7, #0]
 8002906:	691a      	ldr	r2, [r3, #16]
 8002908:	697b      	ldr	r3, [r7, #20]
 800290a:	2107      	movs	r1, #7
 800290c:	400b      	ands	r3, r1
 800290e:	009b      	lsls	r3, r3, #2
 8002910:	409a      	lsls	r2, r3
 8002912:	0013      	movs	r3, r2
 8002914:	693a      	ldr	r2, [r7, #16]
 8002916:	4313      	orrs	r3, r2
 8002918:	613b      	str	r3, [r7, #16]
        GPIOx->AFR[position >> 3U] = temp;
 800291a:	697b      	ldr	r3, [r7, #20]
 800291c:	08da      	lsrs	r2, r3, #3
 800291e:	687b      	ldr	r3, [r7, #4]
 8002920:	3208      	adds	r2, #8
 8002922:	0092      	lsls	r2, r2, #2
 8002924:	6939      	ldr	r1, [r7, #16]
 8002926:	50d1      	str	r1, [r2, r3]
      } 

      /* In case of Output or Alternate function mode selection */
      if((GPIO_Init->Mode == GPIO_MODE_OUTPUT_PP) || (GPIO_Init->Mode == GPIO_MODE_AF_PP) ||
 8002928:	683b      	ldr	r3, [r7, #0]
 800292a:	685b      	ldr	r3, [r3, #4]
 800292c:	2b01      	cmp	r3, #1
 800292e:	d00b      	beq.n	8002948 <HAL_GPIO_Init+0xa8>
 8002930:	683b      	ldr	r3, [r7, #0]
 8002932:	685b      	ldr	r3, [r3, #4]
 8002934:	2b02      	cmp	r3, #2
 8002936:	d007      	beq.n	8002948 <HAL_GPIO_Init+0xa8>
         (GPIO_Init->Mode == GPIO_MODE_OUTPUT_OD) || (GPIO_Init->Mode == GPIO_MODE_AF_OD))
 8002938:	683b      	ldr	r3, [r7, #0]
 800293a:	685b      	ldr	r3, [r3, #4]
      if((GPIO_Init->Mode == GPIO_MODE_OUTPUT_PP) || (GPIO_Init->Mode == GPIO_MODE_AF_PP) ||
 800293c:	2b11      	cmp	r3, #17
 800293e:	d003      	beq.n	8002948 <HAL_GPIO_Init+0xa8>
         (GPIO_Init->Mode == GPIO_MODE_OUTPUT_OD) || (GPIO_Init->Mode == GPIO_MODE_AF_OD))
 8002940:	683b      	ldr	r3, [r7, #0]
 8002942:	685b      	ldr	r3, [r3, #4]
 8002944:	2b12      	cmp	r3, #18
 8002946:	d130      	bne.n	80029aa <HAL_GPIO_Init+0x10a>
      {
        /* Check the Speed parameter */
        assert_param(IS_GPIO_SPEED(GPIO_Init->Speed));
        /* Configure the IO Speed */
        temp = GPIOx->OSPEEDR;
 8002948:	687b      	ldr	r3, [r7, #4]
 800294a:	689b      	ldr	r3, [r3, #8]
 800294c:	613b      	str	r3, [r7, #16]
        temp &= ~(GPIO_OSPEEDER_OSPEED0 << (position * 2U));
 800294e:	697b      	ldr	r3, [r7, #20]
 8002950:	005b      	lsls	r3, r3, #1
 8002952:	2203      	movs	r2, #3
 8002954:	409a      	lsls	r2, r3
 8002956:	0013      	movs	r3, r2
 8002958:	43da      	mvns	r2, r3
 800295a:	693b      	ldr	r3, [r7, #16]
 800295c:	4013      	ands	r3, r2
 800295e:	613b      	str	r3, [r7, #16]
        temp |= (GPIO_Init->Speed << (position * 2U));
 8002960:	683b      	ldr	r3, [r7, #0]
 8002962:	68da      	ldr	r2, [r3, #12]
 8002964:	697b      	ldr	r3, [r7, #20]
 8002966:	005b      	lsls	r3, r3, #1
 8002968:	409a      	lsls	r2, r3
 800296a:	0013      	movs	r3, r2
 800296c:	693a      	ldr	r2, [r7, #16]
 800296e:	4313      	orrs	r3, r2
 8002970:	613b      	str	r3, [r7, #16]
        GPIOx->OSPEEDR = temp;
 8002972:	687b      	ldr	r3, [r7, #4]
 8002974:	693a      	ldr	r2, [r7, #16]
 8002976:	609a      	str	r2, [r3, #8]

        /* Configure the IO Output Type */
        temp= GPIOx->OTYPER;
 8002978:	687b      	ldr	r3, [r7, #4]
 800297a:	685b      	ldr	r3, [r3, #4]
 800297c:	613b      	str	r3, [r7, #16]
        temp &= ~(GPIO_OTYPER_OT_0 << position) ;
 800297e:	2201      	movs	r2, #1
 8002980:	697b      	ldr	r3, [r7, #20]
 8002982:	409a      	lsls	r2, r3
 8002984:	0013      	movs	r3, r2
 8002986:	43da      	mvns	r2, r3
 8002988:	693b      	ldr	r3, [r7, #16]
 800298a:	4013      	ands	r3, r2
 800298c:	613b      	str	r3, [r7, #16]
        temp |= (((GPIO_Init->Mode & GPIO_OUTPUT_TYPE) >> 4U) << position);
 800298e:	683b      	ldr	r3, [r7, #0]
 8002990:	685b      	ldr	r3, [r3, #4]
 8002992:	091b      	lsrs	r3, r3, #4
 8002994:	2201      	movs	r2, #1
 8002996:	401a      	ands	r2, r3
 8002998:	697b      	ldr	r3, [r7, #20]
 800299a:	409a      	lsls	r2, r3
 800299c:	0013      	movs	r3, r2
 800299e:	693a      	ldr	r2, [r7, #16]
 80029a0:	4313      	orrs	r3, r2
 80029a2:	613b      	str	r3, [r7, #16]
        GPIOx->OTYPER = temp;
 80029a4:	687b      	ldr	r3, [r7, #4]
 80029a6:	693a      	ldr	r2, [r7, #16]
 80029a8:	605a      	str	r2, [r3, #4]
      }

      /* Configure IO Direction mode (Input, Output, Alternate or Analog) */
      temp = GPIOx->MODER;
 80029aa:	687b      	ldr	r3, [r7, #4]
 80029ac:	681b      	ldr	r3, [r3, #0]
 80029ae:	613b      	str	r3, [r7, #16]
      temp &= ~(GPIO_MODER_MODE0 << (position * 2U));
 80029b0:	697b      	ldr	r3, [r7, #20]
 80029b2:	005b      	lsls	r3, r3, #1
 80029b4:	2203      	movs	r2, #3
 80029b6:	409a      	lsls	r2, r3
 80029b8:	0013      	movs	r3, r2
 80029ba:	43da      	mvns	r2, r3
 80029bc:	693b      	ldr	r3, [r7, #16]
 80029be:	4013      	ands	r3, r2
 80029c0:	613b      	str	r3, [r7, #16]
      temp |= ((GPIO_Init->Mode & GPIO_MODE) << (position * 2U));
 80029c2:	683b      	ldr	r3, [r7, #0]
 80029c4:	685b      	ldr	r3, [r3, #4]
 80029c6:	2203      	movs	r2, #3
 80029c8:	401a      	ands	r2, r3
 80029ca:	697b      	ldr	r3, [r7, #20]
 80029cc:	005b      	lsls	r3, r3, #1
 80029ce:	409a      	lsls	r2, r3
 80029d0:	0013      	movs	r3, r2
 80029d2:	693a      	ldr	r2, [r7, #16]
 80029d4:	4313      	orrs	r3, r2
 80029d6:	613b      	str	r3, [r7, #16]
      GPIOx->MODER = temp;
 80029d8:	687b      	ldr	r3, [r7, #4]
 80029da:	693a      	ldr	r2, [r7, #16]
 80029dc:	601a      	str	r2, [r3, #0]

      /* Activate the Pull-up or Pull down resistor for the current IO */
      temp = GPIOx->PUPDR;
 80029de:	687b      	ldr	r3, [r7, #4]
 80029e0:	68db      	ldr	r3, [r3, #12]
 80029e2:	613b      	str	r3, [r7, #16]
      temp &= ~(GPIO_PUPDR_PUPD0 << (position * 2U));
 80029e4:	697b      	ldr	r3, [r7, #20]
 80029e6:	005b      	lsls	r3, r3, #1
 80029e8:	2203      	movs	r2, #3
 80029ea:	409a      	lsls	r2, r3
 80029ec:	0013      	movs	r3, r2
 80029ee:	43da      	mvns	r2, r3
 80029f0:	693b      	ldr	r3, [r7, #16]
 80029f2:	4013      	ands	r3, r2
 80029f4:	613b      	str	r3, [r7, #16]
      temp |= ((GPIO_Init->Pull) << (position * 2U)); 
 80029f6:	683b      	ldr	r3, [r7, #0]
 80029f8:	689a      	ldr	r2, [r3, #8]
 80029fa:	697b      	ldr	r3, [r7, #20]
 80029fc:	005b      	lsls	r3, r3, #1
 80029fe:	409a      	lsls	r2, r3
 8002a00:	0013      	movs	r3, r2
 8002a02:	693a      	ldr	r2, [r7, #16]
 8002a04:	4313      	orrs	r3, r2
 8002a06:	613b      	str	r3, [r7, #16]
      GPIOx->PUPDR = temp;
 8002a08:	687b      	ldr	r3, [r7, #4]
 8002a0a:	693a      	ldr	r2, [r7, #16]
 8002a0c:	60da      	str	r2, [r3, #12]

      /*--------------------- EXTI Mode Configuration ------------------------*/
      /* Configure the External Interrupt or event for the current IO */
      if((GPIO_Init->Mode & EXTI_MODE) == EXTI_MODE) 
 8002a0e:	683b      	ldr	r3, [r7, #0]
 8002a10:	685a      	ldr	r2, [r3, #4]
 8002a12:	2380      	movs	r3, #128	; 0x80
 8002a14:	055b      	lsls	r3, r3, #21
 8002a16:	4013      	ands	r3, r2
 8002a18:	d100      	bne.n	8002a1c <HAL_GPIO_Init+0x17c>
 8002a1a:	e09a      	b.n	8002b52 <HAL_GPIO_Init+0x2b2>
      {
        /* Enable SYSCFG Clock */
        __HAL_RCC_SYSCFG_CLK_ENABLE();
 8002a1c:	4b54      	ldr	r3, [pc, #336]	; (8002b70 <HAL_GPIO_Init+0x2d0>)
 8002a1e:	4a54      	ldr	r2, [pc, #336]	; (8002b70 <HAL_GPIO_Init+0x2d0>)
 8002a20:	6b52      	ldr	r2, [r2, #52]	; 0x34
 8002a22:	2101      	movs	r1, #1
 8002a24:	430a      	orrs	r2, r1
 8002a26:	635a      	str	r2, [r3, #52]	; 0x34
        
        temp = SYSCFG->EXTICR[position >> 2U];
 8002a28:	4a52      	ldr	r2, [pc, #328]	; (8002b74 <HAL_GPIO_Init+0x2d4>)
 8002a2a:	697b      	ldr	r3, [r7, #20]
 8002a2c:	089b      	lsrs	r3, r3, #2
 8002a2e:	3302      	adds	r3, #2
 8002a30:	009b      	lsls	r3, r3, #2
 8002a32:	589b      	ldr	r3, [r3, r2]
 8002a34:	613b      	str	r3, [r7, #16]
        CLEAR_BIT(temp, ((uint32_t)0x0FU) << (4U * (position & 0x03U)));
 8002a36:	697b      	ldr	r3, [r7, #20]
 8002a38:	2203      	movs	r2, #3
 8002a3a:	4013      	ands	r3, r2
 8002a3c:	009b      	lsls	r3, r3, #2
 8002a3e:	220f      	movs	r2, #15
 8002a40:	409a      	lsls	r2, r3
 8002a42:	0013      	movs	r3, r2
 8002a44:	43da      	mvns	r2, r3
 8002a46:	693b      	ldr	r3, [r7, #16]
 8002a48:	4013      	ands	r3, r2
 8002a4a:	613b      	str	r3, [r7, #16]
        SET_BIT(temp, (GPIO_GET_INDEX(GPIOx)) << (4 * (position & 0x03U)));
 8002a4c:	687a      	ldr	r2, [r7, #4]
 8002a4e:	23a0      	movs	r3, #160	; 0xa0
 8002a50:	05db      	lsls	r3, r3, #23
 8002a52:	429a      	cmp	r2, r3
 8002a54:	d019      	beq.n	8002a8a <HAL_GPIO_Init+0x1ea>
 8002a56:	687b      	ldr	r3, [r7, #4]
 8002a58:	4a47      	ldr	r2, [pc, #284]	; (8002b78 <HAL_GPIO_Init+0x2d8>)
 8002a5a:	4293      	cmp	r3, r2
 8002a5c:	d013      	beq.n	8002a86 <HAL_GPIO_Init+0x1e6>
 8002a5e:	687b      	ldr	r3, [r7, #4]
 8002a60:	4a46      	ldr	r2, [pc, #280]	; (8002b7c <HAL_GPIO_Init+0x2dc>)
 8002a62:	4293      	cmp	r3, r2
 8002a64:	d00d      	beq.n	8002a82 <HAL_GPIO_Init+0x1e2>
 8002a66:	687b      	ldr	r3, [r7, #4]
 8002a68:	4a45      	ldr	r2, [pc, #276]	; (8002b80 <HAL_GPIO_Init+0x2e0>)
 8002a6a:	4293      	cmp	r3, r2
 8002a6c:	d007      	beq.n	8002a7e <HAL_GPIO_Init+0x1de>
 8002a6e:	687b      	ldr	r3, [r7, #4]
 8002a70:	4a44      	ldr	r2, [pc, #272]	; (8002b84 <HAL_GPIO_Init+0x2e4>)
 8002a72:	4293      	cmp	r3, r2
 8002a74:	d101      	bne.n	8002a7a <HAL_GPIO_Init+0x1da>
 8002a76:	2305      	movs	r3, #5
 8002a78:	e008      	b.n	8002a8c <HAL_GPIO_Init+0x1ec>
 8002a7a:	2306      	movs	r3, #6
 8002a7c:	e006      	b.n	8002a8c <HAL_GPIO_Init+0x1ec>
 8002a7e:	2303      	movs	r3, #3
 8002a80:	e004      	b.n	8002a8c <HAL_GPIO_Init+0x1ec>
 8002a82:	2302      	movs	r3, #2
 8002a84:	e002      	b.n	8002a8c <HAL_GPIO_Init+0x1ec>
 8002a86:	2301      	movs	r3, #1
 8002a88:	e000      	b.n	8002a8c <HAL_GPIO_Init+0x1ec>
 8002a8a:	2300      	movs	r3, #0
 8002a8c:	697a      	ldr	r2, [r7, #20]
 8002a8e:	2103      	movs	r1, #3
 8002a90:	400a      	ands	r2, r1
 8002a92:	0092      	lsls	r2, r2, #2
 8002a94:	4093      	lsls	r3, r2
 8002a96:	693a      	ldr	r2, [r7, #16]
 8002a98:	4313      	orrs	r3, r2
 8002a9a:	613b      	str	r3, [r7, #16]
        SYSCFG->EXTICR[position >> 2U] = temp;
 8002a9c:	4935      	ldr	r1, [pc, #212]	; (8002b74 <HAL_GPIO_Init+0x2d4>)
 8002a9e:	697b      	ldr	r3, [r7, #20]
 8002aa0:	089b      	lsrs	r3, r3, #2
 8002aa2:	3302      	adds	r3, #2
 8002aa4:	009b      	lsls	r3, r3, #2
 8002aa6:	693a      	ldr	r2, [r7, #16]
 8002aa8:	505a      	str	r2, [r3, r1]
                  
        /* Clear EXTI line configuration */
        temp = EXTI->IMR;
 8002aaa:	4b37      	ldr	r3, [pc, #220]	; (8002b88 <HAL_GPIO_Init+0x2e8>)
 8002aac:	681b      	ldr	r3, [r3, #0]
 8002aae:	613b      	str	r3, [r7, #16]
        temp &= ~((uint32_t)iocurrent);
 8002ab0:	68fb      	ldr	r3, [r7, #12]
 8002ab2:	43da      	mvns	r2, r3
 8002ab4:	693b      	ldr	r3, [r7, #16]
 8002ab6:	4013      	ands	r3, r2
 8002ab8:	613b      	str	r3, [r7, #16]
        if((GPIO_Init->Mode & GPIO_MODE_IT) == GPIO_MODE_IT)
 8002aba:	683b      	ldr	r3, [r7, #0]
 8002abc:	685a      	ldr	r2, [r3, #4]
 8002abe:	2380      	movs	r3, #128	; 0x80
 8002ac0:	025b      	lsls	r3, r3, #9
 8002ac2:	4013      	ands	r3, r2
 8002ac4:	d003      	beq.n	8002ace <HAL_GPIO_Init+0x22e>
        {
          temp |= iocurrent;
 8002ac6:	693a      	ldr	r2, [r7, #16]
 8002ac8:	68fb      	ldr	r3, [r7, #12]
 8002aca:	4313      	orrs	r3, r2
 8002acc:	613b      	str	r3, [r7, #16]
        }
        EXTI->IMR = temp;
 8002ace:	4b2e      	ldr	r3, [pc, #184]	; (8002b88 <HAL_GPIO_Init+0x2e8>)
 8002ad0:	693a      	ldr	r2, [r7, #16]
 8002ad2:	601a      	str	r2, [r3, #0]

        temp = EXTI->EMR;
 8002ad4:	4b2c      	ldr	r3, [pc, #176]	; (8002b88 <HAL_GPIO_Init+0x2e8>)
 8002ad6:	685b      	ldr	r3, [r3, #4]
 8002ad8:	613b      	str	r3, [r7, #16]
        temp &= ~((uint32_t)iocurrent);
 8002ada:	68fb      	ldr	r3, [r7, #12]
 8002adc:	43da      	mvns	r2, r3
 8002ade:	693b      	ldr	r3, [r7, #16]
 8002ae0:	4013      	ands	r3, r2
 8002ae2:	613b      	str	r3, [r7, #16]
        if((GPIO_Init->Mode & GPIO_MODE_EVT) == GPIO_MODE_EVT)
 8002ae4:	683b      	ldr	r3, [r7, #0]
 8002ae6:	685a      	ldr	r2, [r3, #4]
 8002ae8:	2380      	movs	r3, #128	; 0x80
 8002aea:	029b      	lsls	r3, r3, #10
 8002aec:	4013      	ands	r3, r2
 8002aee:	d003      	beq.n	8002af8 <HAL_GPIO_Init+0x258>
        {
          temp |= iocurrent;
 8002af0:	693a      	ldr	r2, [r7, #16]
 8002af2:	68fb      	ldr	r3, [r7, #12]
 8002af4:	4313      	orrs	r3, r2
 8002af6:	613b      	str	r3, [r7, #16]
        }
        EXTI->EMR = temp;
 8002af8:	4b23      	ldr	r3, [pc, #140]	; (8002b88 <HAL_GPIO_Init+0x2e8>)
 8002afa:	693a      	ldr	r2, [r7, #16]
 8002afc:	605a      	str	r2, [r3, #4]

        /* Clear Rising Falling edge configuration */
        temp = EXTI->RTSR;
 8002afe:	4b22      	ldr	r3, [pc, #136]	; (8002b88 <HAL_GPIO_Init+0x2e8>)
 8002b00:	689b      	ldr	r3, [r3, #8]
 8002b02:	613b      	str	r3, [r7, #16]
        temp &= ~((uint32_t)iocurrent);
 8002b04:	68fb      	ldr	r3, [r7, #12]
 8002b06:	43da      	mvns	r2, r3
 8002b08:	693b      	ldr	r3, [r7, #16]
 8002b0a:	4013      	ands	r3, r2
 8002b0c:	613b      	str	r3, [r7, #16]
        if((GPIO_Init->Mode & RISING_EDGE) == RISING_EDGE)
 8002b0e:	683b      	ldr	r3, [r7, #0]
 8002b10:	685a      	ldr	r2, [r3, #4]
 8002b12:	2380      	movs	r3, #128	; 0x80
 8002b14:	035b      	lsls	r3, r3, #13
 8002b16:	4013      	ands	r3, r2
 8002b18:	d003      	beq.n	8002b22 <HAL_GPIO_Init+0x282>
        {
          temp |= iocurrent;
 8002b1a:	693a      	ldr	r2, [r7, #16]
 8002b1c:	68fb      	ldr	r3, [r7, #12]
 8002b1e:	4313      	orrs	r3, r2
 8002b20:	613b      	str	r3, [r7, #16]
        }
        EXTI->RTSR = temp;
 8002b22:	4b19      	ldr	r3, [pc, #100]	; (8002b88 <HAL_GPIO_Init+0x2e8>)
 8002b24:	693a      	ldr	r2, [r7, #16]
 8002b26:	609a      	str	r2, [r3, #8]

        temp = EXTI->FTSR;
 8002b28:	4b17      	ldr	r3, [pc, #92]	; (8002b88 <HAL_GPIO_Init+0x2e8>)
 8002b2a:	68db      	ldr	r3, [r3, #12]
 8002b2c:	613b      	str	r3, [r7, #16]
        temp &= ~((uint32_t)iocurrent);
 8002b2e:	68fb      	ldr	r3, [r7, #12]
 8002b30:	43da      	mvns	r2, r3
 8002b32:	693b      	ldr	r3, [r7, #16]
 8002b34:	4013      	ands	r3, r2
 8002b36:	613b      	str	r3, [r7, #16]
        if((GPIO_Init->Mode & FALLING_EDGE) == FALLING_EDGE)
 8002b38:	683b      	ldr	r3, [r7, #0]
 8002b3a:	685a      	ldr	r2, [r3, #4]
 8002b3c:	2380      	movs	r3, #128	; 0x80
 8002b3e:	039b      	lsls	r3, r3, #14
 8002b40:	4013      	ands	r3, r2
 8002b42:	d003      	beq.n	8002b4c <HAL_GPIO_Init+0x2ac>
        {
          temp |= iocurrent;
 8002b44:	693a      	ldr	r2, [r7, #16]
 8002b46:	68fb      	ldr	r3, [r7, #12]
 8002b48:	4313      	orrs	r3, r2
 8002b4a:	613b      	str	r3, [r7, #16]
        }
        EXTI->FTSR = temp;
 8002b4c:	4b0e      	ldr	r3, [pc, #56]	; (8002b88 <HAL_GPIO_Init+0x2e8>)
 8002b4e:	693a      	ldr	r2, [r7, #16]
 8002b50:	60da      	str	r2, [r3, #12]
      }
    }
    position++;
 8002b52:	697b      	ldr	r3, [r7, #20]
 8002b54:	3301      	adds	r3, #1
 8002b56:	617b      	str	r3, [r7, #20]
  while (((GPIO_Init->Pin) >> position) != 0)
 8002b58:	683b      	ldr	r3, [r7, #0]
 8002b5a:	681a      	ldr	r2, [r3, #0]
 8002b5c:	697b      	ldr	r3, [r7, #20]
 8002b5e:	40da      	lsrs	r2, r3
 8002b60:	1e13      	subs	r3, r2, #0
 8002b62:	d000      	beq.n	8002b66 <HAL_GPIO_Init+0x2c6>
 8002b64:	e6a8      	b.n	80028b8 <HAL_GPIO_Init+0x18>
  }
}
 8002b66:	46c0      	nop			; (mov r8, r8)
 8002b68:	46bd      	mov	sp, r7
 8002b6a:	b006      	add	sp, #24
 8002b6c:	bd80      	pop	{r7, pc}
 8002b6e:	46c0      	nop			; (mov r8, r8)
 8002b70:	40021000 	.word	0x40021000
 8002b74:	40010000 	.word	0x40010000
 8002b78:	50000400 	.word	0x50000400
 8002b7c:	50000800 	.word	0x50000800
 8002b80:	50000c00 	.word	0x50000c00
 8002b84:	50001c00 	.word	0x50001c00
 8002b88:	40010400 	.word	0x40010400

08002b8c <HAL_GPIO_WritePin>:
  *                        GPIO_PIN_RESET: to clear the port pin
  *                        GPIO_PIN_SET: to set the port pin
  * @retval None
  */
void HAL_GPIO_WritePin(GPIO_TypeDef* GPIOx, uint16_t GPIO_Pin, GPIO_PinState PinState)
{
 8002b8c:	b580      	push	{r7, lr}
 8002b8e:	b082      	sub	sp, #8
 8002b90:	af00      	add	r7, sp, #0
 8002b92:	6078      	str	r0, [r7, #4]
 8002b94:	0008      	movs	r0, r1
 8002b96:	0011      	movs	r1, r2
 8002b98:	1cbb      	adds	r3, r7, #2
 8002b9a:	1c02      	adds	r2, r0, #0
 8002b9c:	801a      	strh	r2, [r3, #0]
 8002b9e:	1c7b      	adds	r3, r7, #1
 8002ba0:	1c0a      	adds	r2, r1, #0
 8002ba2:	701a      	strb	r2, [r3, #0]
  /* Check the parameters */
  assert_param(IS_GPIO_PIN_AVAILABLE(GPIOx,GPIO_Pin));
  assert_param(IS_GPIO_PIN_ACTION(PinState));
  
  if(PinState != GPIO_PIN_RESET)
 8002ba4:	1c7b      	adds	r3, r7, #1
 8002ba6:	781b      	ldrb	r3, [r3, #0]
 8002ba8:	2b00      	cmp	r3, #0
 8002baa:	d004      	beq.n	8002bb6 <HAL_GPIO_WritePin+0x2a>
  {
    GPIOx->BSRR = GPIO_Pin;
 8002bac:	1cbb      	adds	r3, r7, #2
 8002bae:	881a      	ldrh	r2, [r3, #0]
 8002bb0:	687b      	ldr	r3, [r7, #4]
 8002bb2:	619a      	str	r2, [r3, #24]
  }
  else
  {
    GPIOx->BRR = GPIO_Pin ;
  }
}
 8002bb4:	e003      	b.n	8002bbe <HAL_GPIO_WritePin+0x32>
    GPIOx->BRR = GPIO_Pin ;
 8002bb6:	1cbb      	adds	r3, r7, #2
 8002bb8:	881a      	ldrh	r2, [r3, #0]
 8002bba:	687b      	ldr	r3, [r7, #4]
 8002bbc:	629a      	str	r2, [r3, #40]	; 0x28
}
 8002bbe:	46c0      	nop			; (mov r8, r8)
 8002bc0:	46bd      	mov	sp, r7
 8002bc2:	b002      	add	sp, #8
 8002bc4:	bd80      	pop	{r7, pc}
	...

08002bc8 <HAL_RCC_OscConfig>:
  *         supported by this macro. User should request a transition to HSE Off
  *         first and then HSE On or HSE Bypass.
  * @retval HAL status
  */
HAL_StatusTypeDef HAL_RCC_OscConfig(RCC_OscInitTypeDef  *RCC_OscInitStruct)
{
 8002bc8:	b580      	push	{r7, lr}
 8002bca:	b086      	sub	sp, #24
 8002bcc:	af00      	add	r7, sp, #0
 8002bce:	6078      	str	r0, [r7, #4]
   uint32_t tickstart = 0U;
 8002bd0:	2300      	movs	r3, #0
 8002bd2:	613b      	str	r3, [r7, #16]
  /* Check the parameters */
  assert_param(RCC_OscInitStruct != NULL);
  assert_param(IS_RCC_OSCILLATORTYPE(RCC_OscInitStruct->OscillatorType));

  /*------------------------------- HSE Configuration ------------------------*/ 
  if(((RCC_OscInitStruct->OscillatorType) & RCC_OSCILLATORTYPE_HSE) == RCC_OSCILLATORTYPE_HSE)
 8002bd4:	687b      	ldr	r3, [r7, #4]
 8002bd6:	681b      	ldr	r3, [r3, #0]
 8002bd8:	2201      	movs	r2, #1
 8002bda:	4013      	ands	r3, r2
 8002bdc:	d100      	bne.n	8002be0 <HAL_RCC_OscConfig+0x18>
 8002bde:	e087      	b.n	8002cf0 <HAL_RCC_OscConfig+0x128>
  {
    /* Check the parameters */
    assert_param(IS_RCC_HSE(RCC_OscInitStruct->HSEState));

    /* When the HSE is used as system clock or clock source for PLL in these cases it is not allowed to be disabled */
    if((__HAL_RCC_GET_SYSCLK_SOURCE() == RCC_SYSCLKSOURCE_STATUS_HSE) 
 8002be0:	4bc0      	ldr	r3, [pc, #768]	; (8002ee4 <HAL_RCC_OscConfig+0x31c>)
 8002be2:	68db      	ldr	r3, [r3, #12]
 8002be4:	220c      	movs	r2, #12
 8002be6:	4013      	ands	r3, r2
 8002be8:	2b08      	cmp	r3, #8
 8002bea:	d00e      	beq.n	8002c0a <HAL_RCC_OscConfig+0x42>
       || ((__HAL_RCC_GET_SYSCLK_SOURCE() == RCC_SYSCLKSOURCE_STATUS_PLLCLK) && (__HAL_RCC_GET_PLL_OSCSOURCE() == RCC_PLLSOURCE_HSE)))
 8002bec:	4bbd      	ldr	r3, [pc, #756]	; (8002ee4 <HAL_RCC_OscConfig+0x31c>)
 8002bee:	68db      	ldr	r3, [r3, #12]
 8002bf0:	220c      	movs	r2, #12
 8002bf2:	4013      	ands	r3, r2
 8002bf4:	2b0c      	cmp	r3, #12
 8002bf6:	d116      	bne.n	8002c26 <HAL_RCC_OscConfig+0x5e>
 8002bf8:	4bba      	ldr	r3, [pc, #744]	; (8002ee4 <HAL_RCC_OscConfig+0x31c>)
 8002bfa:	68da      	ldr	r2, [r3, #12]
 8002bfc:	2380      	movs	r3, #128	; 0x80
 8002bfe:	025b      	lsls	r3, r3, #9
 8002c00:	401a      	ands	r2, r3
 8002c02:	2380      	movs	r3, #128	; 0x80
 8002c04:	025b      	lsls	r3, r3, #9
 8002c06:	429a      	cmp	r2, r3
 8002c08:	d10d      	bne.n	8002c26 <HAL_RCC_OscConfig+0x5e>
    {
      if((__HAL_RCC_GET_FLAG(RCC_FLAG_HSERDY) != RESET) && (RCC_OscInitStruct->HSEState == RCC_HSE_OFF))
 8002c0a:	4bb6      	ldr	r3, [pc, #728]	; (8002ee4 <HAL_RCC_OscConfig+0x31c>)
 8002c0c:	681a      	ldr	r2, [r3, #0]
 8002c0e:	2380      	movs	r3, #128	; 0x80
 8002c10:	029b      	lsls	r3, r3, #10
 8002c12:	4013      	ands	r3, r2
 8002c14:	d100      	bne.n	8002c18 <HAL_RCC_OscConfig+0x50>
 8002c16:	e06a      	b.n	8002cee <HAL_RCC_OscConfig+0x126>
 8002c18:	687b      	ldr	r3, [r7, #4]
 8002c1a:	685b      	ldr	r3, [r3, #4]
 8002c1c:	2b00      	cmp	r3, #0
 8002c1e:	d166      	bne.n	8002cee <HAL_RCC_OscConfig+0x126>
      {
        return HAL_ERROR;
 8002c20:	2301      	movs	r3, #1
 8002c22:	f000 fb69 	bl	80032f8 <HAL_RCC_OscConfig+0x730>
      }
    }
    else
    {
      /* Set the new HSE configuration ---------------------------------------*/
      __HAL_RCC_HSE_CONFIG(RCC_OscInitStruct->HSEState);
 8002c26:	687b      	ldr	r3, [r7, #4]
 8002c28:	685a      	ldr	r2, [r3, #4]
 8002c2a:	2380      	movs	r3, #128	; 0x80
 8002c2c:	025b      	lsls	r3, r3, #9
 8002c2e:	429a      	cmp	r2, r3
 8002c30:	d107      	bne.n	8002c42 <HAL_RCC_OscConfig+0x7a>
 8002c32:	4bac      	ldr	r3, [pc, #688]	; (8002ee4 <HAL_RCC_OscConfig+0x31c>)
 8002c34:	4aab      	ldr	r2, [pc, #684]	; (8002ee4 <HAL_RCC_OscConfig+0x31c>)
 8002c36:	6812      	ldr	r2, [r2, #0]
 8002c38:	2180      	movs	r1, #128	; 0x80
 8002c3a:	0249      	lsls	r1, r1, #9
 8002c3c:	430a      	orrs	r2, r1
 8002c3e:	601a      	str	r2, [r3, #0]
 8002c40:	e027      	b.n	8002c92 <HAL_RCC_OscConfig+0xca>
 8002c42:	687b      	ldr	r3, [r7, #4]
 8002c44:	685a      	ldr	r2, [r3, #4]
 8002c46:	23a0      	movs	r3, #160	; 0xa0
 8002c48:	02db      	lsls	r3, r3, #11
 8002c4a:	429a      	cmp	r2, r3
 8002c4c:	d10e      	bne.n	8002c6c <HAL_RCC_OscConfig+0xa4>
 8002c4e:	4ba5      	ldr	r3, [pc, #660]	; (8002ee4 <HAL_RCC_OscConfig+0x31c>)
 8002c50:	4aa4      	ldr	r2, [pc, #656]	; (8002ee4 <HAL_RCC_OscConfig+0x31c>)
 8002c52:	6812      	ldr	r2, [r2, #0]
 8002c54:	2180      	movs	r1, #128	; 0x80
 8002c56:	02c9      	lsls	r1, r1, #11
 8002c58:	430a      	orrs	r2, r1
 8002c5a:	601a      	str	r2, [r3, #0]
 8002c5c:	4ba1      	ldr	r3, [pc, #644]	; (8002ee4 <HAL_RCC_OscConfig+0x31c>)
 8002c5e:	4aa1      	ldr	r2, [pc, #644]	; (8002ee4 <HAL_RCC_OscConfig+0x31c>)
 8002c60:	6812      	ldr	r2, [r2, #0]
 8002c62:	2180      	movs	r1, #128	; 0x80
 8002c64:	0249      	lsls	r1, r1, #9
 8002c66:	430a      	orrs	r2, r1
 8002c68:	601a      	str	r2, [r3, #0]
 8002c6a:	e012      	b.n	8002c92 <HAL_RCC_OscConfig+0xca>
 8002c6c:	4b9d      	ldr	r3, [pc, #628]	; (8002ee4 <HAL_RCC_OscConfig+0x31c>)
 8002c6e:	4a9d      	ldr	r2, [pc, #628]	; (8002ee4 <HAL_RCC_OscConfig+0x31c>)
 8002c70:	6812      	ldr	r2, [r2, #0]
 8002c72:	499d      	ldr	r1, [pc, #628]	; (8002ee8 <HAL_RCC_OscConfig+0x320>)
 8002c74:	400a      	ands	r2, r1
 8002c76:	601a      	str	r2, [r3, #0]
 8002c78:	4b9a      	ldr	r3, [pc, #616]	; (8002ee4 <HAL_RCC_OscConfig+0x31c>)
 8002c7a:	681a      	ldr	r2, [r3, #0]
 8002c7c:	2380      	movs	r3, #128	; 0x80
 8002c7e:	025b      	lsls	r3, r3, #9
 8002c80:	4013      	ands	r3, r2
 8002c82:	60fb      	str	r3, [r7, #12]
 8002c84:	68fb      	ldr	r3, [r7, #12]
 8002c86:	4b97      	ldr	r3, [pc, #604]	; (8002ee4 <HAL_RCC_OscConfig+0x31c>)
 8002c88:	4a96      	ldr	r2, [pc, #600]	; (8002ee4 <HAL_RCC_OscConfig+0x31c>)
 8002c8a:	6812      	ldr	r2, [r2, #0]
 8002c8c:	4997      	ldr	r1, [pc, #604]	; (8002eec <HAL_RCC_OscConfig+0x324>)
 8002c8e:	400a      	ands	r2, r1
 8002c90:	601a      	str	r2, [r3, #0]
      

       /* Check the HSE State */
      if(RCC_OscInitStruct->HSEState != RCC_HSE_OFF)
 8002c92:	687b      	ldr	r3, [r7, #4]
 8002c94:	685b      	ldr	r3, [r3, #4]
 8002c96:	2b00      	cmp	r3, #0
 8002c98:	d014      	beq.n	8002cc4 <HAL_RCC_OscConfig+0xfc>
      {
        /* Get Start Tick */
        tickstart = HAL_GetTick();
 8002c9a:	f7fe fcaf 	bl	80015fc <HAL_GetTick>
 8002c9e:	0003      	movs	r3, r0
 8002ca0:	613b      	str	r3, [r7, #16]
        
        /* Wait till HSE is ready */
        while(__HAL_RCC_GET_FLAG(RCC_FLAG_HSERDY) == RESET)
 8002ca2:	e008      	b.n	8002cb6 <HAL_RCC_OscConfig+0xee>
        {
          if((HAL_GetTick() - tickstart ) > HSE_TIMEOUT_VALUE)
 8002ca4:	f7fe fcaa 	bl	80015fc <HAL_GetTick>
 8002ca8:	0002      	movs	r2, r0
 8002caa:	693b      	ldr	r3, [r7, #16]
 8002cac:	1ad3      	subs	r3, r2, r3
 8002cae:	2b64      	cmp	r3, #100	; 0x64
 8002cb0:	d901      	bls.n	8002cb6 <HAL_RCC_OscConfig+0xee>
          {
            return HAL_TIMEOUT;
 8002cb2:	2303      	movs	r3, #3
 8002cb4:	e320      	b.n	80032f8 <HAL_RCC_OscConfig+0x730>
        while(__HAL_RCC_GET_FLAG(RCC_FLAG_HSERDY) == RESET)
 8002cb6:	4b8b      	ldr	r3, [pc, #556]	; (8002ee4 <HAL_RCC_OscConfig+0x31c>)
 8002cb8:	681a      	ldr	r2, [r3, #0]
 8002cba:	2380      	movs	r3, #128	; 0x80
 8002cbc:	029b      	lsls	r3, r3, #10
 8002cbe:	4013      	ands	r3, r2
 8002cc0:	d0f0      	beq.n	8002ca4 <HAL_RCC_OscConfig+0xdc>
 8002cc2:	e015      	b.n	8002cf0 <HAL_RCC_OscConfig+0x128>
        }
      }
      else
      {
        /* Get Start Tick */
        tickstart = HAL_GetTick();
 8002cc4:	f7fe fc9a 	bl	80015fc <HAL_GetTick>
 8002cc8:	0003      	movs	r3, r0
 8002cca:	613b      	str	r3, [r7, #16]
        
        /* Wait till HSE is disabled */
        while(__HAL_RCC_GET_FLAG(RCC_FLAG_HSERDY) != RESET)
 8002ccc:	e008      	b.n	8002ce0 <HAL_RCC_OscConfig+0x118>
        {
           if((HAL_GetTick() - tickstart ) > HSE_TIMEOUT_VALUE)
 8002cce:	f7fe fc95 	bl	80015fc <HAL_GetTick>
 8002cd2:	0002      	movs	r2, r0
 8002cd4:	693b      	ldr	r3, [r7, #16]
 8002cd6:	1ad3      	subs	r3, r2, r3
 8002cd8:	2b64      	cmp	r3, #100	; 0x64
 8002cda:	d901      	bls.n	8002ce0 <HAL_RCC_OscConfig+0x118>
          {
            return HAL_TIMEOUT;
 8002cdc:	2303      	movs	r3, #3
 8002cde:	e30b      	b.n	80032f8 <HAL_RCC_OscConfig+0x730>
        while(__HAL_RCC_GET_FLAG(RCC_FLAG_HSERDY) != RESET)
 8002ce0:	4b80      	ldr	r3, [pc, #512]	; (8002ee4 <HAL_RCC_OscConfig+0x31c>)
 8002ce2:	681a      	ldr	r2, [r3, #0]
 8002ce4:	2380      	movs	r3, #128	; 0x80
 8002ce6:	029b      	lsls	r3, r3, #10
 8002ce8:	4013      	ands	r3, r2
 8002cea:	d1f0      	bne.n	8002cce <HAL_RCC_OscConfig+0x106>
 8002cec:	e000      	b.n	8002cf0 <HAL_RCC_OscConfig+0x128>
      if((__HAL_RCC_GET_FLAG(RCC_FLAG_HSERDY) != RESET) && (RCC_OscInitStruct->HSEState == RCC_HSE_OFF))
 8002cee:	46c0      	nop			; (mov r8, r8)
        }
      }
    }
  }
  /*----------------------------- HSI Configuration --------------------------*/ 
  if(((RCC_OscInitStruct->OscillatorType) & RCC_OSCILLATORTYPE_HSI) == RCC_OSCILLATORTYPE_HSI)
 8002cf0:	687b      	ldr	r3, [r7, #4]
 8002cf2:	681b      	ldr	r3, [r3, #0]
 8002cf4:	2202      	movs	r2, #2
 8002cf6:	4013      	ands	r3, r2
 8002cf8:	d100      	bne.n	8002cfc <HAL_RCC_OscConfig+0x134>
 8002cfa:	e06c      	b.n	8002dd6 <HAL_RCC_OscConfig+0x20e>
    /* Check the parameters */
    assert_param(IS_RCC_HSI(RCC_OscInitStruct->HSIState));
    assert_param(IS_RCC_CALIBRATION_VALUE(RCC_OscInitStruct->HSICalibrationValue));
    
    /* Check if HSI is used as system clock or as PLL source when PLL is selected as system clock */ 
    if((__HAL_RCC_GET_SYSCLK_SOURCE() == RCC_SYSCLKSOURCE_STATUS_HSI) 
 8002cfc:	4b79      	ldr	r3, [pc, #484]	; (8002ee4 <HAL_RCC_OscConfig+0x31c>)
 8002cfe:	68db      	ldr	r3, [r3, #12]
 8002d00:	220c      	movs	r2, #12
 8002d02:	4013      	ands	r3, r2
 8002d04:	2b04      	cmp	r3, #4
 8002d06:	d00b      	beq.n	8002d20 <HAL_RCC_OscConfig+0x158>
       || ((__HAL_RCC_GET_SYSCLK_SOURCE() == RCC_SYSCLKSOURCE_STATUS_PLLCLK) && (__HAL_RCC_GET_PLL_OSCSOURCE() == RCC_PLLSOURCE_HSI)))
 8002d08:	4b76      	ldr	r3, [pc, #472]	; (8002ee4 <HAL_RCC_OscConfig+0x31c>)
 8002d0a:	68db      	ldr	r3, [r3, #12]
 8002d0c:	220c      	movs	r2, #12
 8002d0e:	4013      	ands	r3, r2
 8002d10:	2b0c      	cmp	r3, #12
 8002d12:	d11b      	bne.n	8002d4c <HAL_RCC_OscConfig+0x184>
 8002d14:	4b73      	ldr	r3, [pc, #460]	; (8002ee4 <HAL_RCC_OscConfig+0x31c>)
 8002d16:	68da      	ldr	r2, [r3, #12]
 8002d18:	2380      	movs	r3, #128	; 0x80
 8002d1a:	025b      	lsls	r3, r3, #9
 8002d1c:	4013      	ands	r3, r2
 8002d1e:	d115      	bne.n	8002d4c <HAL_RCC_OscConfig+0x184>
    {
      /* When HSI is used as system clock it will not disabled */
      if((__HAL_RCC_GET_FLAG(RCC_FLAG_HSIRDY) != RESET) && (RCC_OscInitStruct->HSIState != RCC_HSI_ON))
 8002d20:	4b70      	ldr	r3, [pc, #448]	; (8002ee4 <HAL_RCC_OscConfig+0x31c>)
 8002d22:	681b      	ldr	r3, [r3, #0]
 8002d24:	2204      	movs	r2, #4
 8002d26:	4013      	ands	r3, r2
 8002d28:	d005      	beq.n	8002d36 <HAL_RCC_OscConfig+0x16e>
 8002d2a:	687b      	ldr	r3, [r7, #4]
 8002d2c:	68db      	ldr	r3, [r3, #12]
 8002d2e:	2b01      	cmp	r3, #1
 8002d30:	d001      	beq.n	8002d36 <HAL_RCC_OscConfig+0x16e>
      {
        return HAL_ERROR;
 8002d32:	2301      	movs	r3, #1
 8002d34:	e2e0      	b.n	80032f8 <HAL_RCC_OscConfig+0x730>
      }
      /* Otherwise, just the calibration is allowed */
      else
      {
        /* Adjusts the Internal High Speed oscillator (HSI) calibration value.*/
        __HAL_RCC_HSI_CALIBRATIONVALUE_ADJUST(RCC_OscInitStruct->HSICalibrationValue);
 8002d36:	4a6b      	ldr	r2, [pc, #428]	; (8002ee4 <HAL_RCC_OscConfig+0x31c>)
 8002d38:	4b6a      	ldr	r3, [pc, #424]	; (8002ee4 <HAL_RCC_OscConfig+0x31c>)
 8002d3a:	685b      	ldr	r3, [r3, #4]
 8002d3c:	496c      	ldr	r1, [pc, #432]	; (8002ef0 <HAL_RCC_OscConfig+0x328>)
 8002d3e:	4019      	ands	r1, r3
 8002d40:	687b      	ldr	r3, [r7, #4]
 8002d42:	691b      	ldr	r3, [r3, #16]
 8002d44:	021b      	lsls	r3, r3, #8
 8002d46:	430b      	orrs	r3, r1
 8002d48:	6053      	str	r3, [r2, #4]
      if((__HAL_RCC_GET_FLAG(RCC_FLAG_HSIRDY) != RESET) && (RCC_OscInitStruct->HSIState != RCC_HSI_ON))
 8002d4a:	e044      	b.n	8002dd6 <HAL_RCC_OscConfig+0x20e>
      }
    }
    else
    {
      /* Check the HSI State */
      if(RCC_OscInitStruct->HSIState != RCC_HSI_OFF)
 8002d4c:	687b      	ldr	r3, [r7, #4]
 8002d4e:	68db      	ldr	r3, [r3, #12]
 8002d50:	2b00      	cmp	r3, #0
 8002d52:	d027      	beq.n	8002da4 <HAL_RCC_OscConfig+0x1dc>
      {
        /* Enable the Internal High Speed oscillator (HSI or HSIdiv4) */
        __HAL_RCC_HSI_CONFIG(RCC_OscInitStruct->HSIState);
 8002d54:	4a63      	ldr	r2, [pc, #396]	; (8002ee4 <HAL_RCC_OscConfig+0x31c>)
 8002d56:	4b63      	ldr	r3, [pc, #396]	; (8002ee4 <HAL_RCC_OscConfig+0x31c>)
 8002d58:	681b      	ldr	r3, [r3, #0]
 8002d5a:	2109      	movs	r1, #9
 8002d5c:	438b      	bics	r3, r1
 8002d5e:	0019      	movs	r1, r3
 8002d60:	687b      	ldr	r3, [r7, #4]
 8002d62:	68db      	ldr	r3, [r3, #12]
 8002d64:	430b      	orrs	r3, r1
 8002d66:	6013      	str	r3, [r2, #0]
        
        /* Get Start Tick */
        tickstart = HAL_GetTick();
 8002d68:	f7fe fc48 	bl	80015fc <HAL_GetTick>
 8002d6c:	0003      	movs	r3, r0
 8002d6e:	613b      	str	r3, [r7, #16]
        
        /* Wait till HSI is ready */
        while(__HAL_RCC_GET_FLAG(RCC_FLAG_HSIRDY) == RESET)
 8002d70:	e008      	b.n	8002d84 <HAL_RCC_OscConfig+0x1bc>
        {
          if((HAL_GetTick() - tickstart ) > HSI_TIMEOUT_VALUE)
 8002d72:	f7fe fc43 	bl	80015fc <HAL_GetTick>
 8002d76:	0002      	movs	r2, r0
 8002d78:	693b      	ldr	r3, [r7, #16]
 8002d7a:	1ad3      	subs	r3, r2, r3
 8002d7c:	2b02      	cmp	r3, #2
 8002d7e:	d901      	bls.n	8002d84 <HAL_RCC_OscConfig+0x1bc>
          {
            return HAL_TIMEOUT;
 8002d80:	2303      	movs	r3, #3
 8002d82:	e2b9      	b.n	80032f8 <HAL_RCC_OscConfig+0x730>
        while(__HAL_RCC_GET_FLAG(RCC_FLAG_HSIRDY) == RESET)
 8002d84:	4b57      	ldr	r3, [pc, #348]	; (8002ee4 <HAL_RCC_OscConfig+0x31c>)
 8002d86:	681b      	ldr	r3, [r3, #0]
 8002d88:	2204      	movs	r2, #4
 8002d8a:	4013      	ands	r3, r2
 8002d8c:	d0f1      	beq.n	8002d72 <HAL_RCC_OscConfig+0x1aa>
          }
        }
                
        /* Adjusts the Internal High Speed oscillator (HSI) calibration value.*/
        __HAL_RCC_HSI_CALIBRATIONVALUE_ADJUST(RCC_OscInitStruct->HSICalibrationValue);
 8002d8e:	4a55      	ldr	r2, [pc, #340]	; (8002ee4 <HAL_RCC_OscConfig+0x31c>)
 8002d90:	4b54      	ldr	r3, [pc, #336]	; (8002ee4 <HAL_RCC_OscConfig+0x31c>)
 8002d92:	685b      	ldr	r3, [r3, #4]
 8002d94:	4956      	ldr	r1, [pc, #344]	; (8002ef0 <HAL_RCC_OscConfig+0x328>)
 8002d96:	4019      	ands	r1, r3
 8002d98:	687b      	ldr	r3, [r7, #4]
 8002d9a:	691b      	ldr	r3, [r3, #16]
 8002d9c:	021b      	lsls	r3, r3, #8
 8002d9e:	430b      	orrs	r3, r1
 8002da0:	6053      	str	r3, [r2, #4]
 8002da2:	e018      	b.n	8002dd6 <HAL_RCC_OscConfig+0x20e>
      }
      else
      {
        /* Disable the Internal High Speed oscillator (HSI). */
        __HAL_RCC_HSI_DISABLE();
 8002da4:	4b4f      	ldr	r3, [pc, #316]	; (8002ee4 <HAL_RCC_OscConfig+0x31c>)
 8002da6:	4a4f      	ldr	r2, [pc, #316]	; (8002ee4 <HAL_RCC_OscConfig+0x31c>)
 8002da8:	6812      	ldr	r2, [r2, #0]
 8002daa:	2101      	movs	r1, #1
 8002dac:	438a      	bics	r2, r1
 8002dae:	601a      	str	r2, [r3, #0]
        
        /* Get Start Tick */
        tickstart = HAL_GetTick();
 8002db0:	f7fe fc24 	bl	80015fc <HAL_GetTick>
 8002db4:	0003      	movs	r3, r0
 8002db6:	613b      	str	r3, [r7, #16]
        
        /* Wait till HSI is disabled */
        while(__HAL_RCC_GET_FLAG(RCC_FLAG_HSIRDY) != RESET)
 8002db8:	e008      	b.n	8002dcc <HAL_RCC_OscConfig+0x204>
        {
          if((HAL_GetTick() - tickstart ) > HSI_TIMEOUT_VALUE)
 8002dba:	f7fe fc1f 	bl	80015fc <HAL_GetTick>
 8002dbe:	0002      	movs	r2, r0
 8002dc0:	693b      	ldr	r3, [r7, #16]
 8002dc2:	1ad3      	subs	r3, r2, r3
 8002dc4:	2b02      	cmp	r3, #2
 8002dc6:	d901      	bls.n	8002dcc <HAL_RCC_OscConfig+0x204>
          {
            return HAL_TIMEOUT;
 8002dc8:	2303      	movs	r3, #3
 8002dca:	e295      	b.n	80032f8 <HAL_RCC_OscConfig+0x730>
        while(__HAL_RCC_GET_FLAG(RCC_FLAG_HSIRDY) != RESET)
 8002dcc:	4b45      	ldr	r3, [pc, #276]	; (8002ee4 <HAL_RCC_OscConfig+0x31c>)
 8002dce:	681b      	ldr	r3, [r3, #0]
 8002dd0:	2204      	movs	r2, #4
 8002dd2:	4013      	ands	r3, r2
 8002dd4:	d1f1      	bne.n	8002dba <HAL_RCC_OscConfig+0x1f2>
        }
      }
    }
  }
  /*----------------------------- MSI Configuration --------------------------*/ 
  if(((RCC_OscInitStruct->OscillatorType) & RCC_OSCILLATORTYPE_MSI) == RCC_OSCILLATORTYPE_MSI)
 8002dd6:	687b      	ldr	r3, [r7, #4]
 8002dd8:	681b      	ldr	r3, [r3, #0]
 8002dda:	2210      	movs	r2, #16
 8002ddc:	4013      	ands	r3, r2
 8002dde:	d100      	bne.n	8002de2 <HAL_RCC_OscConfig+0x21a>
 8002de0:	e0c2      	b.n	8002f68 <HAL_RCC_OscConfig+0x3a0>
  {
    /* When the MSI is used as system clock it will not be disabled */
    if((__HAL_RCC_GET_SYSCLK_SOURCE() == RCC_CFGR_SWS_MSI) )
 8002de2:	4b40      	ldr	r3, [pc, #256]	; (8002ee4 <HAL_RCC_OscConfig+0x31c>)
 8002de4:	68db      	ldr	r3, [r3, #12]
 8002de6:	220c      	movs	r2, #12
 8002de8:	4013      	ands	r3, r2
 8002dea:	d162      	bne.n	8002eb2 <HAL_RCC_OscConfig+0x2ea>
    {
      if((__HAL_RCC_GET_FLAG(RCC_FLAG_MSIRDY) != RESET) && (RCC_OscInitStruct->MSIState == RCC_MSI_OFF))
 8002dec:	4b3d      	ldr	r3, [pc, #244]	; (8002ee4 <HAL_RCC_OscConfig+0x31c>)
 8002dee:	681a      	ldr	r2, [r3, #0]
 8002df0:	2380      	movs	r3, #128	; 0x80
 8002df2:	009b      	lsls	r3, r3, #2
 8002df4:	4013      	ands	r3, r2
 8002df6:	d005      	beq.n	8002e04 <HAL_RCC_OscConfig+0x23c>
 8002df8:	687b      	ldr	r3, [r7, #4]
 8002dfa:	69db      	ldr	r3, [r3, #28]
 8002dfc:	2b00      	cmp	r3, #0
 8002dfe:	d101      	bne.n	8002e04 <HAL_RCC_OscConfig+0x23c>
      {
        return HAL_ERROR;
 8002e00:	2301      	movs	r3, #1
 8002e02:	e279      	b.n	80032f8 <HAL_RCC_OscConfig+0x730>
        assert_param(IS_RCC_MSI_CLOCK_RANGE(RCC_OscInitStruct->MSIClockRange));

        /* To correctly read data from FLASH memory, the number of wait states (LATENCY)
           must be correctly programmed according to the frequency of the CPU clock
           (HCLK) and the supply voltage of the device. */
        if(RCC_OscInitStruct->MSIClockRange > __HAL_RCC_GET_MSI_RANGE())
 8002e04:	687b      	ldr	r3, [r7, #4]
 8002e06:	6a5a      	ldr	r2, [r3, #36]	; 0x24
 8002e08:	4b36      	ldr	r3, [pc, #216]	; (8002ee4 <HAL_RCC_OscConfig+0x31c>)
 8002e0a:	6859      	ldr	r1, [r3, #4]
 8002e0c:	23e0      	movs	r3, #224	; 0xe0
 8002e0e:	021b      	lsls	r3, r3, #8
 8002e10:	400b      	ands	r3, r1
 8002e12:	429a      	cmp	r2, r3
 8002e14:	d91c      	bls.n	8002e50 <HAL_RCC_OscConfig+0x288>
        {
          /* First increase number of wait states update if necessary */
          if(RCC_SetFlashLatencyFromMSIRange(RCC_OscInitStruct->MSIClockRange) != HAL_OK)
 8002e16:	687b      	ldr	r3, [r7, #4]
 8002e18:	6a5b      	ldr	r3, [r3, #36]	; 0x24
 8002e1a:	0018      	movs	r0, r3
 8002e1c:	f000 fc18 	bl	8003650 <RCC_SetFlashLatencyFromMSIRange>
 8002e20:	1e03      	subs	r3, r0, #0
 8002e22:	d001      	beq.n	8002e28 <HAL_RCC_OscConfig+0x260>
          {
            return HAL_ERROR;
 8002e24:	2301      	movs	r3, #1
 8002e26:	e267      	b.n	80032f8 <HAL_RCC_OscConfig+0x730>
          }

          /* Selects the Multiple Speed oscillator (MSI) clock range .*/
          __HAL_RCC_MSI_RANGE_CONFIG(RCC_OscInitStruct->MSIClockRange);
 8002e28:	4a2e      	ldr	r2, [pc, #184]	; (8002ee4 <HAL_RCC_OscConfig+0x31c>)
 8002e2a:	4b2e      	ldr	r3, [pc, #184]	; (8002ee4 <HAL_RCC_OscConfig+0x31c>)
 8002e2c:	685b      	ldr	r3, [r3, #4]
 8002e2e:	4931      	ldr	r1, [pc, #196]	; (8002ef4 <HAL_RCC_OscConfig+0x32c>)
 8002e30:	4019      	ands	r1, r3
 8002e32:	687b      	ldr	r3, [r7, #4]
 8002e34:	6a5b      	ldr	r3, [r3, #36]	; 0x24
 8002e36:	430b      	orrs	r3, r1
 8002e38:	6053      	str	r3, [r2, #4]
          /* Adjusts the Multiple Speed oscillator (MSI) calibration value.*/
          __HAL_RCC_MSI_CALIBRATIONVALUE_ADJUST(RCC_OscInitStruct->MSICalibrationValue);
 8002e3a:	4a2a      	ldr	r2, [pc, #168]	; (8002ee4 <HAL_RCC_OscConfig+0x31c>)
 8002e3c:	4b29      	ldr	r3, [pc, #164]	; (8002ee4 <HAL_RCC_OscConfig+0x31c>)
 8002e3e:	685b      	ldr	r3, [r3, #4]
 8002e40:	021b      	lsls	r3, r3, #8
 8002e42:	0a19      	lsrs	r1, r3, #8
 8002e44:	687b      	ldr	r3, [r7, #4]
 8002e46:	6a1b      	ldr	r3, [r3, #32]
 8002e48:	061b      	lsls	r3, r3, #24
 8002e4a:	430b      	orrs	r3, r1
 8002e4c:	6053      	str	r3, [r2, #4]
 8002e4e:	e01b      	b.n	8002e88 <HAL_RCC_OscConfig+0x2c0>
        }
        else
        {
          /* Else, keep current flash latency while decreasing applies */
          /* Selects the Multiple Speed oscillator (MSI) clock range .*/
          __HAL_RCC_MSI_RANGE_CONFIG(RCC_OscInitStruct->MSIClockRange);
 8002e50:	4a24      	ldr	r2, [pc, #144]	; (8002ee4 <HAL_RCC_OscConfig+0x31c>)
 8002e52:	4b24      	ldr	r3, [pc, #144]	; (8002ee4 <HAL_RCC_OscConfig+0x31c>)
 8002e54:	685b      	ldr	r3, [r3, #4]
 8002e56:	4927      	ldr	r1, [pc, #156]	; (8002ef4 <HAL_RCC_OscConfig+0x32c>)
 8002e58:	4019      	ands	r1, r3
 8002e5a:	687b      	ldr	r3, [r7, #4]
 8002e5c:	6a5b      	ldr	r3, [r3, #36]	; 0x24
 8002e5e:	430b      	orrs	r3, r1
 8002e60:	6053      	str	r3, [r2, #4]
          /* Adjusts the Multiple Speed oscillator (MSI) calibration value.*/
          __HAL_RCC_MSI_CALIBRATIONVALUE_ADJUST(RCC_OscInitStruct->MSICalibrationValue);
 8002e62:	4a20      	ldr	r2, [pc, #128]	; (8002ee4 <HAL_RCC_OscConfig+0x31c>)
 8002e64:	4b1f      	ldr	r3, [pc, #124]	; (8002ee4 <HAL_RCC_OscConfig+0x31c>)
 8002e66:	685b      	ldr	r3, [r3, #4]
 8002e68:	021b      	lsls	r3, r3, #8
 8002e6a:	0a19      	lsrs	r1, r3, #8
 8002e6c:	687b      	ldr	r3, [r7, #4]
 8002e6e:	6a1b      	ldr	r3, [r3, #32]
 8002e70:	061b      	lsls	r3, r3, #24
 8002e72:	430b      	orrs	r3, r1
 8002e74:	6053      	str	r3, [r2, #4]

          /* Decrease number of wait states update if necessary */
          if(RCC_SetFlashLatencyFromMSIRange(RCC_OscInitStruct->MSIClockRange) != HAL_OK)
 8002e76:	687b      	ldr	r3, [r7, #4]
 8002e78:	6a5b      	ldr	r3, [r3, #36]	; 0x24
 8002e7a:	0018      	movs	r0, r3
 8002e7c:	f000 fbe8 	bl	8003650 <RCC_SetFlashLatencyFromMSIRange>
 8002e80:	1e03      	subs	r3, r0, #0
 8002e82:	d001      	beq.n	8002e88 <HAL_RCC_OscConfig+0x2c0>
          {
            return HAL_ERROR;
 8002e84:	2301      	movs	r3, #1
 8002e86:	e237      	b.n	80032f8 <HAL_RCC_OscConfig+0x730>
          }          
        }

        /* Update the SystemCoreClock global variable */
        SystemCoreClock =  (32768U * (1U << ((RCC_OscInitStruct->MSIClockRange >> RCC_ICSCR_MSIRANGE_BITNUMBER) + 1U))) 
 8002e88:	687b      	ldr	r3, [r7, #4]
 8002e8a:	6a5b      	ldr	r3, [r3, #36]	; 0x24
 8002e8c:	0b5b      	lsrs	r3, r3, #13
 8002e8e:	3301      	adds	r3, #1
 8002e90:	2280      	movs	r2, #128	; 0x80
 8002e92:	0212      	lsls	r2, r2, #8
 8002e94:	409a      	lsls	r2, r3
                           >> AHBPrescTable[((RCC->CFGR & RCC_CFGR_HPRE) >> RCC_CFGR_HPRE_BITNUMBER)];
 8002e96:	4b13      	ldr	r3, [pc, #76]	; (8002ee4 <HAL_RCC_OscConfig+0x31c>)
 8002e98:	68db      	ldr	r3, [r3, #12]
 8002e9a:	091b      	lsrs	r3, r3, #4
 8002e9c:	210f      	movs	r1, #15
 8002e9e:	400b      	ands	r3, r1
 8002ea0:	4915      	ldr	r1, [pc, #84]	; (8002ef8 <HAL_RCC_OscConfig+0x330>)
 8002ea2:	5ccb      	ldrb	r3, [r1, r3]
 8002ea4:	40da      	lsrs	r2, r3
        SystemCoreClock =  (32768U * (1U << ((RCC_OscInitStruct->MSIClockRange >> RCC_ICSCR_MSIRANGE_BITNUMBER) + 1U))) 
 8002ea6:	4b15      	ldr	r3, [pc, #84]	; (8002efc <HAL_RCC_OscConfig+0x334>)
 8002ea8:	601a      	str	r2, [r3, #0]

        /* Configure the source of time base considering new system clocks settings*/
        HAL_InitTick (TICK_INT_PRIORITY);
 8002eaa:	2000      	movs	r0, #0
 8002eac:	f7fe fb7c 	bl	80015a8 <HAL_InitTick>
 8002eb0:	e05a      	b.n	8002f68 <HAL_RCC_OscConfig+0x3a0>
    {
      /* Check MSI State */
      assert_param(IS_RCC_MSI(RCC_OscInitStruct->MSIState));

      /* Check the MSI State */
      if(RCC_OscInitStruct->MSIState != RCC_MSI_OFF)
 8002eb2:	687b      	ldr	r3, [r7, #4]
 8002eb4:	69db      	ldr	r3, [r3, #28]
 8002eb6:	2b00      	cmp	r3, #0
 8002eb8:	d03c      	beq.n	8002f34 <HAL_RCC_OscConfig+0x36c>
      {
        /* Enable the Multi Speed oscillator (MSI). */
        __HAL_RCC_MSI_ENABLE();
 8002eba:	4b0a      	ldr	r3, [pc, #40]	; (8002ee4 <HAL_RCC_OscConfig+0x31c>)
 8002ebc:	4a09      	ldr	r2, [pc, #36]	; (8002ee4 <HAL_RCC_OscConfig+0x31c>)
 8002ebe:	6812      	ldr	r2, [r2, #0]
 8002ec0:	2180      	movs	r1, #128	; 0x80
 8002ec2:	0049      	lsls	r1, r1, #1
 8002ec4:	430a      	orrs	r2, r1
 8002ec6:	601a      	str	r2, [r3, #0]

        /* Get Start Tick */
        tickstart = HAL_GetTick();
 8002ec8:	f7fe fb98 	bl	80015fc <HAL_GetTick>
 8002ecc:	0003      	movs	r3, r0
 8002ece:	613b      	str	r3, [r7, #16]

        /* Wait till MSI is ready */
        while(__HAL_RCC_GET_FLAG(RCC_FLAG_MSIRDY) == RESET)
 8002ed0:	e016      	b.n	8002f00 <HAL_RCC_OscConfig+0x338>
        {
          if((HAL_GetTick() - tickstart) > MSI_TIMEOUT_VALUE)
 8002ed2:	f7fe fb93 	bl	80015fc <HAL_GetTick>
 8002ed6:	0002      	movs	r2, r0
 8002ed8:	693b      	ldr	r3, [r7, #16]
 8002eda:	1ad3      	subs	r3, r2, r3
 8002edc:	2b02      	cmp	r3, #2
 8002ede:	d90f      	bls.n	8002f00 <HAL_RCC_OscConfig+0x338>
          {
            return HAL_TIMEOUT;
 8002ee0:	2303      	movs	r3, #3
 8002ee2:	e209      	b.n	80032f8 <HAL_RCC_OscConfig+0x730>
 8002ee4:	40021000 	.word	0x40021000
 8002ee8:	fffeffff 	.word	0xfffeffff
 8002eec:	fffbffff 	.word	0xfffbffff
 8002ef0:	ffffe0ff 	.word	0xffffe0ff
 8002ef4:	ffff1fff 	.word	0xffff1fff
 8002ef8:	0800742c 	.word	0x0800742c
 8002efc:	20000004 	.word	0x20000004
        while(__HAL_RCC_GET_FLAG(RCC_FLAG_MSIRDY) == RESET)
 8002f00:	4bc7      	ldr	r3, [pc, #796]	; (8003220 <HAL_RCC_OscConfig+0x658>)
 8002f02:	681a      	ldr	r2, [r3, #0]
 8002f04:	2380      	movs	r3, #128	; 0x80
 8002f06:	009b      	lsls	r3, r3, #2
 8002f08:	4013      	ands	r3, r2
 8002f0a:	d0e2      	beq.n	8002ed2 <HAL_RCC_OscConfig+0x30a>
        /* Check MSICalibrationValue and MSIClockRange input parameters */
        assert_param(IS_RCC_MSICALIBRATION_VALUE(RCC_OscInitStruct->MSICalibrationValue));
        assert_param(IS_RCC_MSI_CLOCK_RANGE(RCC_OscInitStruct->MSIClockRange));

        /* Selects the Multiple Speed oscillator (MSI) clock range .*/
        __HAL_RCC_MSI_RANGE_CONFIG(RCC_OscInitStruct->MSIClockRange);
 8002f0c:	4ac4      	ldr	r2, [pc, #784]	; (8003220 <HAL_RCC_OscConfig+0x658>)
 8002f0e:	4bc4      	ldr	r3, [pc, #784]	; (8003220 <HAL_RCC_OscConfig+0x658>)
 8002f10:	685b      	ldr	r3, [r3, #4]
 8002f12:	49c4      	ldr	r1, [pc, #784]	; (8003224 <HAL_RCC_OscConfig+0x65c>)
 8002f14:	4019      	ands	r1, r3
 8002f16:	687b      	ldr	r3, [r7, #4]
 8002f18:	6a5b      	ldr	r3, [r3, #36]	; 0x24
 8002f1a:	430b      	orrs	r3, r1
 8002f1c:	6053      	str	r3, [r2, #4]
         /* Adjusts the Multiple Speed oscillator (MSI) calibration value.*/
        __HAL_RCC_MSI_CALIBRATIONVALUE_ADJUST(RCC_OscInitStruct->MSICalibrationValue);
 8002f1e:	4ac0      	ldr	r2, [pc, #768]	; (8003220 <HAL_RCC_OscConfig+0x658>)
 8002f20:	4bbf      	ldr	r3, [pc, #764]	; (8003220 <HAL_RCC_OscConfig+0x658>)
 8002f22:	685b      	ldr	r3, [r3, #4]
 8002f24:	021b      	lsls	r3, r3, #8
 8002f26:	0a19      	lsrs	r1, r3, #8
 8002f28:	687b      	ldr	r3, [r7, #4]
 8002f2a:	6a1b      	ldr	r3, [r3, #32]
 8002f2c:	061b      	lsls	r3, r3, #24
 8002f2e:	430b      	orrs	r3, r1
 8002f30:	6053      	str	r3, [r2, #4]
 8002f32:	e019      	b.n	8002f68 <HAL_RCC_OscConfig+0x3a0>

      }
      else
      {
        /* Disable the Multi Speed oscillator (MSI). */
        __HAL_RCC_MSI_DISABLE();
 8002f34:	4bba      	ldr	r3, [pc, #744]	; (8003220 <HAL_RCC_OscConfig+0x658>)
 8002f36:	4aba      	ldr	r2, [pc, #744]	; (8003220 <HAL_RCC_OscConfig+0x658>)
 8002f38:	6812      	ldr	r2, [r2, #0]
 8002f3a:	49bb      	ldr	r1, [pc, #748]	; (8003228 <HAL_RCC_OscConfig+0x660>)
 8002f3c:	400a      	ands	r2, r1
 8002f3e:	601a      	str	r2, [r3, #0]

        /* Get Start Tick */
        tickstart = HAL_GetTick();
 8002f40:	f7fe fb5c 	bl	80015fc <HAL_GetTick>
 8002f44:	0003      	movs	r3, r0
 8002f46:	613b      	str	r3, [r7, #16]

        /* Wait till MSI is ready */
        while(__HAL_RCC_GET_FLAG(RCC_FLAG_MSIRDY) != RESET)
 8002f48:	e008      	b.n	8002f5c <HAL_RCC_OscConfig+0x394>
        {
          if((HAL_GetTick() - tickstart) > MSI_TIMEOUT_VALUE)
 8002f4a:	f7fe fb57 	bl	80015fc <HAL_GetTick>
 8002f4e:	0002      	movs	r2, r0
 8002f50:	693b      	ldr	r3, [r7, #16]
 8002f52:	1ad3      	subs	r3, r2, r3
 8002f54:	2b02      	cmp	r3, #2
 8002f56:	d901      	bls.n	8002f5c <HAL_RCC_OscConfig+0x394>
          {
            return HAL_TIMEOUT;
 8002f58:	2303      	movs	r3, #3
 8002f5a:	e1cd      	b.n	80032f8 <HAL_RCC_OscConfig+0x730>
        while(__HAL_RCC_GET_FLAG(RCC_FLAG_MSIRDY) != RESET)
 8002f5c:	4bb0      	ldr	r3, [pc, #704]	; (8003220 <HAL_RCC_OscConfig+0x658>)
 8002f5e:	681a      	ldr	r2, [r3, #0]
 8002f60:	2380      	movs	r3, #128	; 0x80
 8002f62:	009b      	lsls	r3, r3, #2
 8002f64:	4013      	ands	r3, r2
 8002f66:	d1f0      	bne.n	8002f4a <HAL_RCC_OscConfig+0x382>
        }
      }
    }
  }  
  /*------------------------------ LSI Configuration -------------------------*/ 
  if(((RCC_OscInitStruct->OscillatorType) & RCC_OSCILLATORTYPE_LSI) == RCC_OSCILLATORTYPE_LSI)
 8002f68:	687b      	ldr	r3, [r7, #4]
 8002f6a:	681b      	ldr	r3, [r3, #0]
 8002f6c:	2208      	movs	r2, #8
 8002f6e:	4013      	ands	r3, r2
 8002f70:	d036      	beq.n	8002fe0 <HAL_RCC_OscConfig+0x418>
  {
    /* Check the parameters */
    assert_param(IS_RCC_LSI(RCC_OscInitStruct->LSIState));
    
    /* Check the LSI State */
    if(RCC_OscInitStruct->LSIState != RCC_LSI_OFF)
 8002f72:	687b      	ldr	r3, [r7, #4]
 8002f74:	695b      	ldr	r3, [r3, #20]
 8002f76:	2b00      	cmp	r3, #0
 8002f78:	d019      	beq.n	8002fae <HAL_RCC_OscConfig+0x3e6>
    {
      /* Enable the Internal Low Speed oscillator (LSI). */
      __HAL_RCC_LSI_ENABLE();
 8002f7a:	4ba9      	ldr	r3, [pc, #676]	; (8003220 <HAL_RCC_OscConfig+0x658>)
 8002f7c:	4aa8      	ldr	r2, [pc, #672]	; (8003220 <HAL_RCC_OscConfig+0x658>)
 8002f7e:	6d12      	ldr	r2, [r2, #80]	; 0x50
 8002f80:	2101      	movs	r1, #1
 8002f82:	430a      	orrs	r2, r1
 8002f84:	651a      	str	r2, [r3, #80]	; 0x50
      
      /* Get Start Tick */
      tickstart = HAL_GetTick();
 8002f86:	f7fe fb39 	bl	80015fc <HAL_GetTick>
 8002f8a:	0003      	movs	r3, r0
 8002f8c:	613b      	str	r3, [r7, #16]
      
      /* Wait till LSI is ready */  
      while(__HAL_RCC_GET_FLAG(RCC_FLAG_LSIRDY) == RESET)
 8002f8e:	e008      	b.n	8002fa2 <HAL_RCC_OscConfig+0x3da>
      {
        if((HAL_GetTick() - tickstart ) > LSI_TIMEOUT_VALUE)
 8002f90:	f7fe fb34 	bl	80015fc <HAL_GetTick>
 8002f94:	0002      	movs	r2, r0
 8002f96:	693b      	ldr	r3, [r7, #16]
 8002f98:	1ad3      	subs	r3, r2, r3
 8002f9a:	2b02      	cmp	r3, #2
 8002f9c:	d901      	bls.n	8002fa2 <HAL_RCC_OscConfig+0x3da>
        {
          return HAL_TIMEOUT;
 8002f9e:	2303      	movs	r3, #3
 8002fa0:	e1aa      	b.n	80032f8 <HAL_RCC_OscConfig+0x730>
      while(__HAL_RCC_GET_FLAG(RCC_FLAG_LSIRDY) == RESET)
 8002fa2:	4b9f      	ldr	r3, [pc, #636]	; (8003220 <HAL_RCC_OscConfig+0x658>)
 8002fa4:	6d1b      	ldr	r3, [r3, #80]	; 0x50
 8002fa6:	2202      	movs	r2, #2
 8002fa8:	4013      	ands	r3, r2
 8002faa:	d0f1      	beq.n	8002f90 <HAL_RCC_OscConfig+0x3c8>
 8002fac:	e018      	b.n	8002fe0 <HAL_RCC_OscConfig+0x418>
      }
    }
    else
    {
      /* Disable the Internal Low Speed oscillator (LSI). */
      __HAL_RCC_LSI_DISABLE();
 8002fae:	4b9c      	ldr	r3, [pc, #624]	; (8003220 <HAL_RCC_OscConfig+0x658>)
 8002fb0:	4a9b      	ldr	r2, [pc, #620]	; (8003220 <HAL_RCC_OscConfig+0x658>)
 8002fb2:	6d12      	ldr	r2, [r2, #80]	; 0x50
 8002fb4:	2101      	movs	r1, #1
 8002fb6:	438a      	bics	r2, r1
 8002fb8:	651a      	str	r2, [r3, #80]	; 0x50
      
      /* Get Start Tick */
      tickstart = HAL_GetTick();
 8002fba:	f7fe fb1f 	bl	80015fc <HAL_GetTick>
 8002fbe:	0003      	movs	r3, r0
 8002fc0:	613b      	str	r3, [r7, #16]
      
      /* Wait till LSI is disabled */  
      while(__HAL_RCC_GET_FLAG(RCC_FLAG_LSIRDY) != RESET)
 8002fc2:	e008      	b.n	8002fd6 <HAL_RCC_OscConfig+0x40e>
      {
        if((HAL_GetTick() - tickstart ) > LSI_TIMEOUT_VALUE)
 8002fc4:	f7fe fb1a 	bl	80015fc <HAL_GetTick>
 8002fc8:	0002      	movs	r2, r0
 8002fca:	693b      	ldr	r3, [r7, #16]
 8002fcc:	1ad3      	subs	r3, r2, r3
 8002fce:	2b02      	cmp	r3, #2
 8002fd0:	d901      	bls.n	8002fd6 <HAL_RCC_OscConfig+0x40e>
        {
          return HAL_TIMEOUT;
 8002fd2:	2303      	movs	r3, #3
 8002fd4:	e190      	b.n	80032f8 <HAL_RCC_OscConfig+0x730>
      while(__HAL_RCC_GET_FLAG(RCC_FLAG_LSIRDY) != RESET)
 8002fd6:	4b92      	ldr	r3, [pc, #584]	; (8003220 <HAL_RCC_OscConfig+0x658>)
 8002fd8:	6d1b      	ldr	r3, [r3, #80]	; 0x50
 8002fda:	2202      	movs	r2, #2
 8002fdc:	4013      	ands	r3, r2
 8002fde:	d1f1      	bne.n	8002fc4 <HAL_RCC_OscConfig+0x3fc>
        }
      }
    }
  }
  /*------------------------------ LSE Configuration -------------------------*/ 
  if(((RCC_OscInitStruct->OscillatorType) & RCC_OSCILLATORTYPE_LSE) == RCC_OSCILLATORTYPE_LSE)
 8002fe0:	687b      	ldr	r3, [r7, #4]
 8002fe2:	681b      	ldr	r3, [r3, #0]
 8002fe4:	2204      	movs	r2, #4
 8002fe6:	4013      	ands	r3, r2
 8002fe8:	d100      	bne.n	8002fec <HAL_RCC_OscConfig+0x424>
 8002fea:	e0af      	b.n	800314c <HAL_RCC_OscConfig+0x584>
  {
    FlagStatus       pwrclkchanged = RESET;
 8002fec:	2317      	movs	r3, #23
 8002fee:	18fb      	adds	r3, r7, r3
 8002ff0:	2200      	movs	r2, #0
 8002ff2:	701a      	strb	r2, [r3, #0]
    /* Check the parameters */
    assert_param(IS_RCC_LSE(RCC_OscInitStruct->LSEState));

    /* Update LSE configuration in Backup Domain control register    */
    /* Requires to enable write access to Backup Domain of necessary */
    if(__HAL_RCC_PWR_IS_CLK_DISABLED())
 8002ff4:	4b8a      	ldr	r3, [pc, #552]	; (8003220 <HAL_RCC_OscConfig+0x658>)
 8002ff6:	6b9a      	ldr	r2, [r3, #56]	; 0x38
 8002ff8:	2380      	movs	r3, #128	; 0x80
 8002ffa:	055b      	lsls	r3, r3, #21
 8002ffc:	4013      	ands	r3, r2
 8002ffe:	d10a      	bne.n	8003016 <HAL_RCC_OscConfig+0x44e>
    {
      __HAL_RCC_PWR_CLK_ENABLE();
 8003000:	4b87      	ldr	r3, [pc, #540]	; (8003220 <HAL_RCC_OscConfig+0x658>)
 8003002:	4a87      	ldr	r2, [pc, #540]	; (8003220 <HAL_RCC_OscConfig+0x658>)
 8003004:	6b92      	ldr	r2, [r2, #56]	; 0x38
 8003006:	2180      	movs	r1, #128	; 0x80
 8003008:	0549      	lsls	r1, r1, #21
 800300a:	430a      	orrs	r2, r1
 800300c:	639a      	str	r2, [r3, #56]	; 0x38
      pwrclkchanged = SET;
 800300e:	2317      	movs	r3, #23
 8003010:	18fb      	adds	r3, r7, r3
 8003012:	2201      	movs	r2, #1
 8003014:	701a      	strb	r2, [r3, #0]
    }
    
    if(HAL_IS_BIT_CLR(PWR->CR, PWR_CR_DBP))
 8003016:	4b85      	ldr	r3, [pc, #532]	; (800322c <HAL_RCC_OscConfig+0x664>)
 8003018:	681a      	ldr	r2, [r3, #0]
 800301a:	2380      	movs	r3, #128	; 0x80
 800301c:	005b      	lsls	r3, r3, #1
 800301e:	4013      	ands	r3, r2
 8003020:	d11a      	bne.n	8003058 <HAL_RCC_OscConfig+0x490>
    {
      /* Enable write access to Backup domain */
      SET_BIT(PWR->CR, PWR_CR_DBP);
 8003022:	4b82      	ldr	r3, [pc, #520]	; (800322c <HAL_RCC_OscConfig+0x664>)
 8003024:	4a81      	ldr	r2, [pc, #516]	; (800322c <HAL_RCC_OscConfig+0x664>)
 8003026:	6812      	ldr	r2, [r2, #0]
 8003028:	2180      	movs	r1, #128	; 0x80
 800302a:	0049      	lsls	r1, r1, #1
 800302c:	430a      	orrs	r2, r1
 800302e:	601a      	str	r2, [r3, #0]
      
      /* Wait for Backup domain Write protection disable */
      tickstart = HAL_GetTick();
 8003030:	f7fe fae4 	bl	80015fc <HAL_GetTick>
 8003034:	0003      	movs	r3, r0
 8003036:	613b      	str	r3, [r7, #16]

      while(HAL_IS_BIT_CLR(PWR->CR, PWR_CR_DBP))
 8003038:	e008      	b.n	800304c <HAL_RCC_OscConfig+0x484>
      {
        if((HAL_GetTick() - tickstart) > RCC_DBP_TIMEOUT_VALUE)
 800303a:	f7fe fadf 	bl	80015fc <HAL_GetTick>
 800303e:	0002      	movs	r2, r0
 8003040:	693b      	ldr	r3, [r7, #16]
 8003042:	1ad3      	subs	r3, r2, r3
 8003044:	2b64      	cmp	r3, #100	; 0x64
 8003046:	d901      	bls.n	800304c <HAL_RCC_OscConfig+0x484>
        {
          return HAL_TIMEOUT;
 8003048:	2303      	movs	r3, #3
 800304a:	e155      	b.n	80032f8 <HAL_RCC_OscConfig+0x730>
      while(HAL_IS_BIT_CLR(PWR->CR, PWR_CR_DBP))
 800304c:	4b77      	ldr	r3, [pc, #476]	; (800322c <HAL_RCC_OscConfig+0x664>)
 800304e:	681a      	ldr	r2, [r3, #0]
 8003050:	2380      	movs	r3, #128	; 0x80
 8003052:	005b      	lsls	r3, r3, #1
 8003054:	4013      	ands	r3, r2
 8003056:	d0f0      	beq.n	800303a <HAL_RCC_OscConfig+0x472>
        }
      }
    }

    /* Set the new LSE configuration -----------------------------------------*/
    __HAL_RCC_LSE_CONFIG(RCC_OscInitStruct->LSEState);
 8003058:	687b      	ldr	r3, [r7, #4]
 800305a:	689a      	ldr	r2, [r3, #8]
 800305c:	2380      	movs	r3, #128	; 0x80
 800305e:	005b      	lsls	r3, r3, #1
 8003060:	429a      	cmp	r2, r3
 8003062:	d107      	bne.n	8003074 <HAL_RCC_OscConfig+0x4ac>
 8003064:	4b6e      	ldr	r3, [pc, #440]	; (8003220 <HAL_RCC_OscConfig+0x658>)
 8003066:	4a6e      	ldr	r2, [pc, #440]	; (8003220 <HAL_RCC_OscConfig+0x658>)
 8003068:	6d12      	ldr	r2, [r2, #80]	; 0x50
 800306a:	2180      	movs	r1, #128	; 0x80
 800306c:	0049      	lsls	r1, r1, #1
 800306e:	430a      	orrs	r2, r1
 8003070:	651a      	str	r2, [r3, #80]	; 0x50
 8003072:	e031      	b.n	80030d8 <HAL_RCC_OscConfig+0x510>
 8003074:	687b      	ldr	r3, [r7, #4]
 8003076:	689b      	ldr	r3, [r3, #8]
 8003078:	2b00      	cmp	r3, #0
 800307a:	d10c      	bne.n	8003096 <HAL_RCC_OscConfig+0x4ce>
 800307c:	4b68      	ldr	r3, [pc, #416]	; (8003220 <HAL_RCC_OscConfig+0x658>)
 800307e:	4a68      	ldr	r2, [pc, #416]	; (8003220 <HAL_RCC_OscConfig+0x658>)
 8003080:	6d12      	ldr	r2, [r2, #80]	; 0x50
 8003082:	4969      	ldr	r1, [pc, #420]	; (8003228 <HAL_RCC_OscConfig+0x660>)
 8003084:	400a      	ands	r2, r1
 8003086:	651a      	str	r2, [r3, #80]	; 0x50
 8003088:	4b65      	ldr	r3, [pc, #404]	; (8003220 <HAL_RCC_OscConfig+0x658>)
 800308a:	4a65      	ldr	r2, [pc, #404]	; (8003220 <HAL_RCC_OscConfig+0x658>)
 800308c:	6d12      	ldr	r2, [r2, #80]	; 0x50
 800308e:	4968      	ldr	r1, [pc, #416]	; (8003230 <HAL_RCC_OscConfig+0x668>)
 8003090:	400a      	ands	r2, r1
 8003092:	651a      	str	r2, [r3, #80]	; 0x50
 8003094:	e020      	b.n	80030d8 <HAL_RCC_OscConfig+0x510>
 8003096:	687b      	ldr	r3, [r7, #4]
 8003098:	689a      	ldr	r2, [r3, #8]
 800309a:	23a0      	movs	r3, #160	; 0xa0
 800309c:	00db      	lsls	r3, r3, #3
 800309e:	429a      	cmp	r2, r3
 80030a0:	d10e      	bne.n	80030c0 <HAL_RCC_OscConfig+0x4f8>
 80030a2:	4b5f      	ldr	r3, [pc, #380]	; (8003220 <HAL_RCC_OscConfig+0x658>)
 80030a4:	4a5e      	ldr	r2, [pc, #376]	; (8003220 <HAL_RCC_OscConfig+0x658>)
 80030a6:	6d12      	ldr	r2, [r2, #80]	; 0x50
 80030a8:	2180      	movs	r1, #128	; 0x80
 80030aa:	00c9      	lsls	r1, r1, #3
 80030ac:	430a      	orrs	r2, r1
 80030ae:	651a      	str	r2, [r3, #80]	; 0x50
 80030b0:	4b5b      	ldr	r3, [pc, #364]	; (8003220 <HAL_RCC_OscConfig+0x658>)
 80030b2:	4a5b      	ldr	r2, [pc, #364]	; (8003220 <HAL_RCC_OscConfig+0x658>)
 80030b4:	6d12      	ldr	r2, [r2, #80]	; 0x50
 80030b6:	2180      	movs	r1, #128	; 0x80
 80030b8:	0049      	lsls	r1, r1, #1
 80030ba:	430a      	orrs	r2, r1
 80030bc:	651a      	str	r2, [r3, #80]	; 0x50
 80030be:	e00b      	b.n	80030d8 <HAL_RCC_OscConfig+0x510>
 80030c0:	4b57      	ldr	r3, [pc, #348]	; (8003220 <HAL_RCC_OscConfig+0x658>)
 80030c2:	4a57      	ldr	r2, [pc, #348]	; (8003220 <HAL_RCC_OscConfig+0x658>)
 80030c4:	6d12      	ldr	r2, [r2, #80]	; 0x50
 80030c6:	4958      	ldr	r1, [pc, #352]	; (8003228 <HAL_RCC_OscConfig+0x660>)
 80030c8:	400a      	ands	r2, r1
 80030ca:	651a      	str	r2, [r3, #80]	; 0x50
 80030cc:	4b54      	ldr	r3, [pc, #336]	; (8003220 <HAL_RCC_OscConfig+0x658>)
 80030ce:	4a54      	ldr	r2, [pc, #336]	; (8003220 <HAL_RCC_OscConfig+0x658>)
 80030d0:	6d12      	ldr	r2, [r2, #80]	; 0x50
 80030d2:	4957      	ldr	r1, [pc, #348]	; (8003230 <HAL_RCC_OscConfig+0x668>)
 80030d4:	400a      	ands	r2, r1
 80030d6:	651a      	str	r2, [r3, #80]	; 0x50
    /* Check the LSE State */
    if(RCC_OscInitStruct->LSEState != RCC_LSE_OFF)
 80030d8:	687b      	ldr	r3, [r7, #4]
 80030da:	689b      	ldr	r3, [r3, #8]
 80030dc:	2b00      	cmp	r3, #0
 80030de:	d015      	beq.n	800310c <HAL_RCC_OscConfig+0x544>
    {
      /* Get Start Tick */
      tickstart = HAL_GetTick();
 80030e0:	f7fe fa8c 	bl	80015fc <HAL_GetTick>
 80030e4:	0003      	movs	r3, r0
 80030e6:	613b      	str	r3, [r7, #16]
      
      /* Wait till LSE is ready */  
      while(__HAL_RCC_GET_FLAG(RCC_FLAG_LSERDY) == RESET)
 80030e8:	e009      	b.n	80030fe <HAL_RCC_OscConfig+0x536>
      {
        if((HAL_GetTick() - tickstart ) > RCC_LSE_TIMEOUT_VALUE)
 80030ea:	f7fe fa87 	bl	80015fc <HAL_GetTick>
 80030ee:	0002      	movs	r2, r0
 80030f0:	693b      	ldr	r3, [r7, #16]
 80030f2:	1ad3      	subs	r3, r2, r3
 80030f4:	4a4f      	ldr	r2, [pc, #316]	; (8003234 <HAL_RCC_OscConfig+0x66c>)
 80030f6:	4293      	cmp	r3, r2
 80030f8:	d901      	bls.n	80030fe <HAL_RCC_OscConfig+0x536>
        {
          return HAL_TIMEOUT;
 80030fa:	2303      	movs	r3, #3
 80030fc:	e0fc      	b.n	80032f8 <HAL_RCC_OscConfig+0x730>
      while(__HAL_RCC_GET_FLAG(RCC_FLAG_LSERDY) == RESET)
 80030fe:	4b48      	ldr	r3, [pc, #288]	; (8003220 <HAL_RCC_OscConfig+0x658>)
 8003100:	6d1a      	ldr	r2, [r3, #80]	; 0x50
 8003102:	2380      	movs	r3, #128	; 0x80
 8003104:	009b      	lsls	r3, r3, #2
 8003106:	4013      	ands	r3, r2
 8003108:	d0ef      	beq.n	80030ea <HAL_RCC_OscConfig+0x522>
 800310a:	e014      	b.n	8003136 <HAL_RCC_OscConfig+0x56e>
      }
    }
    else
    {
      /* Get Start Tick */
      tickstart = HAL_GetTick();
 800310c:	f7fe fa76 	bl	80015fc <HAL_GetTick>
 8003110:	0003      	movs	r3, r0
 8003112:	613b      	str	r3, [r7, #16]
      
      /* Wait till LSE is disabled */  
      while(__HAL_RCC_GET_FLAG(RCC_FLAG_LSERDY) != RESET)
 8003114:	e009      	b.n	800312a <HAL_RCC_OscConfig+0x562>
      {
        if((HAL_GetTick() - tickstart ) > RCC_LSE_TIMEOUT_VALUE)
 8003116:	f7fe fa71 	bl	80015fc <HAL_GetTick>
 800311a:	0002      	movs	r2, r0
 800311c:	693b      	ldr	r3, [r7, #16]
 800311e:	1ad3      	subs	r3, r2, r3
 8003120:	4a44      	ldr	r2, [pc, #272]	; (8003234 <HAL_RCC_OscConfig+0x66c>)
 8003122:	4293      	cmp	r3, r2
 8003124:	d901      	bls.n	800312a <HAL_RCC_OscConfig+0x562>
        {
          return HAL_TIMEOUT;
 8003126:	2303      	movs	r3, #3
 8003128:	e0e6      	b.n	80032f8 <HAL_RCC_OscConfig+0x730>
      while(__HAL_RCC_GET_FLAG(RCC_FLAG_LSERDY) != RESET)
 800312a:	4b3d      	ldr	r3, [pc, #244]	; (8003220 <HAL_RCC_OscConfig+0x658>)
 800312c:	6d1a      	ldr	r2, [r3, #80]	; 0x50
 800312e:	2380      	movs	r3, #128	; 0x80
 8003130:	009b      	lsls	r3, r3, #2
 8003132:	4013      	ands	r3, r2
 8003134:	d1ef      	bne.n	8003116 <HAL_RCC_OscConfig+0x54e>
        }
      }
    }

    /* Require to disable power clock if necessary */
    if(pwrclkchanged == SET)
 8003136:	2317      	movs	r3, #23
 8003138:	18fb      	adds	r3, r7, r3
 800313a:	781b      	ldrb	r3, [r3, #0]
 800313c:	2b01      	cmp	r3, #1
 800313e:	d105      	bne.n	800314c <HAL_RCC_OscConfig+0x584>
    {
      __HAL_RCC_PWR_CLK_DISABLE();
 8003140:	4b37      	ldr	r3, [pc, #220]	; (8003220 <HAL_RCC_OscConfig+0x658>)
 8003142:	4a37      	ldr	r2, [pc, #220]	; (8003220 <HAL_RCC_OscConfig+0x658>)
 8003144:	6b92      	ldr	r2, [r2, #56]	; 0x38
 8003146:	493c      	ldr	r1, [pc, #240]	; (8003238 <HAL_RCC_OscConfig+0x670>)
 8003148:	400a      	ands	r2, r1
 800314a:	639a      	str	r2, [r3, #56]	; 0x38
    }
  }

#if defined(RCC_HSI48_SUPPORT)
  /*----------------------------- HSI48 Configuration --------------------------*/
  if(((RCC_OscInitStruct->OscillatorType) & RCC_OSCILLATORTYPE_HSI48) == RCC_OSCILLATORTYPE_HSI48)
 800314c:	687b      	ldr	r3, [r7, #4]
 800314e:	681b      	ldr	r3, [r3, #0]
 8003150:	2220      	movs	r2, #32
 8003152:	4013      	ands	r3, r2
 8003154:	d049      	beq.n	80031ea <HAL_RCC_OscConfig+0x622>
  {
    /* Check the parameters */
    assert_param(IS_RCC_HSI48(RCC_OscInitStruct->HSI48State));

      /* Check the HSI48 State */
      if(RCC_OscInitStruct->HSI48State != RCC_HSI48_OFF)
 8003156:	687b      	ldr	r3, [r7, #4]
 8003158:	699b      	ldr	r3, [r3, #24]
 800315a:	2b00      	cmp	r3, #0
 800315c:	d026      	beq.n	80031ac <HAL_RCC_OscConfig+0x5e4>
      {
        /* Enable the Internal High Speed oscillator (HSI48). */
        __HAL_RCC_HSI48_ENABLE();
 800315e:	4b30      	ldr	r3, [pc, #192]	; (8003220 <HAL_RCC_OscConfig+0x658>)
 8003160:	4a2f      	ldr	r2, [pc, #188]	; (8003220 <HAL_RCC_OscConfig+0x658>)
 8003162:	6892      	ldr	r2, [r2, #8]
 8003164:	2101      	movs	r1, #1
 8003166:	430a      	orrs	r2, r1
 8003168:	609a      	str	r2, [r3, #8]
 800316a:	4b2d      	ldr	r3, [pc, #180]	; (8003220 <HAL_RCC_OscConfig+0x658>)
 800316c:	4a2c      	ldr	r2, [pc, #176]	; (8003220 <HAL_RCC_OscConfig+0x658>)
 800316e:	6b52      	ldr	r2, [r2, #52]	; 0x34
 8003170:	2101      	movs	r1, #1
 8003172:	430a      	orrs	r2, r1
 8003174:	635a      	str	r2, [r3, #52]	; 0x34
 8003176:	4b31      	ldr	r3, [pc, #196]	; (800323c <HAL_RCC_OscConfig+0x674>)
 8003178:	4a30      	ldr	r2, [pc, #192]	; (800323c <HAL_RCC_OscConfig+0x674>)
 800317a:	6a12      	ldr	r2, [r2, #32]
 800317c:	2180      	movs	r1, #128	; 0x80
 800317e:	0189      	lsls	r1, r1, #6
 8003180:	430a      	orrs	r2, r1
 8003182:	621a      	str	r2, [r3, #32]

        /* Get Start Tick */
        tickstart = HAL_GetTick();
 8003184:	f7fe fa3a 	bl	80015fc <HAL_GetTick>
 8003188:	0003      	movs	r3, r0
 800318a:	613b      	str	r3, [r7, #16]
      
        /* Wait till HSI48 is ready */  
        while(__HAL_RCC_GET_FLAG(RCC_FLAG_HSI48RDY) == RESET)
 800318c:	e008      	b.n	80031a0 <HAL_RCC_OscConfig+0x5d8>
        {
          if((HAL_GetTick() - tickstart) > HSI48_TIMEOUT_VALUE)
 800318e:	f7fe fa35 	bl	80015fc <HAL_GetTick>
 8003192:	0002      	movs	r2, r0
 8003194:	693b      	ldr	r3, [r7, #16]
 8003196:	1ad3      	subs	r3, r2, r3
 8003198:	2b02      	cmp	r3, #2
 800319a:	d901      	bls.n	80031a0 <HAL_RCC_OscConfig+0x5d8>
          {
            return HAL_TIMEOUT;
 800319c:	2303      	movs	r3, #3
 800319e:	e0ab      	b.n	80032f8 <HAL_RCC_OscConfig+0x730>
        while(__HAL_RCC_GET_FLAG(RCC_FLAG_HSI48RDY) == RESET)
 80031a0:	4b1f      	ldr	r3, [pc, #124]	; (8003220 <HAL_RCC_OscConfig+0x658>)
 80031a2:	689b      	ldr	r3, [r3, #8]
 80031a4:	2202      	movs	r2, #2
 80031a6:	4013      	ands	r3, r2
 80031a8:	d0f1      	beq.n	800318e <HAL_RCC_OscConfig+0x5c6>
 80031aa:	e01e      	b.n	80031ea <HAL_RCC_OscConfig+0x622>
        } 
      }
      else
      {
        /* Disable the Internal High Speed oscillator (HSI48). */
        __HAL_RCC_HSI48_DISABLE();
 80031ac:	4b1c      	ldr	r3, [pc, #112]	; (8003220 <HAL_RCC_OscConfig+0x658>)
 80031ae:	4a1c      	ldr	r2, [pc, #112]	; (8003220 <HAL_RCC_OscConfig+0x658>)
 80031b0:	6892      	ldr	r2, [r2, #8]
 80031b2:	2101      	movs	r1, #1
 80031b4:	438a      	bics	r2, r1
 80031b6:	609a      	str	r2, [r3, #8]
 80031b8:	4b20      	ldr	r3, [pc, #128]	; (800323c <HAL_RCC_OscConfig+0x674>)
 80031ba:	4a20      	ldr	r2, [pc, #128]	; (800323c <HAL_RCC_OscConfig+0x674>)
 80031bc:	6a12      	ldr	r2, [r2, #32]
 80031be:	4920      	ldr	r1, [pc, #128]	; (8003240 <HAL_RCC_OscConfig+0x678>)
 80031c0:	400a      	ands	r2, r1
 80031c2:	621a      	str	r2, [r3, #32]

        /* Get Start Tick */
        tickstart = HAL_GetTick();
 80031c4:	f7fe fa1a 	bl	80015fc <HAL_GetTick>
 80031c8:	0003      	movs	r3, r0
 80031ca:	613b      	str	r3, [r7, #16]
      
        /* Wait till HSI48 is ready */  
        while(__HAL_RCC_GET_FLAG(RCC_FLAG_HSI48RDY) != RESET)
 80031cc:	e008      	b.n	80031e0 <HAL_RCC_OscConfig+0x618>
        {
          if((HAL_GetTick() - tickstart) > HSI48_TIMEOUT_VALUE)
 80031ce:	f7fe fa15 	bl	80015fc <HAL_GetTick>
 80031d2:	0002      	movs	r2, r0
 80031d4:	693b      	ldr	r3, [r7, #16]
 80031d6:	1ad3      	subs	r3, r2, r3
 80031d8:	2b02      	cmp	r3, #2
 80031da:	d901      	bls.n	80031e0 <HAL_RCC_OscConfig+0x618>
          {
            return HAL_TIMEOUT;
 80031dc:	2303      	movs	r3, #3
 80031de:	e08b      	b.n	80032f8 <HAL_RCC_OscConfig+0x730>
        while(__HAL_RCC_GET_FLAG(RCC_FLAG_HSI48RDY) != RESET)
 80031e0:	4b0f      	ldr	r3, [pc, #60]	; (8003220 <HAL_RCC_OscConfig+0x658>)
 80031e2:	689b      	ldr	r3, [r3, #8]
 80031e4:	2202      	movs	r2, #2
 80031e6:	4013      	ands	r3, r2
 80031e8:	d1f1      	bne.n	80031ce <HAL_RCC_OscConfig+0x606>
#endif /* RCC_HSI48_SUPPORT */
       
  /*-------------------------------- PLL Configuration -----------------------*/
  /* Check the parameters */
  assert_param(IS_RCC_PLL(RCC_OscInitStruct->PLL.PLLState));
  if ((RCC_OscInitStruct->PLL.PLLState) != RCC_PLL_NONE)
 80031ea:	687b      	ldr	r3, [r7, #4]
 80031ec:	6a9b      	ldr	r3, [r3, #40]	; 0x28
 80031ee:	2b00      	cmp	r3, #0
 80031f0:	d100      	bne.n	80031f4 <HAL_RCC_OscConfig+0x62c>
 80031f2:	e080      	b.n	80032f6 <HAL_RCC_OscConfig+0x72e>
  {
    /* Check if the PLL is used as system clock or not */
    if(__HAL_RCC_GET_SYSCLK_SOURCE() != RCC_SYSCLKSOURCE_STATUS_PLLCLK)
 80031f4:	4b0a      	ldr	r3, [pc, #40]	; (8003220 <HAL_RCC_OscConfig+0x658>)
 80031f6:	68db      	ldr	r3, [r3, #12]
 80031f8:	220c      	movs	r2, #12
 80031fa:	4013      	ands	r3, r2
 80031fc:	2b0c      	cmp	r3, #12
 80031fe:	d100      	bne.n	8003202 <HAL_RCC_OscConfig+0x63a>
 8003200:	e077      	b.n	80032f2 <HAL_RCC_OscConfig+0x72a>
    { 
      if((RCC_OscInitStruct->PLL.PLLState) == RCC_PLL_ON)
 8003202:	687b      	ldr	r3, [r7, #4]
 8003204:	6a9b      	ldr	r3, [r3, #40]	; 0x28
 8003206:	2b02      	cmp	r3, #2
 8003208:	d158      	bne.n	80032bc <HAL_RCC_OscConfig+0x6f4>
        assert_param(IS_RCC_PLLSOURCE(RCC_OscInitStruct->PLL.PLLSource));
        assert_param(IS_RCC_PLL_MUL(RCC_OscInitStruct->PLL.PLLMUL));
        assert_param(IS_RCC_PLL_DIV(RCC_OscInitStruct->PLL.PLLDIV));
  
        /* Disable the main PLL. */
        __HAL_RCC_PLL_DISABLE();
 800320a:	4b05      	ldr	r3, [pc, #20]	; (8003220 <HAL_RCC_OscConfig+0x658>)
 800320c:	4a04      	ldr	r2, [pc, #16]	; (8003220 <HAL_RCC_OscConfig+0x658>)
 800320e:	6812      	ldr	r2, [r2, #0]
 8003210:	490c      	ldr	r1, [pc, #48]	; (8003244 <HAL_RCC_OscConfig+0x67c>)
 8003212:	400a      	ands	r2, r1
 8003214:	601a      	str	r2, [r3, #0]
        
        /* Get Start Tick */
        tickstart = HAL_GetTick();
 8003216:	f7fe f9f1 	bl	80015fc <HAL_GetTick>
 800321a:	0003      	movs	r3, r0
 800321c:	613b      	str	r3, [r7, #16]
        
        /* Wait till PLL is disabled */
        while(__HAL_RCC_GET_FLAG(RCC_FLAG_PLLRDY)  != RESET)
 800321e:	e01c      	b.n	800325a <HAL_RCC_OscConfig+0x692>
 8003220:	40021000 	.word	0x40021000
 8003224:	ffff1fff 	.word	0xffff1fff
 8003228:	fffffeff 	.word	0xfffffeff
 800322c:	40007000 	.word	0x40007000
 8003230:	fffffbff 	.word	0xfffffbff
 8003234:	00001388 	.word	0x00001388
 8003238:	efffffff 	.word	0xefffffff
 800323c:	40010000 	.word	0x40010000
 8003240:	ffffdfff 	.word	0xffffdfff
 8003244:	feffffff 	.word	0xfeffffff
        {
          if((HAL_GetTick() - tickstart ) > PLL_TIMEOUT_VALUE)
 8003248:	f7fe f9d8 	bl	80015fc <HAL_GetTick>
 800324c:	0002      	movs	r2, r0
 800324e:	693b      	ldr	r3, [r7, #16]
 8003250:	1ad3      	subs	r3, r2, r3
 8003252:	2b02      	cmp	r3, #2
 8003254:	d901      	bls.n	800325a <HAL_RCC_OscConfig+0x692>
          {
            return HAL_TIMEOUT;
 8003256:	2303      	movs	r3, #3
 8003258:	e04e      	b.n	80032f8 <HAL_RCC_OscConfig+0x730>
        while(__HAL_RCC_GET_FLAG(RCC_FLAG_PLLRDY)  != RESET)
 800325a:	4b29      	ldr	r3, [pc, #164]	; (8003300 <HAL_RCC_OscConfig+0x738>)
 800325c:	681a      	ldr	r2, [r3, #0]
 800325e:	2380      	movs	r3, #128	; 0x80
 8003260:	049b      	lsls	r3, r3, #18
 8003262:	4013      	ands	r3, r2
 8003264:	d1f0      	bne.n	8003248 <HAL_RCC_OscConfig+0x680>
          }
        }

        /* Configure the main PLL clock source, multiplication and division factors. */
        __HAL_RCC_PLL_CONFIG(RCC_OscInitStruct->PLL.PLLSource,
 8003266:	4a26      	ldr	r2, [pc, #152]	; (8003300 <HAL_RCC_OscConfig+0x738>)
 8003268:	4b25      	ldr	r3, [pc, #148]	; (8003300 <HAL_RCC_OscConfig+0x738>)
 800326a:	68db      	ldr	r3, [r3, #12]
 800326c:	4925      	ldr	r1, [pc, #148]	; (8003304 <HAL_RCC_OscConfig+0x73c>)
 800326e:	4019      	ands	r1, r3
 8003270:	687b      	ldr	r3, [r7, #4]
 8003272:	6ad8      	ldr	r0, [r3, #44]	; 0x2c
 8003274:	687b      	ldr	r3, [r7, #4]
 8003276:	6b1b      	ldr	r3, [r3, #48]	; 0x30
 8003278:	4318      	orrs	r0, r3
 800327a:	687b      	ldr	r3, [r7, #4]
 800327c:	6b5b      	ldr	r3, [r3, #52]	; 0x34
 800327e:	4303      	orrs	r3, r0
 8003280:	430b      	orrs	r3, r1
 8003282:	60d3      	str	r3, [r2, #12]
                             RCC_OscInitStruct->PLL.PLLMUL,
                             RCC_OscInitStruct->PLL.PLLDIV);
        /* Enable the main PLL. */
        __HAL_RCC_PLL_ENABLE();
 8003284:	4b1e      	ldr	r3, [pc, #120]	; (8003300 <HAL_RCC_OscConfig+0x738>)
 8003286:	4a1e      	ldr	r2, [pc, #120]	; (8003300 <HAL_RCC_OscConfig+0x738>)
 8003288:	6812      	ldr	r2, [r2, #0]
 800328a:	2180      	movs	r1, #128	; 0x80
 800328c:	0449      	lsls	r1, r1, #17
 800328e:	430a      	orrs	r2, r1
 8003290:	601a      	str	r2, [r3, #0]
        
        /* Get Start Tick */
        tickstart = HAL_GetTick();
 8003292:	f7fe f9b3 	bl	80015fc <HAL_GetTick>
 8003296:	0003      	movs	r3, r0
 8003298:	613b      	str	r3, [r7, #16]
        
        /* Wait till PLL is ready */
        while(__HAL_RCC_GET_FLAG(RCC_FLAG_PLLRDY)  == RESET)
 800329a:	e008      	b.n	80032ae <HAL_RCC_OscConfig+0x6e6>
        {
          if((HAL_GetTick() - tickstart ) > PLL_TIMEOUT_VALUE)
 800329c:	f7fe f9ae 	bl	80015fc <HAL_GetTick>
 80032a0:	0002      	movs	r2, r0
 80032a2:	693b      	ldr	r3, [r7, #16]
 80032a4:	1ad3      	subs	r3, r2, r3
 80032a6:	2b02      	cmp	r3, #2
 80032a8:	d901      	bls.n	80032ae <HAL_RCC_OscConfig+0x6e6>
          {
            return HAL_TIMEOUT;
 80032aa:	2303      	movs	r3, #3
 80032ac:	e024      	b.n	80032f8 <HAL_RCC_OscConfig+0x730>
        while(__HAL_RCC_GET_FLAG(RCC_FLAG_PLLRDY)  == RESET)
 80032ae:	4b14      	ldr	r3, [pc, #80]	; (8003300 <HAL_RCC_OscConfig+0x738>)
 80032b0:	681a      	ldr	r2, [r3, #0]
 80032b2:	2380      	movs	r3, #128	; 0x80
 80032b4:	049b      	lsls	r3, r3, #18
 80032b6:	4013      	ands	r3, r2
 80032b8:	d0f0      	beq.n	800329c <HAL_RCC_OscConfig+0x6d4>
 80032ba:	e01c      	b.n	80032f6 <HAL_RCC_OscConfig+0x72e>
        }
      }
      else
      {
        /* Disable the main PLL. */
        __HAL_RCC_PLL_DISABLE();
 80032bc:	4b10      	ldr	r3, [pc, #64]	; (8003300 <HAL_RCC_OscConfig+0x738>)
 80032be:	4a10      	ldr	r2, [pc, #64]	; (8003300 <HAL_RCC_OscConfig+0x738>)
 80032c0:	6812      	ldr	r2, [r2, #0]
 80032c2:	4911      	ldr	r1, [pc, #68]	; (8003308 <HAL_RCC_OscConfig+0x740>)
 80032c4:	400a      	ands	r2, r1
 80032c6:	601a      	str	r2, [r3, #0]
 
        /* Get Start Tick */
        tickstart = HAL_GetTick();
 80032c8:	f7fe f998 	bl	80015fc <HAL_GetTick>
 80032cc:	0003      	movs	r3, r0
 80032ce:	613b      	str	r3, [r7, #16]
        
        /* Wait till PLL is disabled */  
        while(__HAL_RCC_GET_FLAG(RCC_FLAG_PLLRDY)  != RESET)
 80032d0:	e008      	b.n	80032e4 <HAL_RCC_OscConfig+0x71c>
        {
          if((HAL_GetTick() - tickstart ) > PLL_TIMEOUT_VALUE)
 80032d2:	f7fe f993 	bl	80015fc <HAL_GetTick>
 80032d6:	0002      	movs	r2, r0
 80032d8:	693b      	ldr	r3, [r7, #16]
 80032da:	1ad3      	subs	r3, r2, r3
 80032dc:	2b02      	cmp	r3, #2
 80032de:	d901      	bls.n	80032e4 <HAL_RCC_OscConfig+0x71c>
          {
            return HAL_TIMEOUT;
 80032e0:	2303      	movs	r3, #3
 80032e2:	e009      	b.n	80032f8 <HAL_RCC_OscConfig+0x730>
        while(__HAL_RCC_GET_FLAG(RCC_FLAG_PLLRDY)  != RESET)
 80032e4:	4b06      	ldr	r3, [pc, #24]	; (8003300 <HAL_RCC_OscConfig+0x738>)
 80032e6:	681a      	ldr	r2, [r3, #0]
 80032e8:	2380      	movs	r3, #128	; 0x80
 80032ea:	049b      	lsls	r3, r3, #18
 80032ec:	4013      	ands	r3, r2
 80032ee:	d1f0      	bne.n	80032d2 <HAL_RCC_OscConfig+0x70a>
 80032f0:	e001      	b.n	80032f6 <HAL_RCC_OscConfig+0x72e>
        }
      }
    }
    else
    {
      return HAL_ERROR;
 80032f2:	2301      	movs	r3, #1
 80032f4:	e000      	b.n	80032f8 <HAL_RCC_OscConfig+0x730>
    }
  }
  
  return HAL_OK;
 80032f6:	2300      	movs	r3, #0
}
 80032f8:	0018      	movs	r0, r3
 80032fa:	46bd      	mov	sp, r7
 80032fc:	b006      	add	sp, #24
 80032fe:	bd80      	pop	{r7, pc}
 8003300:	40021000 	.word	0x40021000
 8003304:	ff02ffff 	.word	0xff02ffff
 8003308:	feffffff 	.word	0xfeffffff

0800330c <HAL_RCC_ClockConfig>:
  *         HPRE[3:0] bits to ensure that HCLK not exceed the maximum allowed frequency
  *         (for more details refer to section above "Initialization/de-initialization functions")
  * @retval HAL status
  */
HAL_StatusTypeDef HAL_RCC_ClockConfig(RCC_ClkInitTypeDef  *RCC_ClkInitStruct, uint32_t FLatency)
{
 800330c:	b580      	push	{r7, lr}
 800330e:	b084      	sub	sp, #16
 8003310:	af00      	add	r7, sp, #0
 8003312:	6078      	str	r0, [r7, #4]
 8003314:	6039      	str	r1, [r7, #0]
  uint32_t tickstart = 0U;
 8003316:	2300      	movs	r3, #0
 8003318:	60fb      	str	r3, [r7, #12]
  /* To correctly read data from FLASH memory, the number of wait states (LATENCY) 
  must be correctly programmed according to the frequency of the CPU clock 
  (HCLK) and the supply voltage of the device. */

  /* Increasing the number of wait states because of higher CPU frequency */
  if(FLatency > (FLASH->ACR & FLASH_ACR_LATENCY))
 800331a:	4b82      	ldr	r3, [pc, #520]	; (8003524 <HAL_RCC_ClockConfig+0x218>)
 800331c:	681b      	ldr	r3, [r3, #0]
 800331e:	2201      	movs	r2, #1
 8003320:	401a      	ands	r2, r3
 8003322:	683b      	ldr	r3, [r7, #0]
 8003324:	429a      	cmp	r2, r3
 8003326:	d211      	bcs.n	800334c <HAL_RCC_ClockConfig+0x40>
  {    
    /* Program the new number of wait states to the LATENCY bits in the FLASH_ACR register */
    __HAL_FLASH_SET_LATENCY(FLatency);
 8003328:	4b7e      	ldr	r3, [pc, #504]	; (8003524 <HAL_RCC_ClockConfig+0x218>)
 800332a:	4a7e      	ldr	r2, [pc, #504]	; (8003524 <HAL_RCC_ClockConfig+0x218>)
 800332c:	6812      	ldr	r2, [r2, #0]
 800332e:	2101      	movs	r1, #1
 8003330:	438a      	bics	r2, r1
 8003332:	0011      	movs	r1, r2
 8003334:	683a      	ldr	r2, [r7, #0]
 8003336:	430a      	orrs	r2, r1
 8003338:	601a      	str	r2, [r3, #0]
    
    /* Check that the new number of wait states is taken into account to access the Flash
    memory by reading the FLASH_ACR register */
    if((FLASH->ACR & FLASH_ACR_LATENCY) != FLatency)
 800333a:	4b7a      	ldr	r3, [pc, #488]	; (8003524 <HAL_RCC_ClockConfig+0x218>)
 800333c:	681b      	ldr	r3, [r3, #0]
 800333e:	2201      	movs	r2, #1
 8003340:	401a      	ands	r2, r3
 8003342:	683b      	ldr	r3, [r7, #0]
 8003344:	429a      	cmp	r2, r3
 8003346:	d001      	beq.n	800334c <HAL_RCC_ClockConfig+0x40>
    {
      return HAL_ERROR;
 8003348:	2301      	movs	r3, #1
 800334a:	e0e6      	b.n	800351a <HAL_RCC_ClockConfig+0x20e>
    }
  }

  /*-------------------------- HCLK Configuration --------------------------*/
  if(((RCC_ClkInitStruct->ClockType) & RCC_CLOCKTYPE_HCLK) == RCC_CLOCKTYPE_HCLK)
 800334c:	687b      	ldr	r3, [r7, #4]
 800334e:	681b      	ldr	r3, [r3, #0]
 8003350:	2202      	movs	r2, #2
 8003352:	4013      	ands	r3, r2
 8003354:	d009      	beq.n	800336a <HAL_RCC_ClockConfig+0x5e>
  {
    assert_param(IS_RCC_HCLK(RCC_ClkInitStruct->AHBCLKDivider));
    MODIFY_REG(RCC->CFGR, RCC_CFGR_HPRE, RCC_ClkInitStruct->AHBCLKDivider);
 8003356:	4a74      	ldr	r2, [pc, #464]	; (8003528 <HAL_RCC_ClockConfig+0x21c>)
 8003358:	4b73      	ldr	r3, [pc, #460]	; (8003528 <HAL_RCC_ClockConfig+0x21c>)
 800335a:	68db      	ldr	r3, [r3, #12]
 800335c:	21f0      	movs	r1, #240	; 0xf0
 800335e:	438b      	bics	r3, r1
 8003360:	0019      	movs	r1, r3
 8003362:	687b      	ldr	r3, [r7, #4]
 8003364:	689b      	ldr	r3, [r3, #8]
 8003366:	430b      	orrs	r3, r1
 8003368:	60d3      	str	r3, [r2, #12]
  }

  /*------------------------- SYSCLK Configuration ---------------------------*/ 
  if(((RCC_ClkInitStruct->ClockType) & RCC_CLOCKTYPE_SYSCLK) == RCC_CLOCKTYPE_SYSCLK)
 800336a:	687b      	ldr	r3, [r7, #4]
 800336c:	681b      	ldr	r3, [r3, #0]
 800336e:	2201      	movs	r2, #1
 8003370:	4013      	ands	r3, r2
 8003372:	d100      	bne.n	8003376 <HAL_RCC_ClockConfig+0x6a>
 8003374:	e089      	b.n	800348a <HAL_RCC_ClockConfig+0x17e>
  {    
    assert_param(IS_RCC_SYSCLKSOURCE(RCC_ClkInitStruct->SYSCLKSource));
    
    /* HSE is selected as System Clock Source */
    if(RCC_ClkInitStruct->SYSCLKSource == RCC_SYSCLKSOURCE_HSE)
 8003376:	687b      	ldr	r3, [r7, #4]
 8003378:	685b      	ldr	r3, [r3, #4]
 800337a:	2b02      	cmp	r3, #2
 800337c:	d107      	bne.n	800338e <HAL_RCC_ClockConfig+0x82>
    {
      /* Check the HSE ready flag */  
      if(__HAL_RCC_GET_FLAG(RCC_FLAG_HSERDY) == RESET)
 800337e:	4b6a      	ldr	r3, [pc, #424]	; (8003528 <HAL_RCC_ClockConfig+0x21c>)
 8003380:	681a      	ldr	r2, [r3, #0]
 8003382:	2380      	movs	r3, #128	; 0x80
 8003384:	029b      	lsls	r3, r3, #10
 8003386:	4013      	ands	r3, r2
 8003388:	d120      	bne.n	80033cc <HAL_RCC_ClockConfig+0xc0>
      {
        return HAL_ERROR;
 800338a:	2301      	movs	r3, #1
 800338c:	e0c5      	b.n	800351a <HAL_RCC_ClockConfig+0x20e>
      }
    }
    /* PLL is selected as System Clock Source */
    else if(RCC_ClkInitStruct->SYSCLKSource == RCC_SYSCLKSOURCE_PLLCLK)
 800338e:	687b      	ldr	r3, [r7, #4]
 8003390:	685b      	ldr	r3, [r3, #4]
 8003392:	2b03      	cmp	r3, #3
 8003394:	d107      	bne.n	80033a6 <HAL_RCC_ClockConfig+0x9a>
    {
      /* Check the PLL ready flag */  
      if(__HAL_RCC_GET_FLAG(RCC_FLAG_PLLRDY) == RESET)
 8003396:	4b64      	ldr	r3, [pc, #400]	; (8003528 <HAL_RCC_ClockConfig+0x21c>)
 8003398:	681a      	ldr	r2, [r3, #0]
 800339a:	2380      	movs	r3, #128	; 0x80
 800339c:	049b      	lsls	r3, r3, #18
 800339e:	4013      	ands	r3, r2
 80033a0:	d114      	bne.n	80033cc <HAL_RCC_ClockConfig+0xc0>
      {
        return HAL_ERROR;
 80033a2:	2301      	movs	r3, #1
 80033a4:	e0b9      	b.n	800351a <HAL_RCC_ClockConfig+0x20e>
      }
    }
    /* HSI is selected as System Clock Source */
    else if(RCC_ClkInitStruct->SYSCLKSource == RCC_SYSCLKSOURCE_HSI)
 80033a6:	687b      	ldr	r3, [r7, #4]
 80033a8:	685b      	ldr	r3, [r3, #4]
 80033aa:	2b01      	cmp	r3, #1
 80033ac:	d106      	bne.n	80033bc <HAL_RCC_ClockConfig+0xb0>
    {
      /* Check the HSI ready flag */  
      if(__HAL_RCC_GET_FLAG(RCC_FLAG_HSIRDY) == RESET)
 80033ae:	4b5e      	ldr	r3, [pc, #376]	; (8003528 <HAL_RCC_ClockConfig+0x21c>)
 80033b0:	681b      	ldr	r3, [r3, #0]
 80033b2:	2204      	movs	r2, #4
 80033b4:	4013      	ands	r3, r2
 80033b6:	d109      	bne.n	80033cc <HAL_RCC_ClockConfig+0xc0>
      {
        return HAL_ERROR;
 80033b8:	2301      	movs	r3, #1
 80033ba:	e0ae      	b.n	800351a <HAL_RCC_ClockConfig+0x20e>
    }
    /* MSI is selected as System Clock Source */
    else
    {
      /* Check the MSI ready flag */  
      if(__HAL_RCC_GET_FLAG(RCC_FLAG_MSIRDY) == RESET)
 80033bc:	4b5a      	ldr	r3, [pc, #360]	; (8003528 <HAL_RCC_ClockConfig+0x21c>)
 80033be:	681a      	ldr	r2, [r3, #0]
 80033c0:	2380      	movs	r3, #128	; 0x80
 80033c2:	009b      	lsls	r3, r3, #2
 80033c4:	4013      	ands	r3, r2
 80033c6:	d101      	bne.n	80033cc <HAL_RCC_ClockConfig+0xc0>
      {
        return HAL_ERROR;
 80033c8:	2301      	movs	r3, #1
 80033ca:	e0a6      	b.n	800351a <HAL_RCC_ClockConfig+0x20e>
      }
    }
    __HAL_RCC_SYSCLK_CONFIG(RCC_ClkInitStruct->SYSCLKSource);
 80033cc:	4a56      	ldr	r2, [pc, #344]	; (8003528 <HAL_RCC_ClockConfig+0x21c>)
 80033ce:	4b56      	ldr	r3, [pc, #344]	; (8003528 <HAL_RCC_ClockConfig+0x21c>)
 80033d0:	68db      	ldr	r3, [r3, #12]
 80033d2:	2103      	movs	r1, #3
 80033d4:	438b      	bics	r3, r1
 80033d6:	0019      	movs	r1, r3
 80033d8:	687b      	ldr	r3, [r7, #4]
 80033da:	685b      	ldr	r3, [r3, #4]
 80033dc:	430b      	orrs	r3, r1
 80033de:	60d3      	str	r3, [r2, #12]

    /* Get Start Tick */
    tickstart = HAL_GetTick();
 80033e0:	f7fe f90c 	bl	80015fc <HAL_GetTick>
 80033e4:	0003      	movs	r3, r0
 80033e6:	60fb      	str	r3, [r7, #12]
    
    if(RCC_ClkInitStruct->SYSCLKSource == RCC_SYSCLKSOURCE_HSE)
 80033e8:	687b      	ldr	r3, [r7, #4]
 80033ea:	685b      	ldr	r3, [r3, #4]
 80033ec:	2b02      	cmp	r3, #2
 80033ee:	d111      	bne.n	8003414 <HAL_RCC_ClockConfig+0x108>
    {
      while (__HAL_RCC_GET_SYSCLK_SOURCE() != RCC_SYSCLKSOURCE_STATUS_HSE)
 80033f0:	e009      	b.n	8003406 <HAL_RCC_ClockConfig+0xfa>
      {
        if((HAL_GetTick() - tickstart ) > CLOCKSWITCH_TIMEOUT_VALUE)
 80033f2:	f7fe f903 	bl	80015fc <HAL_GetTick>
 80033f6:	0002      	movs	r2, r0
 80033f8:	68fb      	ldr	r3, [r7, #12]
 80033fa:	1ad3      	subs	r3, r2, r3
 80033fc:	4a4b      	ldr	r2, [pc, #300]	; (800352c <HAL_RCC_ClockConfig+0x220>)
 80033fe:	4293      	cmp	r3, r2
 8003400:	d901      	bls.n	8003406 <HAL_RCC_ClockConfig+0xfa>
        {
          return HAL_TIMEOUT;
 8003402:	2303      	movs	r3, #3
 8003404:	e089      	b.n	800351a <HAL_RCC_ClockConfig+0x20e>
      while (__HAL_RCC_GET_SYSCLK_SOURCE() != RCC_SYSCLKSOURCE_STATUS_HSE)
 8003406:	4b48      	ldr	r3, [pc, #288]	; (8003528 <HAL_RCC_ClockConfig+0x21c>)
 8003408:	68db      	ldr	r3, [r3, #12]
 800340a:	220c      	movs	r2, #12
 800340c:	4013      	ands	r3, r2
 800340e:	2b08      	cmp	r3, #8
 8003410:	d1ef      	bne.n	80033f2 <HAL_RCC_ClockConfig+0xe6>
 8003412:	e03a      	b.n	800348a <HAL_RCC_ClockConfig+0x17e>
        }
      }
    }
    else if(RCC_ClkInitStruct->SYSCLKSource == RCC_SYSCLKSOURCE_PLLCLK)
 8003414:	687b      	ldr	r3, [r7, #4]
 8003416:	685b      	ldr	r3, [r3, #4]
 8003418:	2b03      	cmp	r3, #3
 800341a:	d111      	bne.n	8003440 <HAL_RCC_ClockConfig+0x134>
    {
      while (__HAL_RCC_GET_SYSCLK_SOURCE() != RCC_SYSCLKSOURCE_STATUS_PLLCLK)
 800341c:	e009      	b.n	8003432 <HAL_RCC_ClockConfig+0x126>
      {
        if((HAL_GetTick() - tickstart ) > CLOCKSWITCH_TIMEOUT_VALUE)
 800341e:	f7fe f8ed 	bl	80015fc <HAL_GetTick>
 8003422:	0002      	movs	r2, r0
 8003424:	68fb      	ldr	r3, [r7, #12]
 8003426:	1ad3      	subs	r3, r2, r3
 8003428:	4a40      	ldr	r2, [pc, #256]	; (800352c <HAL_RCC_ClockConfig+0x220>)
 800342a:	4293      	cmp	r3, r2
 800342c:	d901      	bls.n	8003432 <HAL_RCC_ClockConfig+0x126>
        {
          return HAL_TIMEOUT;
 800342e:	2303      	movs	r3, #3
 8003430:	e073      	b.n	800351a <HAL_RCC_ClockConfig+0x20e>
      while (__HAL_RCC_GET_SYSCLK_SOURCE() != RCC_SYSCLKSOURCE_STATUS_PLLCLK)
 8003432:	4b3d      	ldr	r3, [pc, #244]	; (8003528 <HAL_RCC_ClockConfig+0x21c>)
 8003434:	68db      	ldr	r3, [r3, #12]
 8003436:	220c      	movs	r2, #12
 8003438:	4013      	ands	r3, r2
 800343a:	2b0c      	cmp	r3, #12
 800343c:	d1ef      	bne.n	800341e <HAL_RCC_ClockConfig+0x112>
 800343e:	e024      	b.n	800348a <HAL_RCC_ClockConfig+0x17e>
        }
      }
    }
    else if(RCC_ClkInitStruct->SYSCLKSource == RCC_SYSCLKSOURCE_HSI)
 8003440:	687b      	ldr	r3, [r7, #4]
 8003442:	685b      	ldr	r3, [r3, #4]
 8003444:	2b01      	cmp	r3, #1
 8003446:	d11b      	bne.n	8003480 <HAL_RCC_ClockConfig+0x174>
    {
      while (__HAL_RCC_GET_SYSCLK_SOURCE() != RCC_SYSCLKSOURCE_STATUS_HSI)
 8003448:	e009      	b.n	800345e <HAL_RCC_ClockConfig+0x152>
      {
        if((HAL_GetTick() - tickstart ) > CLOCKSWITCH_TIMEOUT_VALUE)
 800344a:	f7fe f8d7 	bl	80015fc <HAL_GetTick>
 800344e:	0002      	movs	r2, r0
 8003450:	68fb      	ldr	r3, [r7, #12]
 8003452:	1ad3      	subs	r3, r2, r3
 8003454:	4a35      	ldr	r2, [pc, #212]	; (800352c <HAL_RCC_ClockConfig+0x220>)
 8003456:	4293      	cmp	r3, r2
 8003458:	d901      	bls.n	800345e <HAL_RCC_ClockConfig+0x152>
        {
          return HAL_TIMEOUT;
 800345a:	2303      	movs	r3, #3
 800345c:	e05d      	b.n	800351a <HAL_RCC_ClockConfig+0x20e>
      while (__HAL_RCC_GET_SYSCLK_SOURCE() != RCC_SYSCLKSOURCE_STATUS_HSI)
 800345e:	4b32      	ldr	r3, [pc, #200]	; (8003528 <HAL_RCC_ClockConfig+0x21c>)
 8003460:	68db      	ldr	r3, [r3, #12]
 8003462:	220c      	movs	r2, #12
 8003464:	4013      	ands	r3, r2
 8003466:	2b04      	cmp	r3, #4
 8003468:	d1ef      	bne.n	800344a <HAL_RCC_ClockConfig+0x13e>
 800346a:	e00e      	b.n	800348a <HAL_RCC_ClockConfig+0x17e>
    }      
    else
    {
      while(__HAL_RCC_GET_SYSCLK_SOURCE() != RCC_SYSCLKSOURCE_STATUS_MSI)
      {
        if((HAL_GetTick() - tickstart ) > CLOCKSWITCH_TIMEOUT_VALUE)
 800346c:	f7fe f8c6 	bl	80015fc <HAL_GetTick>
 8003470:	0002      	movs	r2, r0
 8003472:	68fb      	ldr	r3, [r7, #12]
 8003474:	1ad3      	subs	r3, r2, r3
 8003476:	4a2d      	ldr	r2, [pc, #180]	; (800352c <HAL_RCC_ClockConfig+0x220>)
 8003478:	4293      	cmp	r3, r2
 800347a:	d901      	bls.n	8003480 <HAL_RCC_ClockConfig+0x174>
        {
          return HAL_TIMEOUT;
 800347c:	2303      	movs	r3, #3
 800347e:	e04c      	b.n	800351a <HAL_RCC_ClockConfig+0x20e>
      while(__HAL_RCC_GET_SYSCLK_SOURCE() != RCC_SYSCLKSOURCE_STATUS_MSI)
 8003480:	4b29      	ldr	r3, [pc, #164]	; (8003528 <HAL_RCC_ClockConfig+0x21c>)
 8003482:	68db      	ldr	r3, [r3, #12]
 8003484:	220c      	movs	r2, #12
 8003486:	4013      	ands	r3, r2
 8003488:	d1f0      	bne.n	800346c <HAL_RCC_ClockConfig+0x160>
        }
      }
    }
  }    
  /* Decreasing the number of wait states because of lower CPU frequency */
  if(FLatency < (FLASH->ACR & FLASH_ACR_LATENCY))
 800348a:	4b26      	ldr	r3, [pc, #152]	; (8003524 <HAL_RCC_ClockConfig+0x218>)
 800348c:	681b      	ldr	r3, [r3, #0]
 800348e:	2201      	movs	r2, #1
 8003490:	401a      	ands	r2, r3
 8003492:	683b      	ldr	r3, [r7, #0]
 8003494:	429a      	cmp	r2, r3
 8003496:	d911      	bls.n	80034bc <HAL_RCC_ClockConfig+0x1b0>
  {    
    /* Program the new number of wait states to the LATENCY bits in the FLASH_ACR register */
    __HAL_FLASH_SET_LATENCY(FLatency);
 8003498:	4b22      	ldr	r3, [pc, #136]	; (8003524 <HAL_RCC_ClockConfig+0x218>)
 800349a:	4a22      	ldr	r2, [pc, #136]	; (8003524 <HAL_RCC_ClockConfig+0x218>)
 800349c:	6812      	ldr	r2, [r2, #0]
 800349e:	2101      	movs	r1, #1
 80034a0:	438a      	bics	r2, r1
 80034a2:	0011      	movs	r1, r2
 80034a4:	683a      	ldr	r2, [r7, #0]
 80034a6:	430a      	orrs	r2, r1
 80034a8:	601a      	str	r2, [r3, #0]
    
    /* Check that the new number of wait states is taken into account to access the Flash
    memory by reading the FLASH_ACR register */
    if((FLASH->ACR & FLASH_ACR_LATENCY) != FLatency)
 80034aa:	4b1e      	ldr	r3, [pc, #120]	; (8003524 <HAL_RCC_ClockConfig+0x218>)
 80034ac:	681b      	ldr	r3, [r3, #0]
 80034ae:	2201      	movs	r2, #1
 80034b0:	401a      	ands	r2, r3
 80034b2:	683b      	ldr	r3, [r7, #0]
 80034b4:	429a      	cmp	r2, r3
 80034b6:	d001      	beq.n	80034bc <HAL_RCC_ClockConfig+0x1b0>
    {
      return HAL_ERROR;
 80034b8:	2301      	movs	r3, #1
 80034ba:	e02e      	b.n	800351a <HAL_RCC_ClockConfig+0x20e>
    }
  }    

  /*-------------------------- PCLK1 Configuration ---------------------------*/ 
  if(((RCC_ClkInitStruct->ClockType) & RCC_CLOCKTYPE_PCLK1) == RCC_CLOCKTYPE_PCLK1)
 80034bc:	687b      	ldr	r3, [r7, #4]
 80034be:	681b      	ldr	r3, [r3, #0]
 80034c0:	2204      	movs	r2, #4
 80034c2:	4013      	ands	r3, r2
 80034c4:	d008      	beq.n	80034d8 <HAL_RCC_ClockConfig+0x1cc>
  {
    assert_param(IS_RCC_PCLK(RCC_ClkInitStruct->APB1CLKDivider));
    MODIFY_REG(RCC->CFGR, RCC_CFGR_PPRE1, RCC_ClkInitStruct->APB1CLKDivider);
 80034c6:	4a18      	ldr	r2, [pc, #96]	; (8003528 <HAL_RCC_ClockConfig+0x21c>)
 80034c8:	4b17      	ldr	r3, [pc, #92]	; (8003528 <HAL_RCC_ClockConfig+0x21c>)
 80034ca:	68db      	ldr	r3, [r3, #12]
 80034cc:	4918      	ldr	r1, [pc, #96]	; (8003530 <HAL_RCC_ClockConfig+0x224>)
 80034ce:	4019      	ands	r1, r3
 80034d0:	687b      	ldr	r3, [r7, #4]
 80034d2:	68db      	ldr	r3, [r3, #12]
 80034d4:	430b      	orrs	r3, r1
 80034d6:	60d3      	str	r3, [r2, #12]
  }
  
  /*-------------------------- PCLK2 Configuration ---------------------------*/ 
  if(((RCC_ClkInitStruct->ClockType) & RCC_CLOCKTYPE_PCLK2) == RCC_CLOCKTYPE_PCLK2)
 80034d8:	687b      	ldr	r3, [r7, #4]
 80034da:	681b      	ldr	r3, [r3, #0]
 80034dc:	2208      	movs	r2, #8
 80034de:	4013      	ands	r3, r2
 80034e0:	d009      	beq.n	80034f6 <HAL_RCC_ClockConfig+0x1ea>
  {
    assert_param(IS_RCC_PCLK(RCC_ClkInitStruct->APB2CLKDivider));
    MODIFY_REG(RCC->CFGR, RCC_CFGR_PPRE2, ((RCC_ClkInitStruct->APB2CLKDivider) << 3));
 80034e2:	4a11      	ldr	r2, [pc, #68]	; (8003528 <HAL_RCC_ClockConfig+0x21c>)
 80034e4:	4b10      	ldr	r3, [pc, #64]	; (8003528 <HAL_RCC_ClockConfig+0x21c>)
 80034e6:	68db      	ldr	r3, [r3, #12]
 80034e8:	4912      	ldr	r1, [pc, #72]	; (8003534 <HAL_RCC_ClockConfig+0x228>)
 80034ea:	4019      	ands	r1, r3
 80034ec:	687b      	ldr	r3, [r7, #4]
 80034ee:	691b      	ldr	r3, [r3, #16]
 80034f0:	00db      	lsls	r3, r3, #3
 80034f2:	430b      	orrs	r3, r1
 80034f4:	60d3      	str	r3, [r2, #12]
  }
 
  /* Update the SystemCoreClock global variable */
  SystemCoreClock = HAL_RCC_GetSysClockFreq() >> AHBPrescTable[(RCC->CFGR & RCC_CFGR_HPRE)>> RCC_CFGR_HPRE_BITNUMBER];
 80034f6:	f000 f823 	bl	8003540 <HAL_RCC_GetSysClockFreq>
 80034fa:	0001      	movs	r1, r0
 80034fc:	4b0a      	ldr	r3, [pc, #40]	; (8003528 <HAL_RCC_ClockConfig+0x21c>)
 80034fe:	68db      	ldr	r3, [r3, #12]
 8003500:	091b      	lsrs	r3, r3, #4
 8003502:	220f      	movs	r2, #15
 8003504:	4013      	ands	r3, r2
 8003506:	4a0c      	ldr	r2, [pc, #48]	; (8003538 <HAL_RCC_ClockConfig+0x22c>)
 8003508:	5cd3      	ldrb	r3, [r2, r3]
 800350a:	000a      	movs	r2, r1
 800350c:	40da      	lsrs	r2, r3
 800350e:	4b0b      	ldr	r3, [pc, #44]	; (800353c <HAL_RCC_ClockConfig+0x230>)
 8003510:	601a      	str	r2, [r3, #0]

  /* Configure the source of time base considering new system clocks settings*/
  HAL_InitTick (TICK_INT_PRIORITY);
 8003512:	2000      	movs	r0, #0
 8003514:	f7fe f848 	bl	80015a8 <HAL_InitTick>
  
  return HAL_OK;
 8003518:	2300      	movs	r3, #0
}
 800351a:	0018      	movs	r0, r3
 800351c:	46bd      	mov	sp, r7
 800351e:	b004      	add	sp, #16
 8003520:	bd80      	pop	{r7, pc}
 8003522:	46c0      	nop			; (mov r8, r8)
 8003524:	40022000 	.word	0x40022000
 8003528:	40021000 	.word	0x40021000
 800352c:	00001388 	.word	0x00001388
 8003530:	fffff8ff 	.word	0xfffff8ff
 8003534:	ffffc7ff 	.word	0xffffc7ff
 8003538:	0800742c 	.word	0x0800742c
 800353c:	20000004 	.word	0x20000004

08003540 <HAL_RCC_GetSysClockFreq>:
  *         right SYSCLK value. Otherwise, any configuration based on this function will be incorrect.
  *         
  * @retval SYSCLK frequency
  */
uint32_t HAL_RCC_GetSysClockFreq(void)
{
 8003540:	b580      	push	{r7, lr}
 8003542:	b086      	sub	sp, #24
 8003544:	af00      	add	r7, sp, #0
  uint32_t tmpreg = 0, pllm = 0, plld = 0, pllvco = 0, msiclkrange = 0;
 8003546:	2300      	movs	r3, #0
 8003548:	60fb      	str	r3, [r7, #12]
 800354a:	2300      	movs	r3, #0
 800354c:	60bb      	str	r3, [r7, #8]
 800354e:	2300      	movs	r3, #0
 8003550:	607b      	str	r3, [r7, #4]
 8003552:	2300      	movs	r3, #0
 8003554:	617b      	str	r3, [r7, #20]
 8003556:	2300      	movs	r3, #0
 8003558:	603b      	str	r3, [r7, #0]
  uint32_t sysclockfreq = 0;
 800355a:	2300      	movs	r3, #0
 800355c:	613b      	str	r3, [r7, #16]
  
  tmpreg = RCC->CFGR;
 800355e:	4b32      	ldr	r3, [pc, #200]	; (8003628 <HAL_RCC_GetSysClockFreq+0xe8>)
 8003560:	68db      	ldr	r3, [r3, #12]
 8003562:	60fb      	str	r3, [r7, #12]
  
  /* Get SYSCLK source -------------------------------------------------------*/
  switch (tmpreg & RCC_CFGR_SWS)
 8003564:	68fb      	ldr	r3, [r7, #12]
 8003566:	220c      	movs	r2, #12
 8003568:	4013      	ands	r3, r2
 800356a:	2b08      	cmp	r3, #8
 800356c:	d00e      	beq.n	800358c <HAL_RCC_GetSysClockFreq+0x4c>
 800356e:	2b0c      	cmp	r3, #12
 8003570:	d00f      	beq.n	8003592 <HAL_RCC_GetSysClockFreq+0x52>
 8003572:	2b04      	cmp	r3, #4
 8003574:	d145      	bne.n	8003602 <HAL_RCC_GetSysClockFreq+0xc2>
  {
    case RCC_SYSCLKSOURCE_STATUS_HSI:  /* HSI used as system clock source */
    {
      if ((RCC->CR & RCC_CR_HSIDIVF) != 0)
 8003576:	4b2c      	ldr	r3, [pc, #176]	; (8003628 <HAL_RCC_GetSysClockFreq+0xe8>)
 8003578:	681b      	ldr	r3, [r3, #0]
 800357a:	2210      	movs	r2, #16
 800357c:	4013      	ands	r3, r2
 800357e:	d002      	beq.n	8003586 <HAL_RCC_GetSysClockFreq+0x46>
      {
        sysclockfreq =  (HSI_VALUE >> 2);
 8003580:	4b2a      	ldr	r3, [pc, #168]	; (800362c <HAL_RCC_GetSysClockFreq+0xec>)
 8003582:	613b      	str	r3, [r7, #16]
      }
      else 
      {
        sysclockfreq =  HSI_VALUE;
      }
      break;
 8003584:	e04b      	b.n	800361e <HAL_RCC_GetSysClockFreq+0xde>
        sysclockfreq =  HSI_VALUE;
 8003586:	4b2a      	ldr	r3, [pc, #168]	; (8003630 <HAL_RCC_GetSysClockFreq+0xf0>)
 8003588:	613b      	str	r3, [r7, #16]
      break;
 800358a:	e048      	b.n	800361e <HAL_RCC_GetSysClockFreq+0xde>
    }
    case RCC_SYSCLKSOURCE_STATUS_HSE:  /* HSE used as system clock */
    {
      sysclockfreq = HSE_VALUE;
 800358c:	4b29      	ldr	r3, [pc, #164]	; (8003634 <HAL_RCC_GetSysClockFreq+0xf4>)
 800358e:	613b      	str	r3, [r7, #16]
      break;
 8003590:	e045      	b.n	800361e <HAL_RCC_GetSysClockFreq+0xde>
    }
    case RCC_SYSCLKSOURCE_STATUS_PLLCLK:  /* PLL used as system clock */
    {
      pllm = PLLMulTable[(uint32_t)(tmpreg & RCC_CFGR_PLLMUL) >> RCC_CFGR_PLLMUL_BITNUMBER];
 8003592:	68fb      	ldr	r3, [r7, #12]
 8003594:	0c9b      	lsrs	r3, r3, #18
 8003596:	220f      	movs	r2, #15
 8003598:	4013      	ands	r3, r2
 800359a:	4a27      	ldr	r2, [pc, #156]	; (8003638 <HAL_RCC_GetSysClockFreq+0xf8>)
 800359c:	5cd3      	ldrb	r3, [r2, r3]
 800359e:	60bb      	str	r3, [r7, #8]
      plld = ((uint32_t)(tmpreg & RCC_CFGR_PLLDIV) >> RCC_CFGR_PLLDIV_BITNUMBER) + 1;
 80035a0:	68fb      	ldr	r3, [r7, #12]
 80035a2:	0d9b      	lsrs	r3, r3, #22
 80035a4:	2203      	movs	r2, #3
 80035a6:	4013      	ands	r3, r2
 80035a8:	3301      	adds	r3, #1
 80035aa:	607b      	str	r3, [r7, #4]
      if (__HAL_RCC_GET_PLL_OSCSOURCE() != RCC_PLLSOURCE_HSI)
 80035ac:	4b1e      	ldr	r3, [pc, #120]	; (8003628 <HAL_RCC_GetSysClockFreq+0xe8>)
 80035ae:	68da      	ldr	r2, [r3, #12]
 80035b0:	2380      	movs	r3, #128	; 0x80
 80035b2:	025b      	lsls	r3, r3, #9
 80035b4:	4013      	ands	r3, r2
 80035b6:	d009      	beq.n	80035cc <HAL_RCC_GetSysClockFreq+0x8c>
      {
        /* HSE used as PLL clock source */
        pllvco = (HSE_VALUE * pllm) / plld;
 80035b8:	68bb      	ldr	r3, [r7, #8]
 80035ba:	4a1e      	ldr	r2, [pc, #120]	; (8003634 <HAL_RCC_GetSysClockFreq+0xf4>)
 80035bc:	4353      	muls	r3, r2
 80035be:	6879      	ldr	r1, [r7, #4]
 80035c0:	0018      	movs	r0, r3
 80035c2:	f7fc fda1 	bl	8000108 <__udivsi3>
 80035c6:	0003      	movs	r3, r0
 80035c8:	617b      	str	r3, [r7, #20]
 80035ca:	e017      	b.n	80035fc <HAL_RCC_GetSysClockFreq+0xbc>
      }
      else
      {
        if ((RCC->CR & RCC_CR_HSIDIVF) != 0)
 80035cc:	4b16      	ldr	r3, [pc, #88]	; (8003628 <HAL_RCC_GetSysClockFreq+0xe8>)
 80035ce:	681b      	ldr	r3, [r3, #0]
 80035d0:	2210      	movs	r2, #16
 80035d2:	4013      	ands	r3, r2
 80035d4:	d009      	beq.n	80035ea <HAL_RCC_GetSysClockFreq+0xaa>
        {
          pllvco = ((HSI_VALUE >> 2) * pllm) / plld;
 80035d6:	68bb      	ldr	r3, [r7, #8]
 80035d8:	4a14      	ldr	r2, [pc, #80]	; (800362c <HAL_RCC_GetSysClockFreq+0xec>)
 80035da:	4353      	muls	r3, r2
 80035dc:	6879      	ldr	r1, [r7, #4]
 80035de:	0018      	movs	r0, r3
 80035e0:	f7fc fd92 	bl	8000108 <__udivsi3>
 80035e4:	0003      	movs	r3, r0
 80035e6:	617b      	str	r3, [r7, #20]
 80035e8:	e008      	b.n	80035fc <HAL_RCC_GetSysClockFreq+0xbc>
        }
        else 
        {
         pllvco = (HSI_VALUE * pllm) / plld;
 80035ea:	68bb      	ldr	r3, [r7, #8]
 80035ec:	4a10      	ldr	r2, [pc, #64]	; (8003630 <HAL_RCC_GetSysClockFreq+0xf0>)
 80035ee:	4353      	muls	r3, r2
 80035f0:	6879      	ldr	r1, [r7, #4]
 80035f2:	0018      	movs	r0, r3
 80035f4:	f7fc fd88 	bl	8000108 <__udivsi3>
 80035f8:	0003      	movs	r3, r0
 80035fa:	617b      	str	r3, [r7, #20]
        }
      }
      sysclockfreq = pllvco;
 80035fc:	697b      	ldr	r3, [r7, #20]
 80035fe:	613b      	str	r3, [r7, #16]
      break;
 8003600:	e00d      	b.n	800361e <HAL_RCC_GetSysClockFreq+0xde>
    }
    case RCC_SYSCLKSOURCE_STATUS_MSI:  /* MSI used as system clock source */
    default: /* MSI used as system clock */
    {
      msiclkrange = (RCC->ICSCR & RCC_ICSCR_MSIRANGE ) >> RCC_ICSCR_MSIRANGE_BITNUMBER;
 8003602:	4b09      	ldr	r3, [pc, #36]	; (8003628 <HAL_RCC_GetSysClockFreq+0xe8>)
 8003604:	685b      	ldr	r3, [r3, #4]
 8003606:	0b5b      	lsrs	r3, r3, #13
 8003608:	2207      	movs	r2, #7
 800360a:	4013      	ands	r3, r2
 800360c:	603b      	str	r3, [r7, #0]
      sysclockfreq = (32768 * (1 << (msiclkrange + 1)));
 800360e:	683b      	ldr	r3, [r7, #0]
 8003610:	3301      	adds	r3, #1
 8003612:	2280      	movs	r2, #128	; 0x80
 8003614:	0212      	lsls	r2, r2, #8
 8003616:	409a      	lsls	r2, r3
 8003618:	0013      	movs	r3, r2
 800361a:	613b      	str	r3, [r7, #16]
      break;
 800361c:	46c0      	nop			; (mov r8, r8)
    }
  }
  return sysclockfreq;
 800361e:	693b      	ldr	r3, [r7, #16]
}
 8003620:	0018      	movs	r0, r3
 8003622:	46bd      	mov	sp, r7
 8003624:	b006      	add	sp, #24
 8003626:	bd80      	pop	{r7, pc}
 8003628:	40021000 	.word	0x40021000
 800362c:	003d0900 	.word	0x003d0900
 8003630:	00f42400 	.word	0x00f42400
 8003634:	007a1200 	.word	0x007a1200
 8003638:	0800743c 	.word	0x0800743c

0800363c <HAL_RCC_GetHCLKFreq>:
  * @note   The SystemCoreClock CMSIS variable is used to store System Clock Frequency 
  *         and updated within this function
  * @retval HCLK frequency
  */
uint32_t HAL_RCC_GetHCLKFreq(void)
{
 800363c:	b580      	push	{r7, lr}
 800363e:	af00      	add	r7, sp, #0
  return SystemCoreClock;
 8003640:	4b02      	ldr	r3, [pc, #8]	; (800364c <HAL_RCC_GetHCLKFreq+0x10>)
 8003642:	681b      	ldr	r3, [r3, #0]
}
 8003644:	0018      	movs	r0, r3
 8003646:	46bd      	mov	sp, r7
 8003648:	bd80      	pop	{r7, pc}
 800364a:	46c0      	nop			; (mov r8, r8)
 800364c:	20000004 	.word	0x20000004

08003650 <RCC_SetFlashLatencyFromMSIRange>:
            voltage range
  * @param  MSIrange  MSI range value from RCC_MSIRANGE_0 to RCC_MSIRANGE_6
  * @retval HAL status
  */
static HAL_StatusTypeDef RCC_SetFlashLatencyFromMSIRange(uint32_t MSIrange)
{
 8003650:	b580      	push	{r7, lr}
 8003652:	b084      	sub	sp, #16
 8003654:	af00      	add	r7, sp, #0
 8003656:	6078      	str	r0, [r7, #4]
  uint32_t vos = 0;
 8003658:	2300      	movs	r3, #0
 800365a:	60fb      	str	r3, [r7, #12]
  uint32_t latency = FLASH_LATENCY_0;  /* default value 0WS */
 800365c:	2300      	movs	r3, #0
 800365e:	60bb      	str	r3, [r7, #8]

  /* HCLK can reach 4 MHz only if AHB prescaler = 1 */
  if (READ_BIT(RCC->CFGR, RCC_CFGR_HPRE) == RCC_SYSCLK_DIV1)
 8003660:	4b23      	ldr	r3, [pc, #140]	; (80036f0 <RCC_SetFlashLatencyFromMSIRange+0xa0>)
 8003662:	68db      	ldr	r3, [r3, #12]
 8003664:	22f0      	movs	r2, #240	; 0xf0
 8003666:	4013      	ands	r3, r2
 8003668:	d12b      	bne.n	80036c2 <RCC_SetFlashLatencyFromMSIRange+0x72>
  {
    if(__HAL_RCC_PWR_IS_CLK_ENABLED())
 800366a:	4b21      	ldr	r3, [pc, #132]	; (80036f0 <RCC_SetFlashLatencyFromMSIRange+0xa0>)
 800366c:	6b9a      	ldr	r2, [r3, #56]	; 0x38
 800366e:	2380      	movs	r3, #128	; 0x80
 8003670:	055b      	lsls	r3, r3, #21
 8003672:	4013      	ands	r3, r2
 8003674:	d006      	beq.n	8003684 <RCC_SetFlashLatencyFromMSIRange+0x34>
    {
      vos = READ_BIT(PWR->CR, PWR_CR_VOS);
 8003676:	4b1f      	ldr	r3, [pc, #124]	; (80036f4 <RCC_SetFlashLatencyFromMSIRange+0xa4>)
 8003678:	681a      	ldr	r2, [r3, #0]
 800367a:	23c0      	movs	r3, #192	; 0xc0
 800367c:	015b      	lsls	r3, r3, #5
 800367e:	4013      	ands	r3, r2
 8003680:	60fb      	str	r3, [r7, #12]
 8003682:	e012      	b.n	80036aa <RCC_SetFlashLatencyFromMSIRange+0x5a>
    }
    else
    {
      __HAL_RCC_PWR_CLK_ENABLE();
 8003684:	4b1a      	ldr	r3, [pc, #104]	; (80036f0 <RCC_SetFlashLatencyFromMSIRange+0xa0>)
 8003686:	4a1a      	ldr	r2, [pc, #104]	; (80036f0 <RCC_SetFlashLatencyFromMSIRange+0xa0>)
 8003688:	6b92      	ldr	r2, [r2, #56]	; 0x38
 800368a:	2180      	movs	r1, #128	; 0x80
 800368c:	0549      	lsls	r1, r1, #21
 800368e:	430a      	orrs	r2, r1
 8003690:	639a      	str	r2, [r3, #56]	; 0x38
      vos = READ_BIT(PWR->CR, PWR_CR_VOS);
 8003692:	4b18      	ldr	r3, [pc, #96]	; (80036f4 <RCC_SetFlashLatencyFromMSIRange+0xa4>)
 8003694:	681a      	ldr	r2, [r3, #0]
 8003696:	23c0      	movs	r3, #192	; 0xc0
 8003698:	015b      	lsls	r3, r3, #5
 800369a:	4013      	ands	r3, r2
 800369c:	60fb      	str	r3, [r7, #12]
      __HAL_RCC_PWR_CLK_DISABLE();
 800369e:	4b14      	ldr	r3, [pc, #80]	; (80036f0 <RCC_SetFlashLatencyFromMSIRange+0xa0>)
 80036a0:	4a13      	ldr	r2, [pc, #76]	; (80036f0 <RCC_SetFlashLatencyFromMSIRange+0xa0>)
 80036a2:	6b92      	ldr	r2, [r2, #56]	; 0x38
 80036a4:	4914      	ldr	r1, [pc, #80]	; (80036f8 <RCC_SetFlashLatencyFromMSIRange+0xa8>)
 80036a6:	400a      	ands	r2, r1
 80036a8:	639a      	str	r2, [r3, #56]	; 0x38
    }
    
    /* Check if need to set latency 1 only for Range 3 & HCLK = 4MHz */
    if((vos == PWR_REGULATOR_VOLTAGE_SCALE3) && (MSIrange == RCC_MSIRANGE_6))
 80036aa:	68fa      	ldr	r2, [r7, #12]
 80036ac:	23c0      	movs	r3, #192	; 0xc0
 80036ae:	015b      	lsls	r3, r3, #5
 80036b0:	429a      	cmp	r2, r3
 80036b2:	d106      	bne.n	80036c2 <RCC_SetFlashLatencyFromMSIRange+0x72>
 80036b4:	687a      	ldr	r2, [r7, #4]
 80036b6:	23c0      	movs	r3, #192	; 0xc0
 80036b8:	021b      	lsls	r3, r3, #8
 80036ba:	429a      	cmp	r2, r3
 80036bc:	d101      	bne.n	80036c2 <RCC_SetFlashLatencyFromMSIRange+0x72>
    {
      latency = FLASH_LATENCY_1; /* 1WS */
 80036be:	2301      	movs	r3, #1
 80036c0:	60bb      	str	r3, [r7, #8]
    }
  }
  
  __HAL_FLASH_SET_LATENCY(latency);
 80036c2:	4b0e      	ldr	r3, [pc, #56]	; (80036fc <RCC_SetFlashLatencyFromMSIRange+0xac>)
 80036c4:	4a0d      	ldr	r2, [pc, #52]	; (80036fc <RCC_SetFlashLatencyFromMSIRange+0xac>)
 80036c6:	6812      	ldr	r2, [r2, #0]
 80036c8:	2101      	movs	r1, #1
 80036ca:	438a      	bics	r2, r1
 80036cc:	0011      	movs	r1, r2
 80036ce:	68ba      	ldr	r2, [r7, #8]
 80036d0:	430a      	orrs	r2, r1
 80036d2:	601a      	str	r2, [r3, #0]
  
  /* Check that the new number of wait states is taken into account to access the Flash
     memory by reading the FLASH_ACR register */
  if((FLASH->ACR & FLASH_ACR_LATENCY) != latency)
 80036d4:	4b09      	ldr	r3, [pc, #36]	; (80036fc <RCC_SetFlashLatencyFromMSIRange+0xac>)
 80036d6:	681b      	ldr	r3, [r3, #0]
 80036d8:	2201      	movs	r2, #1
 80036da:	401a      	ands	r2, r3
 80036dc:	68bb      	ldr	r3, [r7, #8]
 80036de:	429a      	cmp	r2, r3
 80036e0:	d001      	beq.n	80036e6 <RCC_SetFlashLatencyFromMSIRange+0x96>
  {
    return HAL_ERROR;
 80036e2:	2301      	movs	r3, #1
 80036e4:	e000      	b.n	80036e8 <RCC_SetFlashLatencyFromMSIRange+0x98>
  }
  
  return HAL_OK;
 80036e6:	2300      	movs	r3, #0
}
 80036e8:	0018      	movs	r0, r3
 80036ea:	46bd      	mov	sp, r7
 80036ec:	b004      	add	sp, #16
 80036ee:	bd80      	pop	{r7, pc}
 80036f0:	40021000 	.word	0x40021000
 80036f4:	40007000 	.word	0x40007000
 80036f8:	efffffff 	.word	0xefffffff
 80036fc:	40022000 	.word	0x40022000

08003700 <HAL_TIM_Base_Init>:
  *         parameters in the TIM_HandleTypeDef and create the associated handle.
  * @param  htim : TIM handle
  * @retval HAL status
  */
HAL_StatusTypeDef HAL_TIM_Base_Init(TIM_HandleTypeDef *htim)
{ 
 8003700:	b580      	push	{r7, lr}
 8003702:	b082      	sub	sp, #8
 8003704:	af00      	add	r7, sp, #0
 8003706:	6078      	str	r0, [r7, #4]
  /* Check the TIM handle allocation */
  if(htim == NULL)
 8003708:	687b      	ldr	r3, [r7, #4]
 800370a:	2b00      	cmp	r3, #0
 800370c:	d101      	bne.n	8003712 <HAL_TIM_Base_Init+0x12>
  {
    return HAL_ERROR;
 800370e:	2301      	movs	r3, #1
 8003710:	e01e      	b.n	8003750 <HAL_TIM_Base_Init+0x50>
  assert_param(IS_TIM_COUNTER_MODE(htim->Init.CounterMode));
  assert_param(IS_TIM_CLOCKDIVISION_DIV(htim->Init.ClockDivision));
  assert_param(IS_TIM_PERIOD(htim->Init.Period));
  assert_param(IS_TIM_PRESCALER(htim->Init.Prescaler));
  
  if(htim->State == HAL_TIM_STATE_RESET)
 8003712:	687b      	ldr	r3, [r7, #4]
 8003714:	2235      	movs	r2, #53	; 0x35
 8003716:	5c9b      	ldrb	r3, [r3, r2]
 8003718:	b2db      	uxtb	r3, r3
 800371a:	2b00      	cmp	r3, #0
 800371c:	d107      	bne.n	800372e <HAL_TIM_Base_Init+0x2e>
  {  
    /* Allocate lock resource and initialize it */
    htim->Lock = HAL_UNLOCKED;
 800371e:	687b      	ldr	r3, [r7, #4]
 8003720:	2234      	movs	r2, #52	; 0x34
 8003722:	2100      	movs	r1, #0
 8003724:	5499      	strb	r1, [r3, r2]

    /* Init the low level hardware : GPIO, CLOCK, NVIC */
    HAL_TIM_Base_MspInit(htim);
 8003726:	687b      	ldr	r3, [r7, #4]
 8003728:	0018      	movs	r0, r3
 800372a:	f003 fa49 	bl	8006bc0 <HAL_TIM_Base_MspInit>
  }
    
  /* Set the TIM state */
  htim->State= HAL_TIM_STATE_BUSY;
 800372e:	687b      	ldr	r3, [r7, #4]
 8003730:	2235      	movs	r2, #53	; 0x35
 8003732:	2102      	movs	r1, #2
 8003734:	5499      	strb	r1, [r3, r2]
  
  /* Set the Time Base configuration */
  TIM_Base_SetConfig(htim->Instance, &htim->Init); 
 8003736:	687b      	ldr	r3, [r7, #4]
 8003738:	681a      	ldr	r2, [r3, #0]
 800373a:	687b      	ldr	r3, [r7, #4]
 800373c:	3304      	adds	r3, #4
 800373e:	0019      	movs	r1, r3
 8003740:	0010      	movs	r0, r2
 8003742:	f000 f901 	bl	8003948 <TIM_Base_SetConfig>
  
  /* Initialize the TIM state*/
  htim->State= HAL_TIM_STATE_READY;
 8003746:	687b      	ldr	r3, [r7, #4]
 8003748:	2235      	movs	r2, #53	; 0x35
 800374a:	2101      	movs	r1, #1
 800374c:	5499      	strb	r1, [r3, r2]
  
  return HAL_OK;
 800374e:	2300      	movs	r3, #0
}
 8003750:	0018      	movs	r0, r3
 8003752:	46bd      	mov	sp, r7
 8003754:	b002      	add	sp, #8
 8003756:	bd80      	pop	{r7, pc}

08003758 <HAL_TIM_PWM_Start>:
  *            @arg TIM_CHANNEL_3: TIM Channel 3 selected
  *            @arg TIM_CHANNEL_4: TIM Channel 4 selected
  * @retval HAL status
  */
HAL_StatusTypeDef HAL_TIM_PWM_Start(TIM_HandleTypeDef *htim, uint32_t Channel)
{
 8003758:	b580      	push	{r7, lr}
 800375a:	b082      	sub	sp, #8
 800375c:	af00      	add	r7, sp, #0
 800375e:	6078      	str	r0, [r7, #4]
 8003760:	6039      	str	r1, [r7, #0]
  /* Check the parameters */
  assert_param(IS_TIM_CCX_INSTANCE(htim->Instance, Channel));

  /* Enable the Capture compare channel */
  TIM_CCxChannelCmd(htim->Instance, Channel, TIM_CCx_ENABLE);
 8003762:	687b      	ldr	r3, [r7, #4]
 8003764:	681b      	ldr	r3, [r3, #0]
 8003766:	6839      	ldr	r1, [r7, #0]
 8003768:	2201      	movs	r2, #1
 800376a:	0018      	movs	r0, r3
 800376c:	f000 fa60 	bl	8003c30 <TIM_CCxChannelCmd>

  /* Enable the Peripheral */
  __HAL_TIM_ENABLE(htim);
 8003770:	687b      	ldr	r3, [r7, #4]
 8003772:	681b      	ldr	r3, [r3, #0]
 8003774:	687a      	ldr	r2, [r7, #4]
 8003776:	6812      	ldr	r2, [r2, #0]
 8003778:	6812      	ldr	r2, [r2, #0]
 800377a:	2101      	movs	r1, #1
 800377c:	430a      	orrs	r2, r1
 800377e:	601a      	str	r2, [r3, #0]

  /* Return function status */
  return HAL_OK;
 8003780:	2300      	movs	r3, #0
}
 8003782:	0018      	movs	r0, r3
 8003784:	46bd      	mov	sp, r7
 8003786:	b002      	add	sp, #8
 8003788:	bd80      	pop	{r7, pc}
	...

0800378c <HAL_TIM_PWM_Stop>:
  *            @arg TIM_CHANNEL_3: TIM Channel 3 selected
  *            @arg TIM_CHANNEL_4: TIM Channel 4 selected
  * @retval HAL status
  */
HAL_StatusTypeDef HAL_TIM_PWM_Stop(TIM_HandleTypeDef *htim, uint32_t Channel)
{
 800378c:	b580      	push	{r7, lr}
 800378e:	b082      	sub	sp, #8
 8003790:	af00      	add	r7, sp, #0
 8003792:	6078      	str	r0, [r7, #4]
 8003794:	6039      	str	r1, [r7, #0]
  /* Check the parameters */
  assert_param(IS_TIM_CCX_INSTANCE(htim->Instance, Channel));

  /* Disable the Capture compare channel */
  TIM_CCxChannelCmd(htim->Instance, Channel, TIM_CCx_DISABLE);
 8003796:	687b      	ldr	r3, [r7, #4]
 8003798:	681b      	ldr	r3, [r3, #0]
 800379a:	6839      	ldr	r1, [r7, #0]
 800379c:	2200      	movs	r2, #0
 800379e:	0018      	movs	r0, r3
 80037a0:	f000 fa46 	bl	8003c30 <TIM_CCxChannelCmd>

  /* Disable the Peripheral */
  __HAL_TIM_DISABLE(htim);
 80037a4:	687b      	ldr	r3, [r7, #4]
 80037a6:	681b      	ldr	r3, [r3, #0]
 80037a8:	6a1b      	ldr	r3, [r3, #32]
 80037aa:	4a0a      	ldr	r2, [pc, #40]	; (80037d4 <HAL_TIM_PWM_Stop+0x48>)
 80037ac:	4013      	ands	r3, r2
 80037ae:	d107      	bne.n	80037c0 <HAL_TIM_PWM_Stop+0x34>
 80037b0:	687b      	ldr	r3, [r7, #4]
 80037b2:	681b      	ldr	r3, [r3, #0]
 80037b4:	687a      	ldr	r2, [r7, #4]
 80037b6:	6812      	ldr	r2, [r2, #0]
 80037b8:	6812      	ldr	r2, [r2, #0]
 80037ba:	2101      	movs	r1, #1
 80037bc:	438a      	bics	r2, r1
 80037be:	601a      	str	r2, [r3, #0]

  /* Change the htim state */
  htim->State = HAL_TIM_STATE_READY;
 80037c0:	687b      	ldr	r3, [r7, #4]
 80037c2:	2235      	movs	r2, #53	; 0x35
 80037c4:	2101      	movs	r1, #1
 80037c6:	5499      	strb	r1, [r3, r2]

  /* Return function status */
  return HAL_OK;
 80037c8:	2300      	movs	r3, #0
}
 80037ca:	0018      	movs	r0, r3
 80037cc:	46bd      	mov	sp, r7
 80037ce:	b002      	add	sp, #8
 80037d0:	bd80      	pop	{r7, pc}
 80037d2:	46c0      	nop			; (mov r8, r8)
 80037d4:	00001111 	.word	0x00001111

080037d8 <HAL_TIM_PWM_ConfigChannel>:
  *            @arg TIM_CHANNEL_3: TIM Channel 3 selected
  *            @arg TIM_CHANNEL_4: TIM Channel 4 selected
  * @retval HAL status
  */
HAL_StatusTypeDef HAL_TIM_PWM_ConfigChannel(TIM_HandleTypeDef *htim, TIM_OC_InitTypeDef* sConfig, uint32_t Channel)
{
 80037d8:	b580      	push	{r7, lr}
 80037da:	b084      	sub	sp, #16
 80037dc:	af00      	add	r7, sp, #0
 80037de:	60f8      	str	r0, [r7, #12]
 80037e0:	60b9      	str	r1, [r7, #8]
 80037e2:	607a      	str	r2, [r7, #4]
  __HAL_LOCK(htim);
 80037e4:	68fb      	ldr	r3, [r7, #12]
 80037e6:	2234      	movs	r2, #52	; 0x34
 80037e8:	5c9b      	ldrb	r3, [r3, r2]
 80037ea:	2b01      	cmp	r3, #1
 80037ec:	d101      	bne.n	80037f2 <HAL_TIM_PWM_ConfigChannel+0x1a>
 80037ee:	2302      	movs	r3, #2
 80037f0:	e0a4      	b.n	800393c <HAL_TIM_PWM_ConfigChannel+0x164>
 80037f2:	68fb      	ldr	r3, [r7, #12]
 80037f4:	2234      	movs	r2, #52	; 0x34
 80037f6:	2101      	movs	r1, #1
 80037f8:	5499      	strb	r1, [r3, r2]
  assert_param(IS_TIM_CHANNELS(Channel));
  assert_param(IS_TIM_PWM_MODE(sConfig->OCMode));
  assert_param(IS_TIM_OC_POLARITY(sConfig->OCPolarity));
  assert_param(IS_TIM_FAST_STATE(sConfig->OCFastMode));
  
  htim->State = HAL_TIM_STATE_BUSY;
 80037fa:	68fb      	ldr	r3, [r7, #12]
 80037fc:	2235      	movs	r2, #53	; 0x35
 80037fe:	2102      	movs	r1, #2
 8003800:	5499      	strb	r1, [r3, r2]

  switch (Channel)
 8003802:	687b      	ldr	r3, [r7, #4]
 8003804:	2b04      	cmp	r3, #4
 8003806:	d029      	beq.n	800385c <HAL_TIM_PWM_ConfigChannel+0x84>
 8003808:	d802      	bhi.n	8003810 <HAL_TIM_PWM_ConfigChannel+0x38>
 800380a:	2b00      	cmp	r3, #0
 800380c:	d005      	beq.n	800381a <HAL_TIM_PWM_ConfigChannel+0x42>
      htim->Instance->CCMR2 |= sConfig->OCFastMode << 8U;
    }
    break;

    default:
    break;
 800380e:	e08c      	b.n	800392a <HAL_TIM_PWM_ConfigChannel+0x152>
  switch (Channel)
 8003810:	2b08      	cmp	r3, #8
 8003812:	d046      	beq.n	80038a2 <HAL_TIM_PWM_ConfigChannel+0xca>
 8003814:	2b0c      	cmp	r3, #12
 8003816:	d065      	beq.n	80038e4 <HAL_TIM_PWM_ConfigChannel+0x10c>
    break;
 8003818:	e087      	b.n	800392a <HAL_TIM_PWM_ConfigChannel+0x152>
      TIM_OC1_SetConfig(htim->Instance, sConfig);
 800381a:	68fb      	ldr	r3, [r7, #12]
 800381c:	681b      	ldr	r3, [r3, #0]
 800381e:	68ba      	ldr	r2, [r7, #8]
 8003820:	0011      	movs	r1, r2
 8003822:	0018      	movs	r0, r3
 8003824:	f000 f8e8 	bl	80039f8 <TIM_OC1_SetConfig>
      htim->Instance->CCMR1 |= TIM_CCMR1_OC1PE;
 8003828:	68fb      	ldr	r3, [r7, #12]
 800382a:	681b      	ldr	r3, [r3, #0]
 800382c:	68fa      	ldr	r2, [r7, #12]
 800382e:	6812      	ldr	r2, [r2, #0]
 8003830:	6992      	ldr	r2, [r2, #24]
 8003832:	2108      	movs	r1, #8
 8003834:	430a      	orrs	r2, r1
 8003836:	619a      	str	r2, [r3, #24]
      htim->Instance->CCMR1 &= ~TIM_CCMR1_OC1FE;
 8003838:	68fb      	ldr	r3, [r7, #12]
 800383a:	681b      	ldr	r3, [r3, #0]
 800383c:	68fa      	ldr	r2, [r7, #12]
 800383e:	6812      	ldr	r2, [r2, #0]
 8003840:	6992      	ldr	r2, [r2, #24]
 8003842:	2104      	movs	r1, #4
 8003844:	438a      	bics	r2, r1
 8003846:	619a      	str	r2, [r3, #24]
      htim->Instance->CCMR1 |= sConfig->OCFastMode;
 8003848:	68fb      	ldr	r3, [r7, #12]
 800384a:	681b      	ldr	r3, [r3, #0]
 800384c:	68fa      	ldr	r2, [r7, #12]
 800384e:	6812      	ldr	r2, [r2, #0]
 8003850:	6991      	ldr	r1, [r2, #24]
 8003852:	68ba      	ldr	r2, [r7, #8]
 8003854:	68d2      	ldr	r2, [r2, #12]
 8003856:	430a      	orrs	r2, r1
 8003858:	619a      	str	r2, [r3, #24]
    break;
 800385a:	e066      	b.n	800392a <HAL_TIM_PWM_ConfigChannel+0x152>
      TIM_OC2_SetConfig(htim->Instance, sConfig);
 800385c:	68fb      	ldr	r3, [r7, #12]
 800385e:	681b      	ldr	r3, [r3, #0]
 8003860:	68ba      	ldr	r2, [r7, #8]
 8003862:	0011      	movs	r1, r2
 8003864:	0018      	movs	r0, r3
 8003866:	f000 f909 	bl	8003a7c <TIM_OC2_SetConfig>
      htim->Instance->CCMR1 |= TIM_CCMR1_OC2PE;
 800386a:	68fb      	ldr	r3, [r7, #12]
 800386c:	681b      	ldr	r3, [r3, #0]
 800386e:	68fa      	ldr	r2, [r7, #12]
 8003870:	6812      	ldr	r2, [r2, #0]
 8003872:	6992      	ldr	r2, [r2, #24]
 8003874:	2180      	movs	r1, #128	; 0x80
 8003876:	0109      	lsls	r1, r1, #4
 8003878:	430a      	orrs	r2, r1
 800387a:	619a      	str	r2, [r3, #24]
      htim->Instance->CCMR1 &= ~TIM_CCMR1_OC2FE;
 800387c:	68fb      	ldr	r3, [r7, #12]
 800387e:	681b      	ldr	r3, [r3, #0]
 8003880:	68fa      	ldr	r2, [r7, #12]
 8003882:	6812      	ldr	r2, [r2, #0]
 8003884:	6992      	ldr	r2, [r2, #24]
 8003886:	492f      	ldr	r1, [pc, #188]	; (8003944 <HAL_TIM_PWM_ConfigChannel+0x16c>)
 8003888:	400a      	ands	r2, r1
 800388a:	619a      	str	r2, [r3, #24]
      htim->Instance->CCMR1 |= sConfig->OCFastMode << 8U;
 800388c:	68fb      	ldr	r3, [r7, #12]
 800388e:	681b      	ldr	r3, [r3, #0]
 8003890:	68fa      	ldr	r2, [r7, #12]
 8003892:	6812      	ldr	r2, [r2, #0]
 8003894:	6991      	ldr	r1, [r2, #24]
 8003896:	68ba      	ldr	r2, [r7, #8]
 8003898:	68d2      	ldr	r2, [r2, #12]
 800389a:	0212      	lsls	r2, r2, #8
 800389c:	430a      	orrs	r2, r1
 800389e:	619a      	str	r2, [r3, #24]
    break;
 80038a0:	e043      	b.n	800392a <HAL_TIM_PWM_ConfigChannel+0x152>
      TIM_OC3_SetConfig(htim->Instance, sConfig);
 80038a2:	68fb      	ldr	r3, [r7, #12]
 80038a4:	681b      	ldr	r3, [r3, #0]
 80038a6:	68ba      	ldr	r2, [r7, #8]
 80038a8:	0011      	movs	r1, r2
 80038aa:	0018      	movs	r0, r3
 80038ac:	f000 f92e 	bl	8003b0c <TIM_OC3_SetConfig>
      htim->Instance->CCMR2 |= TIM_CCMR2_OC3PE;
 80038b0:	68fb      	ldr	r3, [r7, #12]
 80038b2:	681b      	ldr	r3, [r3, #0]
 80038b4:	68fa      	ldr	r2, [r7, #12]
 80038b6:	6812      	ldr	r2, [r2, #0]
 80038b8:	69d2      	ldr	r2, [r2, #28]
 80038ba:	2108      	movs	r1, #8
 80038bc:	430a      	orrs	r2, r1
 80038be:	61da      	str	r2, [r3, #28]
      htim->Instance->CCMR2 &= ~TIM_CCMR2_OC3FE;
 80038c0:	68fb      	ldr	r3, [r7, #12]
 80038c2:	681b      	ldr	r3, [r3, #0]
 80038c4:	68fa      	ldr	r2, [r7, #12]
 80038c6:	6812      	ldr	r2, [r2, #0]
 80038c8:	69d2      	ldr	r2, [r2, #28]
 80038ca:	2104      	movs	r1, #4
 80038cc:	438a      	bics	r2, r1
 80038ce:	61da      	str	r2, [r3, #28]
      htim->Instance->CCMR2 |= sConfig->OCFastMode;
 80038d0:	68fb      	ldr	r3, [r7, #12]
 80038d2:	681b      	ldr	r3, [r3, #0]
 80038d4:	68fa      	ldr	r2, [r7, #12]
 80038d6:	6812      	ldr	r2, [r2, #0]
 80038d8:	69d1      	ldr	r1, [r2, #28]
 80038da:	68ba      	ldr	r2, [r7, #8]
 80038dc:	68d2      	ldr	r2, [r2, #12]
 80038de:	430a      	orrs	r2, r1
 80038e0:	61da      	str	r2, [r3, #28]
    break;
 80038e2:	e022      	b.n	800392a <HAL_TIM_PWM_ConfigChannel+0x152>
      TIM_OC4_SetConfig(htim->Instance, sConfig);
 80038e4:	68fb      	ldr	r3, [r7, #12]
 80038e6:	681b      	ldr	r3, [r3, #0]
 80038e8:	68ba      	ldr	r2, [r7, #8]
 80038ea:	0011      	movs	r1, r2
 80038ec:	0018      	movs	r0, r3
 80038ee:	f000 f953 	bl	8003b98 <TIM_OC4_SetConfig>
      htim->Instance->CCMR2 |= TIM_CCMR2_OC4PE;
 80038f2:	68fb      	ldr	r3, [r7, #12]
 80038f4:	681b      	ldr	r3, [r3, #0]
 80038f6:	68fa      	ldr	r2, [r7, #12]
 80038f8:	6812      	ldr	r2, [r2, #0]
 80038fa:	69d2      	ldr	r2, [r2, #28]
 80038fc:	2180      	movs	r1, #128	; 0x80
 80038fe:	0109      	lsls	r1, r1, #4
 8003900:	430a      	orrs	r2, r1
 8003902:	61da      	str	r2, [r3, #28]
      htim->Instance->CCMR2 &= ~TIM_CCMR2_OC4FE;
 8003904:	68fb      	ldr	r3, [r7, #12]
 8003906:	681b      	ldr	r3, [r3, #0]
 8003908:	68fa      	ldr	r2, [r7, #12]
 800390a:	6812      	ldr	r2, [r2, #0]
 800390c:	69d2      	ldr	r2, [r2, #28]
 800390e:	490d      	ldr	r1, [pc, #52]	; (8003944 <HAL_TIM_PWM_ConfigChannel+0x16c>)
 8003910:	400a      	ands	r2, r1
 8003912:	61da      	str	r2, [r3, #28]
      htim->Instance->CCMR2 |= sConfig->OCFastMode << 8U;
 8003914:	68fb      	ldr	r3, [r7, #12]
 8003916:	681b      	ldr	r3, [r3, #0]
 8003918:	68fa      	ldr	r2, [r7, #12]
 800391a:	6812      	ldr	r2, [r2, #0]
 800391c:	69d1      	ldr	r1, [r2, #28]
 800391e:	68ba      	ldr	r2, [r7, #8]
 8003920:	68d2      	ldr	r2, [r2, #12]
 8003922:	0212      	lsls	r2, r2, #8
 8003924:	430a      	orrs	r2, r1
 8003926:	61da      	str	r2, [r3, #28]
    break;
 8003928:	46c0      	nop			; (mov r8, r8)
  }
  
  htim->State = HAL_TIM_STATE_READY;
 800392a:	68fb      	ldr	r3, [r7, #12]
 800392c:	2235      	movs	r2, #53	; 0x35
 800392e:	2101      	movs	r1, #1
 8003930:	5499      	strb	r1, [r3, r2]

  __HAL_UNLOCK(htim);
 8003932:	68fb      	ldr	r3, [r7, #12]
 8003934:	2234      	movs	r2, #52	; 0x34
 8003936:	2100      	movs	r1, #0
 8003938:	5499      	strb	r1, [r3, r2]

  return HAL_OK;
 800393a:	2300      	movs	r3, #0
}
 800393c:	0018      	movs	r0, r3
 800393e:	46bd      	mov	sp, r7
 8003940:	b004      	add	sp, #16
 8003942:	bd80      	pop	{r7, pc}
 8003944:	fffffbff 	.word	0xfffffbff

08003948 <TIM_Base_SetConfig>:
  * @param  TIMx : TIM peripheral
  * @param   Structure : TIM Base configuration structure
  * @retval None
  */
static void TIM_Base_SetConfig(TIM_TypeDef *TIMx, TIM_Base_InitTypeDef *Structure)
{
 8003948:	b580      	push	{r7, lr}
 800394a:	b084      	sub	sp, #16
 800394c:	af00      	add	r7, sp, #0
 800394e:	6078      	str	r0, [r7, #4]
 8003950:	6039      	str	r1, [r7, #0]
  uint32_t tmpcr1 = 0U;
 8003952:	2300      	movs	r3, #0
 8003954:	60fb      	str	r3, [r7, #12]
  tmpcr1 = TIMx->CR1;
 8003956:	687b      	ldr	r3, [r7, #4]
 8003958:	681b      	ldr	r3, [r3, #0]
 800395a:	60fb      	str	r3, [r7, #12]
  
  /* Set TIM Time Base Unit parameters ---------------------------------------*/
  if(IS_TIM_CC1_INSTANCE(TIMx) != RESET)
 800395c:	687a      	ldr	r2, [r7, #4]
 800395e:	2380      	movs	r3, #128	; 0x80
 8003960:	05db      	lsls	r3, r3, #23
 8003962:	429a      	cmp	r2, r3
 8003964:	d007      	beq.n	8003976 <TIM_Base_SetConfig+0x2e>
 8003966:	687b      	ldr	r3, [r7, #4]
 8003968:	4a20      	ldr	r2, [pc, #128]	; (80039ec <TIM_Base_SetConfig+0xa4>)
 800396a:	4293      	cmp	r3, r2
 800396c:	d003      	beq.n	8003976 <TIM_Base_SetConfig+0x2e>
 800396e:	687b      	ldr	r3, [r7, #4]
 8003970:	4a1f      	ldr	r2, [pc, #124]	; (80039f0 <TIM_Base_SetConfig+0xa8>)
 8003972:	4293      	cmp	r3, r2
 8003974:	d101      	bne.n	800397a <TIM_Base_SetConfig+0x32>
 8003976:	2301      	movs	r3, #1
 8003978:	e000      	b.n	800397c <TIM_Base_SetConfig+0x34>
 800397a:	2300      	movs	r3, #0
 800397c:	2b00      	cmp	r3, #0
 800397e:	d008      	beq.n	8003992 <TIM_Base_SetConfig+0x4a>
  {
    /* Select the Counter Mode */
    tmpcr1 &= ~(TIM_CR1_DIR | TIM_CR1_CMS);
 8003980:	68fb      	ldr	r3, [r7, #12]
 8003982:	2270      	movs	r2, #112	; 0x70
 8003984:	4393      	bics	r3, r2
 8003986:	60fb      	str	r3, [r7, #12]
    tmpcr1 |= Structure->CounterMode;
 8003988:	683b      	ldr	r3, [r7, #0]
 800398a:	685b      	ldr	r3, [r3, #4]
 800398c:	68fa      	ldr	r2, [r7, #12]
 800398e:	4313      	orrs	r3, r2
 8003990:	60fb      	str	r3, [r7, #12]
  }
 
  if(IS_TIM_CC1_INSTANCE(TIMx) != RESET)  
 8003992:	687a      	ldr	r2, [r7, #4]
 8003994:	2380      	movs	r3, #128	; 0x80
 8003996:	05db      	lsls	r3, r3, #23
 8003998:	429a      	cmp	r2, r3
 800399a:	d007      	beq.n	80039ac <TIM_Base_SetConfig+0x64>
 800399c:	687b      	ldr	r3, [r7, #4]
 800399e:	4a13      	ldr	r2, [pc, #76]	; (80039ec <TIM_Base_SetConfig+0xa4>)
 80039a0:	4293      	cmp	r3, r2
 80039a2:	d003      	beq.n	80039ac <TIM_Base_SetConfig+0x64>
 80039a4:	687b      	ldr	r3, [r7, #4]
 80039a6:	4a12      	ldr	r2, [pc, #72]	; (80039f0 <TIM_Base_SetConfig+0xa8>)
 80039a8:	4293      	cmp	r3, r2
 80039aa:	d101      	bne.n	80039b0 <TIM_Base_SetConfig+0x68>
 80039ac:	2301      	movs	r3, #1
 80039ae:	e000      	b.n	80039b2 <TIM_Base_SetConfig+0x6a>
 80039b0:	2300      	movs	r3, #0
 80039b2:	2b00      	cmp	r3, #0
 80039b4:	d008      	beq.n	80039c8 <TIM_Base_SetConfig+0x80>
  {
    /* Set the clock division */
    tmpcr1 &= ~TIM_CR1_CKD;
 80039b6:	68fb      	ldr	r3, [r7, #12]
 80039b8:	4a0e      	ldr	r2, [pc, #56]	; (80039f4 <TIM_Base_SetConfig+0xac>)
 80039ba:	4013      	ands	r3, r2
 80039bc:	60fb      	str	r3, [r7, #12]
    tmpcr1 |= (uint32_t)Structure->ClockDivision;
 80039be:	683b      	ldr	r3, [r7, #0]
 80039c0:	68db      	ldr	r3, [r3, #12]
 80039c2:	68fa      	ldr	r2, [r7, #12]
 80039c4:	4313      	orrs	r3, r2
 80039c6:	60fb      	str	r3, [r7, #12]
  }

  TIMx->CR1 = tmpcr1;
 80039c8:	687b      	ldr	r3, [r7, #4]
 80039ca:	68fa      	ldr	r2, [r7, #12]
 80039cc:	601a      	str	r2, [r3, #0]

  /* Set the Autoreload value */
  TIMx->ARR = (uint32_t)Structure->Period ;
 80039ce:	683b      	ldr	r3, [r7, #0]
 80039d0:	689a      	ldr	r2, [r3, #8]
 80039d2:	687b      	ldr	r3, [r7, #4]
 80039d4:	62da      	str	r2, [r3, #44]	; 0x2c
 
  /* Set the Prescaler value */
  TIMx->PSC = (uint32_t)Structure->Prescaler;
 80039d6:	683b      	ldr	r3, [r7, #0]
 80039d8:	681a      	ldr	r2, [r3, #0]
 80039da:	687b      	ldr	r3, [r7, #4]
 80039dc:	629a      	str	r2, [r3, #40]	; 0x28

  /* Generate an update event to reload the Prescaler value immediatly */
  TIMx->EGR = TIM_EGR_UG;
 80039de:	687b      	ldr	r3, [r7, #4]
 80039e0:	2201      	movs	r2, #1
 80039e2:	615a      	str	r2, [r3, #20]
}
 80039e4:	46c0      	nop			; (mov r8, r8)
 80039e6:	46bd      	mov	sp, r7
 80039e8:	b004      	add	sp, #16
 80039ea:	bd80      	pop	{r7, pc}
 80039ec:	40010800 	.word	0x40010800
 80039f0:	40011400 	.word	0x40011400
 80039f4:	fffffcff 	.word	0xfffffcff

080039f8 <TIM_OC1_SetConfig>:
  * @param  TIMx to select the TIM peripheral
  * @param  OC_Config: The ouput configuration structure
  * @retval None
  */
static void TIM_OC1_SetConfig(TIM_TypeDef *TIMx, TIM_OC_InitTypeDef *OC_Config)
{
 80039f8:	b580      	push	{r7, lr}
 80039fa:	b086      	sub	sp, #24
 80039fc:	af00      	add	r7, sp, #0
 80039fe:	6078      	str	r0, [r7, #4]
 8003a00:	6039      	str	r1, [r7, #0]
  uint32_t tmpccmrx = 0U;
 8003a02:	2300      	movs	r3, #0
 8003a04:	617b      	str	r3, [r7, #20]
  uint32_t tmpccer = 0U;
 8003a06:	2300      	movs	r3, #0
 8003a08:	613b      	str	r3, [r7, #16]
  uint32_t tmpcr2 = 0U;  
 8003a0a:	2300      	movs	r3, #0
 8003a0c:	60fb      	str	r3, [r7, #12]

  /* Disable the Channel 1: Reset the CC1E Bit */
  TIMx->CCER &= ~TIM_CCER_CC1E;
 8003a0e:	687b      	ldr	r3, [r7, #4]
 8003a10:	6a1b      	ldr	r3, [r3, #32]
 8003a12:	2201      	movs	r2, #1
 8003a14:	4393      	bics	r3, r2
 8003a16:	001a      	movs	r2, r3
 8003a18:	687b      	ldr	r3, [r7, #4]
 8003a1a:	621a      	str	r2, [r3, #32]
  
  /* Get the TIMx CCER register value */
  tmpccer = TIMx->CCER;
 8003a1c:	687b      	ldr	r3, [r7, #4]
 8003a1e:	6a1b      	ldr	r3, [r3, #32]
 8003a20:	613b      	str	r3, [r7, #16]
  /* Get the TIMx CR2 register value */
  tmpcr2 = TIMx->CR2;
 8003a22:	687b      	ldr	r3, [r7, #4]
 8003a24:	685b      	ldr	r3, [r3, #4]
 8003a26:	60fb      	str	r3, [r7, #12]
  
  /* Get the TIMx CCMR1 register value */
  tmpccmrx = TIMx->CCMR1;
 8003a28:	687b      	ldr	r3, [r7, #4]
 8003a2a:	699b      	ldr	r3, [r3, #24]
 8003a2c:	617b      	str	r3, [r7, #20]
    
  /* Reset the Output Compare Mode Bits */
  tmpccmrx &= ~TIM_CCMR1_OC1M;
 8003a2e:	697b      	ldr	r3, [r7, #20]
 8003a30:	2270      	movs	r2, #112	; 0x70
 8003a32:	4393      	bics	r3, r2
 8003a34:	617b      	str	r3, [r7, #20]
  tmpccmrx &= ~TIM_CCMR1_CC1S;
 8003a36:	697b      	ldr	r3, [r7, #20]
 8003a38:	2203      	movs	r2, #3
 8003a3a:	4393      	bics	r3, r2
 8003a3c:	617b      	str	r3, [r7, #20]
  /* Select the Output Compare Mode */
  tmpccmrx |= OC_Config->OCMode;
 8003a3e:	683b      	ldr	r3, [r7, #0]
 8003a40:	681b      	ldr	r3, [r3, #0]
 8003a42:	697a      	ldr	r2, [r7, #20]
 8003a44:	4313      	orrs	r3, r2
 8003a46:	617b      	str	r3, [r7, #20]
  
  /* Reset the Output Polarity level */
  tmpccer &= ~TIM_CCER_CC1P;
 8003a48:	693b      	ldr	r3, [r7, #16]
 8003a4a:	2202      	movs	r2, #2
 8003a4c:	4393      	bics	r3, r2
 8003a4e:	613b      	str	r3, [r7, #16]
  /* Set the Output Compare Polarity */
  tmpccer |= OC_Config->OCPolarity;
 8003a50:	683b      	ldr	r3, [r7, #0]
 8003a52:	689b      	ldr	r3, [r3, #8]
 8003a54:	693a      	ldr	r2, [r7, #16]
 8003a56:	4313      	orrs	r3, r2
 8003a58:	613b      	str	r3, [r7, #16]

  /* Write to TIMx CR2 */
  TIMx->CR2 = tmpcr2;
 8003a5a:	687b      	ldr	r3, [r7, #4]
 8003a5c:	68fa      	ldr	r2, [r7, #12]
 8003a5e:	605a      	str	r2, [r3, #4]
  
  /* Write to TIMx CCMR1 */
  TIMx->CCMR1 = tmpccmrx;
 8003a60:	687b      	ldr	r3, [r7, #4]
 8003a62:	697a      	ldr	r2, [r7, #20]
 8003a64:	619a      	str	r2, [r3, #24]
  
  /* Set the Capture Compare Register value */
  TIMx->CCR1 = OC_Config->Pulse;
 8003a66:	683b      	ldr	r3, [r7, #0]
 8003a68:	685a      	ldr	r2, [r3, #4]
 8003a6a:	687b      	ldr	r3, [r7, #4]
 8003a6c:	635a      	str	r2, [r3, #52]	; 0x34
  
  /* Write to TIMx CCER */
  TIMx->CCER = tmpccer;  
 8003a6e:	687b      	ldr	r3, [r7, #4]
 8003a70:	693a      	ldr	r2, [r7, #16]
 8003a72:	621a      	str	r2, [r3, #32]
} 
 8003a74:	46c0      	nop			; (mov r8, r8)
 8003a76:	46bd      	mov	sp, r7
 8003a78:	b006      	add	sp, #24
 8003a7a:	bd80      	pop	{r7, pc}

08003a7c <TIM_OC2_SetConfig>:
  * @param  TIMx to select the TIM peripheral
  * @param  OC_Config: The ouput configuration structure
  * @retval None
  */
static void TIM_OC2_SetConfig(TIM_TypeDef *TIMx, TIM_OC_InitTypeDef *OC_Config)
{
 8003a7c:	b580      	push	{r7, lr}
 8003a7e:	b086      	sub	sp, #24
 8003a80:	af00      	add	r7, sp, #0
 8003a82:	6078      	str	r0, [r7, #4]
 8003a84:	6039      	str	r1, [r7, #0]
  uint32_t tmpccmrx = 0U;
 8003a86:	2300      	movs	r3, #0
 8003a88:	617b      	str	r3, [r7, #20]
  uint32_t tmpccer = 0U;
 8003a8a:	2300      	movs	r3, #0
 8003a8c:	613b      	str	r3, [r7, #16]
  uint32_t tmpcr2 = 0U;
 8003a8e:	2300      	movs	r3, #0
 8003a90:	60fb      	str	r3, [r7, #12]
   
  /* Disable the Channel 2: Reset the CC2E Bit */
  TIMx->CCER &= ~TIM_CCER_CC2E;
 8003a92:	687b      	ldr	r3, [r7, #4]
 8003a94:	6a1b      	ldr	r3, [r3, #32]
 8003a96:	2210      	movs	r2, #16
 8003a98:	4393      	bics	r3, r2
 8003a9a:	001a      	movs	r2, r3
 8003a9c:	687b      	ldr	r3, [r7, #4]
 8003a9e:	621a      	str	r2, [r3, #32]
  
  /* Get the TIMx CCER register value */  
  tmpccer = TIMx->CCER;
 8003aa0:	687b      	ldr	r3, [r7, #4]
 8003aa2:	6a1b      	ldr	r3, [r3, #32]
 8003aa4:	613b      	str	r3, [r7, #16]
  /* Get the TIMx CR2 register value */
  tmpcr2 = TIMx->CR2;
 8003aa6:	687b      	ldr	r3, [r7, #4]
 8003aa8:	685b      	ldr	r3, [r3, #4]
 8003aaa:	60fb      	str	r3, [r7, #12]
  
  /* Get the TIMx CCMR1 register value */
  tmpccmrx = TIMx->CCMR1;
 8003aac:	687b      	ldr	r3, [r7, #4]
 8003aae:	699b      	ldr	r3, [r3, #24]
 8003ab0:	617b      	str	r3, [r7, #20]
    
  /* Reset the Output Compare mode and Capture/Compare selection Bits */
  tmpccmrx &= ~TIM_CCMR1_OC2M;
 8003ab2:	697b      	ldr	r3, [r7, #20]
 8003ab4:	4a13      	ldr	r2, [pc, #76]	; (8003b04 <TIM_OC2_SetConfig+0x88>)
 8003ab6:	4013      	ands	r3, r2
 8003ab8:	617b      	str	r3, [r7, #20]
  tmpccmrx &= ~TIM_CCMR1_CC2S;
 8003aba:	697b      	ldr	r3, [r7, #20]
 8003abc:	4a12      	ldr	r2, [pc, #72]	; (8003b08 <TIM_OC2_SetConfig+0x8c>)
 8003abe:	4013      	ands	r3, r2
 8003ac0:	617b      	str	r3, [r7, #20]
  
  /* Select the Output Compare Mode */
  tmpccmrx |= (OC_Config->OCMode << 8U);
 8003ac2:	683b      	ldr	r3, [r7, #0]
 8003ac4:	681b      	ldr	r3, [r3, #0]
 8003ac6:	021b      	lsls	r3, r3, #8
 8003ac8:	697a      	ldr	r2, [r7, #20]
 8003aca:	4313      	orrs	r3, r2
 8003acc:	617b      	str	r3, [r7, #20]
  
  /* Reset the Output Polarity level */
  tmpccer &= ~TIM_CCER_CC2P;
 8003ace:	693b      	ldr	r3, [r7, #16]
 8003ad0:	2220      	movs	r2, #32
 8003ad2:	4393      	bics	r3, r2
 8003ad4:	613b      	str	r3, [r7, #16]
  /* Set the Output Compare Polarity */
  tmpccer |= (OC_Config->OCPolarity << 4U);
 8003ad6:	683b      	ldr	r3, [r7, #0]
 8003ad8:	689b      	ldr	r3, [r3, #8]
 8003ada:	011b      	lsls	r3, r3, #4
 8003adc:	693a      	ldr	r2, [r7, #16]
 8003ade:	4313      	orrs	r3, r2
 8003ae0:	613b      	str	r3, [r7, #16]
    
  /* Write to TIMx CR2 */
  TIMx->CR2 = tmpcr2;
 8003ae2:	687b      	ldr	r3, [r7, #4]
 8003ae4:	68fa      	ldr	r2, [r7, #12]
 8003ae6:	605a      	str	r2, [r3, #4]
  
  /* Write to TIMx CCMR1 */
  TIMx->CCMR1 = tmpccmrx;
 8003ae8:	687b      	ldr	r3, [r7, #4]
 8003aea:	697a      	ldr	r2, [r7, #20]
 8003aec:	619a      	str	r2, [r3, #24]
  
  /* Set the Capture Compare Register value */
  TIMx->CCR2 = OC_Config->Pulse;
 8003aee:	683b      	ldr	r3, [r7, #0]
 8003af0:	685a      	ldr	r2, [r3, #4]
 8003af2:	687b      	ldr	r3, [r7, #4]
 8003af4:	639a      	str	r2, [r3, #56]	; 0x38
  
  /* Write to TIMx CCER */
  TIMx->CCER = tmpccer;
 8003af6:	687b      	ldr	r3, [r7, #4]
 8003af8:	693a      	ldr	r2, [r7, #16]
 8003afa:	621a      	str	r2, [r3, #32]
}
 8003afc:	46c0      	nop			; (mov r8, r8)
 8003afe:	46bd      	mov	sp, r7
 8003b00:	b006      	add	sp, #24
 8003b02:	bd80      	pop	{r7, pc}
 8003b04:	ffff8fff 	.word	0xffff8fff
 8003b08:	fffffcff 	.word	0xfffffcff

08003b0c <TIM_OC3_SetConfig>:
  * @param  TIMx to select the TIM peripheral
  * @param  OC_Config: The ouput configuration structure
  * @retval None
  */
static void TIM_OC3_SetConfig(TIM_TypeDef *TIMx, TIM_OC_InitTypeDef *OC_Config)
{
 8003b0c:	b580      	push	{r7, lr}
 8003b0e:	b086      	sub	sp, #24
 8003b10:	af00      	add	r7, sp, #0
 8003b12:	6078      	str	r0, [r7, #4]
 8003b14:	6039      	str	r1, [r7, #0]
  uint32_t tmpccmrx = 0U;
 8003b16:	2300      	movs	r3, #0
 8003b18:	617b      	str	r3, [r7, #20]
  uint32_t tmpccer = 0U;
 8003b1a:	2300      	movs	r3, #0
 8003b1c:	613b      	str	r3, [r7, #16]
  uint32_t tmpcr2 = 0U;   
 8003b1e:	2300      	movs	r3, #0
 8003b20:	60fb      	str	r3, [r7, #12]

  /* Disable the Channel 3: Reset the CC2E Bit */
  TIMx->CCER &= ~TIM_CCER_CC3E;
 8003b22:	687b      	ldr	r3, [r7, #4]
 8003b24:	6a1b      	ldr	r3, [r3, #32]
 8003b26:	4a1a      	ldr	r2, [pc, #104]	; (8003b90 <TIM_OC3_SetConfig+0x84>)
 8003b28:	401a      	ands	r2, r3
 8003b2a:	687b      	ldr	r3, [r7, #4]
 8003b2c:	621a      	str	r2, [r3, #32]
  
  /* Get the TIMx CCER register value */
  tmpccer = TIMx->CCER;
 8003b2e:	687b      	ldr	r3, [r7, #4]
 8003b30:	6a1b      	ldr	r3, [r3, #32]
 8003b32:	613b      	str	r3, [r7, #16]
  /* Get the TIMx CR2 register value */
  tmpcr2 = TIMx->CR2;
 8003b34:	687b      	ldr	r3, [r7, #4]
 8003b36:	685b      	ldr	r3, [r3, #4]
 8003b38:	60fb      	str	r3, [r7, #12]
  
  /* Get the TIMx CCMR2 register value */
  tmpccmrx = TIMx->CCMR2;
 8003b3a:	687b      	ldr	r3, [r7, #4]
 8003b3c:	69db      	ldr	r3, [r3, #28]
 8003b3e:	617b      	str	r3, [r7, #20]
    
  /* Reset the Output Compare mode and Capture/Compare selection Bits */
  tmpccmrx &= ~TIM_CCMR2_OC3M;
 8003b40:	697b      	ldr	r3, [r7, #20]
 8003b42:	2270      	movs	r2, #112	; 0x70
 8003b44:	4393      	bics	r3, r2
 8003b46:	617b      	str	r3, [r7, #20]
  tmpccmrx &= ~TIM_CCMR2_CC3S;  
 8003b48:	697b      	ldr	r3, [r7, #20]
 8003b4a:	2203      	movs	r2, #3
 8003b4c:	4393      	bics	r3, r2
 8003b4e:	617b      	str	r3, [r7, #20]
  /* Select the Output Compare Mode */
  tmpccmrx |= OC_Config->OCMode;
 8003b50:	683b      	ldr	r3, [r7, #0]
 8003b52:	681b      	ldr	r3, [r3, #0]
 8003b54:	697a      	ldr	r2, [r7, #20]
 8003b56:	4313      	orrs	r3, r2
 8003b58:	617b      	str	r3, [r7, #20]
  
  /* Reset the Output Polarity level */
  tmpccer &= ~TIM_CCER_CC3P;
 8003b5a:	693b      	ldr	r3, [r7, #16]
 8003b5c:	4a0d      	ldr	r2, [pc, #52]	; (8003b94 <TIM_OC3_SetConfig+0x88>)
 8003b5e:	4013      	ands	r3, r2
 8003b60:	613b      	str	r3, [r7, #16]
  /* Set the Output Compare Polarity */
  tmpccer |= (OC_Config->OCPolarity << 8U);
 8003b62:	683b      	ldr	r3, [r7, #0]
 8003b64:	689b      	ldr	r3, [r3, #8]
 8003b66:	021b      	lsls	r3, r3, #8
 8003b68:	693a      	ldr	r2, [r7, #16]
 8003b6a:	4313      	orrs	r3, r2
 8003b6c:	613b      	str	r3, [r7, #16]
    
  /* Write to TIMx CR2 */
  TIMx->CR2 = tmpcr2;
 8003b6e:	687b      	ldr	r3, [r7, #4]
 8003b70:	68fa      	ldr	r2, [r7, #12]
 8003b72:	605a      	str	r2, [r3, #4]
  
  /* Write to TIMx CCMR2 */
  TIMx->CCMR2 = tmpccmrx;
 8003b74:	687b      	ldr	r3, [r7, #4]
 8003b76:	697a      	ldr	r2, [r7, #20]
 8003b78:	61da      	str	r2, [r3, #28]
  
  /* Set the Capture Compare Register value */
  TIMx->CCR3 = OC_Config->Pulse;
 8003b7a:	683b      	ldr	r3, [r7, #0]
 8003b7c:	685a      	ldr	r2, [r3, #4]
 8003b7e:	687b      	ldr	r3, [r7, #4]
 8003b80:	63da      	str	r2, [r3, #60]	; 0x3c
  
  /* Write to TIMx CCER */
  TIMx->CCER = tmpccer;
 8003b82:	687b      	ldr	r3, [r7, #4]
 8003b84:	693a      	ldr	r2, [r7, #16]
 8003b86:	621a      	str	r2, [r3, #32]
}
 8003b88:	46c0      	nop			; (mov r8, r8)
 8003b8a:	46bd      	mov	sp, r7
 8003b8c:	b006      	add	sp, #24
 8003b8e:	bd80      	pop	{r7, pc}
 8003b90:	fffffeff 	.word	0xfffffeff
 8003b94:	fffffdff 	.word	0xfffffdff

08003b98 <TIM_OC4_SetConfig>:
  * @param  TIMx to select the TIM peripheral
  * @param  OC_Config: The ouput configuration structure
  * @retval None
  */
static void TIM_OC4_SetConfig(TIM_TypeDef *TIMx, TIM_OC_InitTypeDef *OC_Config)
{
 8003b98:	b580      	push	{r7, lr}
 8003b9a:	b086      	sub	sp, #24
 8003b9c:	af00      	add	r7, sp, #0
 8003b9e:	6078      	str	r0, [r7, #4]
 8003ba0:	6039      	str	r1, [r7, #0]
  uint32_t tmpccmrx = 0U;
 8003ba2:	2300      	movs	r3, #0
 8003ba4:	617b      	str	r3, [r7, #20]
  uint32_t tmpccer = 0U;
 8003ba6:	2300      	movs	r3, #0
 8003ba8:	613b      	str	r3, [r7, #16]
  uint32_t tmpcr2 = 0U;
 8003baa:	2300      	movs	r3, #0
 8003bac:	60fb      	str	r3, [r7, #12]

  /* Disable the Channel 4: Reset the CC4E Bit */
  TIMx->CCER &= ~TIM_CCER_CC4E;
 8003bae:	687b      	ldr	r3, [r7, #4]
 8003bb0:	6a1b      	ldr	r3, [r3, #32]
 8003bb2:	4a1b      	ldr	r2, [pc, #108]	; (8003c20 <TIM_OC4_SetConfig+0x88>)
 8003bb4:	401a      	ands	r2, r3
 8003bb6:	687b      	ldr	r3, [r7, #4]
 8003bb8:	621a      	str	r2, [r3, #32]
  
  /* Get the TIMx CCER register value */
  tmpccer = TIMx->CCER;
 8003bba:	687b      	ldr	r3, [r7, #4]
 8003bbc:	6a1b      	ldr	r3, [r3, #32]
 8003bbe:	613b      	str	r3, [r7, #16]
  /* Get the TIMx CR2 register value */
  tmpcr2 = TIMx->CR2;
 8003bc0:	687b      	ldr	r3, [r7, #4]
 8003bc2:	685b      	ldr	r3, [r3, #4]
 8003bc4:	60fb      	str	r3, [r7, #12]
  
  /* Get the TIMx CCMR2 register value */
  tmpccmrx = TIMx->CCMR2;
 8003bc6:	687b      	ldr	r3, [r7, #4]
 8003bc8:	69db      	ldr	r3, [r3, #28]
 8003bca:	617b      	str	r3, [r7, #20]
    
  /* Reset the Output Compare mode and Capture/Compare selection Bits */
  tmpccmrx &= ~TIM_CCMR2_OC4M;
 8003bcc:	697b      	ldr	r3, [r7, #20]
 8003bce:	4a15      	ldr	r2, [pc, #84]	; (8003c24 <TIM_OC4_SetConfig+0x8c>)
 8003bd0:	4013      	ands	r3, r2
 8003bd2:	617b      	str	r3, [r7, #20]
  tmpccmrx &= ~TIM_CCMR2_CC4S;
 8003bd4:	697b      	ldr	r3, [r7, #20]
 8003bd6:	4a14      	ldr	r2, [pc, #80]	; (8003c28 <TIM_OC4_SetConfig+0x90>)
 8003bd8:	4013      	ands	r3, r2
 8003bda:	617b      	str	r3, [r7, #20]
  
  /* Select the Output Compare Mode */
  tmpccmrx |= (OC_Config->OCMode << 8U);
 8003bdc:	683b      	ldr	r3, [r7, #0]
 8003bde:	681b      	ldr	r3, [r3, #0]
 8003be0:	021b      	lsls	r3, r3, #8
 8003be2:	697a      	ldr	r2, [r7, #20]
 8003be4:	4313      	orrs	r3, r2
 8003be6:	617b      	str	r3, [r7, #20]
  
  /* Reset the Output Polarity level */
  tmpccer &= ~TIM_CCER_CC4P;
 8003be8:	693b      	ldr	r3, [r7, #16]
 8003bea:	4a10      	ldr	r2, [pc, #64]	; (8003c2c <TIM_OC4_SetConfig+0x94>)
 8003bec:	4013      	ands	r3, r2
 8003bee:	613b      	str	r3, [r7, #16]
  /* Set the Output Compare Polarity */
  tmpccer |= (OC_Config->OCPolarity << 12U);
 8003bf0:	683b      	ldr	r3, [r7, #0]
 8003bf2:	689b      	ldr	r3, [r3, #8]
 8003bf4:	031b      	lsls	r3, r3, #12
 8003bf6:	693a      	ldr	r2, [r7, #16]
 8003bf8:	4313      	orrs	r3, r2
 8003bfa:	613b      	str	r3, [r7, #16]
   
  /* Write to TIMx CR2 */
  TIMx->CR2 = tmpcr2;
 8003bfc:	687b      	ldr	r3, [r7, #4]
 8003bfe:	68fa      	ldr	r2, [r7, #12]
 8003c00:	605a      	str	r2, [r3, #4]
  
  /* Write to TIMx CCMR2 */  
  TIMx->CCMR2 = tmpccmrx;
 8003c02:	687b      	ldr	r3, [r7, #4]
 8003c04:	697a      	ldr	r2, [r7, #20]
 8003c06:	61da      	str	r2, [r3, #28]
    
  /* Set the Capture Compare Register value */
  TIMx->CCR4 = OC_Config->Pulse;
 8003c08:	683b      	ldr	r3, [r7, #0]
 8003c0a:	685a      	ldr	r2, [r3, #4]
 8003c0c:	687b      	ldr	r3, [r7, #4]
 8003c0e:	641a      	str	r2, [r3, #64]	; 0x40
  
  /* Write to TIMx CCER */
  TIMx->CCER = tmpccer;
 8003c10:	687b      	ldr	r3, [r7, #4]
 8003c12:	693a      	ldr	r2, [r7, #16]
 8003c14:	621a      	str	r2, [r3, #32]
}
 8003c16:	46c0      	nop			; (mov r8, r8)
 8003c18:	46bd      	mov	sp, r7
 8003c1a:	b006      	add	sp, #24
 8003c1c:	bd80      	pop	{r7, pc}
 8003c1e:	46c0      	nop			; (mov r8, r8)
 8003c20:	ffffefff 	.word	0xffffefff
 8003c24:	ffff8fff 	.word	0xffff8fff
 8003c28:	fffffcff 	.word	0xfffffcff
 8003c2c:	ffffdfff 	.word	0xffffdfff

08003c30 <TIM_CCxChannelCmd>:
  * @param  ChannelState: specifies the TIM Channel CCxE bit new state.
  *          This parameter can be: TIM_CCx_ENABLE or TIM_CCx_Disable. 
  * @retval None
  */
static void TIM_CCxChannelCmd(TIM_TypeDef* TIMx, uint32_t Channel, uint32_t ChannelState)
{
 8003c30:	b580      	push	{r7, lr}
 8003c32:	b086      	sub	sp, #24
 8003c34:	af00      	add	r7, sp, #0
 8003c36:	60f8      	str	r0, [r7, #12]
 8003c38:	60b9      	str	r1, [r7, #8]
 8003c3a:	607a      	str	r2, [r7, #4]
  uint32_t tmp = 0U;
 8003c3c:	2300      	movs	r3, #0
 8003c3e:	617b      	str	r3, [r7, #20]

  /* Check the parameters */
  assert_param(IS_TIM_CCX_INSTANCE(TIMx,Channel));

  tmp = TIM_CCER_CC1E << Channel;
 8003c40:	2201      	movs	r2, #1
 8003c42:	68bb      	ldr	r3, [r7, #8]
 8003c44:	409a      	lsls	r2, r3
 8003c46:	0013      	movs	r3, r2
 8003c48:	617b      	str	r3, [r7, #20]

  /* Reset the CCxE Bit */
  TIMx->CCER &= ~tmp;
 8003c4a:	68fb      	ldr	r3, [r7, #12]
 8003c4c:	6a1b      	ldr	r3, [r3, #32]
 8003c4e:	697a      	ldr	r2, [r7, #20]
 8003c50:	43d2      	mvns	r2, r2
 8003c52:	401a      	ands	r2, r3
 8003c54:	68fb      	ldr	r3, [r7, #12]
 8003c56:	621a      	str	r2, [r3, #32]

  /* Set or reset the CCxE Bit */ 
  TIMx->CCER |= (uint32_t)(ChannelState << Channel);
 8003c58:	68fb      	ldr	r3, [r7, #12]
 8003c5a:	6a1a      	ldr	r2, [r3, #32]
 8003c5c:	6879      	ldr	r1, [r7, #4]
 8003c5e:	68bb      	ldr	r3, [r7, #8]
 8003c60:	4099      	lsls	r1, r3
 8003c62:	000b      	movs	r3, r1
 8003c64:	431a      	orrs	r2, r3
 8003c66:	68fb      	ldr	r3, [r7, #12]
 8003c68:	621a      	str	r2, [r3, #32]
}
 8003c6a:	46c0      	nop			; (mov r8, r8)
 8003c6c:	46bd      	mov	sp, r7
 8003c6e:	b006      	add	sp, #24
 8003c70:	bd80      	pop	{r7, pc}

08003c72 <HAL_TSC_Init>:
  *         in the TSC_InitTypeDef structure.           
  * @param  htsc: TSC handle
  * @retval HAL status
  */
HAL_StatusTypeDef HAL_TSC_Init(TSC_HandleTypeDef* htsc)
{
 8003c72:	b590      	push	{r4, r7, lr}
 8003c74:	b083      	sub	sp, #12
 8003c76:	af00      	add	r7, sp, #0
 8003c78:	6078      	str	r0, [r7, #4]
  /* Check TSC handle allocation */
  if (htsc == NULL)
 8003c7a:	687b      	ldr	r3, [r7, #4]
 8003c7c:	2b00      	cmp	r3, #0
 8003c7e:	d101      	bne.n	8003c84 <HAL_TSC_Init+0x12>
  {
    return HAL_ERROR;
 8003c80:	2301      	movs	r3, #1
 8003c82:	e074      	b.n	8003d6e <HAL_TSC_Init+0xfc>
  assert_param(IS_TSC_IODEF(htsc->Init.IODefaultMode));
  assert_param(IS_TSC_SYNC_POL(htsc->Init.SynchroPinPolarity));
  assert_param(IS_TSC_ACQ_MODE(htsc->Init.AcquisitionMode));
  assert_param(IS_TSC_MCE_IT(htsc->Init.MaxCountInterrupt));

  if(htsc->State == HAL_TSC_STATE_RESET)
 8003c84:	687b      	ldr	r3, [r7, #4]
 8003c86:	223c      	movs	r2, #60	; 0x3c
 8003c88:	5c9b      	ldrb	r3, [r3, r2]
 8003c8a:	b2db      	uxtb	r3, r3
 8003c8c:	2b00      	cmp	r3, #0
 8003c8e:	d103      	bne.n	8003c98 <HAL_TSC_Init+0x26>
  {
    /* Allocate lock resource and initialize it */
    htsc->Lock = HAL_UNLOCKED;
 8003c90:	687b      	ldr	r3, [r7, #4]
 8003c92:	223d      	movs	r2, #61	; 0x3d
 8003c94:	2100      	movs	r1, #0
 8003c96:	5499      	strb	r1, [r3, r2]
  }

  /* Initialize the TSC state */
  htsc->State = HAL_TSC_STATE_BUSY;
 8003c98:	687b      	ldr	r3, [r7, #4]
 8003c9a:	223c      	movs	r2, #60	; 0x3c
 8003c9c:	2102      	movs	r1, #2
 8003c9e:	5499      	strb	r1, [r3, r2]

  /* Init the low level hardware : GPIO, CLOCK, CORTEX */
  HAL_TSC_MspInit(htsc);
 8003ca0:	687b      	ldr	r3, [r7, #4]
 8003ca2:	0018      	movs	r0, r3
 8003ca4:	f002 ffa2 	bl	8006bec <HAL_TSC_MspInit>

  /*--------------------------------------------------------------------------*/  
  /* Set TSC parameters */

  /* Enable TSC */
  htsc->Instance->CR = TSC_CR_TSCE;
 8003ca8:	687b      	ldr	r3, [r7, #4]
 8003caa:	681b      	ldr	r3, [r3, #0]
 8003cac:	2201      	movs	r2, #1
 8003cae:	601a      	str	r2, [r3, #0]
  
  /* Set all functions */
  htsc->Instance->CR |= (htsc->Init.CTPulseHighLength |
 8003cb0:	687b      	ldr	r3, [r7, #4]
 8003cb2:	681b      	ldr	r3, [r3, #0]
 8003cb4:	687a      	ldr	r2, [r7, #4]
 8003cb6:	6812      	ldr	r2, [r2, #0]
 8003cb8:	6811      	ldr	r1, [r2, #0]
 8003cba:	687a      	ldr	r2, [r7, #4]
 8003cbc:	6850      	ldr	r0, [r2, #4]
                         htsc->Init.CTPulseLowLength |
 8003cbe:	687a      	ldr	r2, [r7, #4]
 8003cc0:	6892      	ldr	r2, [r2, #8]
  htsc->Instance->CR |= (htsc->Init.CTPulseHighLength |
 8003cc2:	4310      	orrs	r0, r2
                         (uint32_t)(htsc->Init.SpreadSpectrumDeviation << 17U) |
 8003cc4:	687a      	ldr	r2, [r7, #4]
 8003cc6:	6912      	ldr	r2, [r2, #16]
 8003cc8:	0452      	lsls	r2, r2, #17
                         htsc->Init.CTPulseLowLength |
 8003cca:	4310      	orrs	r0, r2
                         htsc->Init.SpreadSpectrumPrescaler |
 8003ccc:	687a      	ldr	r2, [r7, #4]
 8003cce:	6952      	ldr	r2, [r2, #20]
                         (uint32_t)(htsc->Init.SpreadSpectrumDeviation << 17U) |
 8003cd0:	4310      	orrs	r0, r2
                         htsc->Init.PulseGeneratorPrescaler |
 8003cd2:	687a      	ldr	r2, [r7, #4]
 8003cd4:	6992      	ldr	r2, [r2, #24]
                         htsc->Init.SpreadSpectrumPrescaler |
 8003cd6:	4310      	orrs	r0, r2
                         htsc->Init.MaxCountValue |
 8003cd8:	687a      	ldr	r2, [r7, #4]
 8003cda:	69d2      	ldr	r2, [r2, #28]
                         htsc->Init.PulseGeneratorPrescaler |
 8003cdc:	4310      	orrs	r0, r2
                         htsc->Init.SynchroPinPolarity |
 8003cde:	687a      	ldr	r2, [r7, #4]
 8003ce0:	6a52      	ldr	r2, [r2, #36]	; 0x24
                         htsc->Init.MaxCountValue |
 8003ce2:	4310      	orrs	r0, r2
                         htsc->Init.AcquisitionMode);
 8003ce4:	687a      	ldr	r2, [r7, #4]
 8003ce6:	6a92      	ldr	r2, [r2, #40]	; 0x28
                         htsc->Init.SynchroPinPolarity |
 8003ce8:	4302      	orrs	r2, r0
  htsc->Instance->CR |= (htsc->Init.CTPulseHighLength |
 8003cea:	430a      	orrs	r2, r1
 8003cec:	601a      	str	r2, [r3, #0]

  /* Spread spectrum */
  if (htsc->Init.SpreadSpectrum == ENABLE)
 8003cee:	687b      	ldr	r3, [r7, #4]
 8003cf0:	68db      	ldr	r3, [r3, #12]
 8003cf2:	2b01      	cmp	r3, #1
 8003cf4:	d108      	bne.n	8003d08 <HAL_TSC_Init+0x96>
  {
    htsc->Instance->CR |= TSC_CR_SSE;
 8003cf6:	687b      	ldr	r3, [r7, #4]
 8003cf8:	681b      	ldr	r3, [r3, #0]
 8003cfa:	687a      	ldr	r2, [r7, #4]
 8003cfc:	6812      	ldr	r2, [r2, #0]
 8003cfe:	6812      	ldr	r2, [r2, #0]
 8003d00:	2180      	movs	r1, #128	; 0x80
 8003d02:	0249      	lsls	r1, r1, #9
 8003d04:	430a      	orrs	r2, r1
 8003d06:	601a      	str	r2, [r3, #0]
  }
  
  /* Disable Schmitt trigger hysteresis on all used TSC IOs */
  htsc->Instance->IOHCR = (uint32_t)(~(htsc->Init.ChannelIOs | htsc->Init.ShieldIOs | htsc->Init.SamplingIOs));
 8003d08:	687b      	ldr	r3, [r7, #4]
 8003d0a:	681b      	ldr	r3, [r3, #0]
 8003d0c:	687a      	ldr	r2, [r7, #4]
 8003d0e:	6b11      	ldr	r1, [r2, #48]	; 0x30
 8003d10:	687a      	ldr	r2, [r7, #4]
 8003d12:	6b52      	ldr	r2, [r2, #52]	; 0x34
 8003d14:	4311      	orrs	r1, r2
 8003d16:	687a      	ldr	r2, [r7, #4]
 8003d18:	6b92      	ldr	r2, [r2, #56]	; 0x38
 8003d1a:	430a      	orrs	r2, r1
 8003d1c:	43d2      	mvns	r2, r2
 8003d1e:	611a      	str	r2, [r3, #16]

  /* Set channel and shield IOs */
  htsc->Instance->IOCCR = (htsc->Init.ChannelIOs | htsc->Init.ShieldIOs);
 8003d20:	687b      	ldr	r3, [r7, #4]
 8003d22:	681b      	ldr	r3, [r3, #0]
 8003d24:	687a      	ldr	r2, [r7, #4]
 8003d26:	6b11      	ldr	r1, [r2, #48]	; 0x30
 8003d28:	687a      	ldr	r2, [r7, #4]
 8003d2a:	6b52      	ldr	r2, [r2, #52]	; 0x34
 8003d2c:	430a      	orrs	r2, r1
 8003d2e:	629a      	str	r2, [r3, #40]	; 0x28
  
  /* Set sampling IOs */
  htsc->Instance->IOSCR = htsc->Init.SamplingIOs;
 8003d30:	687b      	ldr	r3, [r7, #4]
 8003d32:	681b      	ldr	r3, [r3, #0]
 8003d34:	687a      	ldr	r2, [r7, #4]
 8003d36:	6b92      	ldr	r2, [r2, #56]	; 0x38
 8003d38:	621a      	str	r2, [r3, #32]
  
  /* Set the groups to be acquired */
  htsc->Instance->IOGCSR = TSC_extract_groups(htsc->Init.ChannelIOs);
 8003d3a:	687b      	ldr	r3, [r7, #4]
 8003d3c:	681c      	ldr	r4, [r3, #0]
 8003d3e:	687b      	ldr	r3, [r7, #4]
 8003d40:	6b1b      	ldr	r3, [r3, #48]	; 0x30
 8003d42:	0018      	movs	r0, r3
 8003d44:	f000 f817 	bl	8003d76 <TSC_extract_groups>
 8003d48:	0003      	movs	r3, r0
 8003d4a:	6323      	str	r3, [r4, #48]	; 0x30
  
  /* Clear interrupts */
  htsc->Instance->IER &= (uint32_t)(~(TSC_IT_EOA | TSC_IT_MCE));
 8003d4c:	687b      	ldr	r3, [r7, #4]
 8003d4e:	681b      	ldr	r3, [r3, #0]
 8003d50:	687a      	ldr	r2, [r7, #4]
 8003d52:	6812      	ldr	r2, [r2, #0]
 8003d54:	6852      	ldr	r2, [r2, #4]
 8003d56:	2103      	movs	r1, #3
 8003d58:	438a      	bics	r2, r1
 8003d5a:	605a      	str	r2, [r3, #4]
  
  /* Clear flags */
  htsc->Instance->ICR = (TSC_FLAG_EOA | TSC_FLAG_MCE);
 8003d5c:	687b      	ldr	r3, [r7, #4]
 8003d5e:	681b      	ldr	r3, [r3, #0]
 8003d60:	2203      	movs	r2, #3
 8003d62:	609a      	str	r2, [r3, #8]

  /*--------------------------------------------------------------------------*/
  
  /* Initialize the TSC state */
  htsc->State = HAL_TSC_STATE_READY;
 8003d64:	687b      	ldr	r3, [r7, #4]
 8003d66:	223c      	movs	r2, #60	; 0x3c
 8003d68:	2101      	movs	r1, #1
 8003d6a:	5499      	strb	r1, [r3, r2]
  
  /* Return function status */
  return HAL_OK;
 8003d6c:	2300      	movs	r3, #0
}
 8003d6e:	0018      	movs	r0, r3
 8003d70:	46bd      	mov	sp, r7
 8003d72:	b003      	add	sp, #12
 8003d74:	bd90      	pop	{r4, r7, pc}

08003d76 <TSC_extract_groups>:
  * @brief  Utility function used to set the acquired groups mask
  * @param  iomask: Channels IOs mask
  * @retval Acquired groups mask
  */
static uint32_t TSC_extract_groups(uint32_t iomask)
{
 8003d76:	b580      	push	{r7, lr}
 8003d78:	b084      	sub	sp, #16
 8003d7a:	af00      	add	r7, sp, #0
 8003d7c:	6078      	str	r0, [r7, #4]
  uint32_t groups = 0U;
 8003d7e:	2300      	movs	r3, #0
 8003d80:	60fb      	str	r3, [r7, #12]
  uint32_t idx;
  
  for (idx = 0U; idx < TSC_NB_OF_GROUPS; idx++)
 8003d82:	2300      	movs	r3, #0
 8003d84:	60bb      	str	r3, [r7, #8]
 8003d86:	e011      	b.n	8003dac <TSC_extract_groups+0x36>
  {
    if ((iomask & ((uint32_t)0x0FU << (idx * 4U))) != RESET)
 8003d88:	68bb      	ldr	r3, [r7, #8]
 8003d8a:	009b      	lsls	r3, r3, #2
 8003d8c:	220f      	movs	r2, #15
 8003d8e:	409a      	lsls	r2, r3
 8003d90:	0013      	movs	r3, r2
 8003d92:	687a      	ldr	r2, [r7, #4]
 8003d94:	4013      	ands	r3, r2
 8003d96:	d006      	beq.n	8003da6 <TSC_extract_groups+0x30>
    {
      groups |= ((uint32_t)1U << idx);
 8003d98:	2201      	movs	r2, #1
 8003d9a:	68bb      	ldr	r3, [r7, #8]
 8003d9c:	409a      	lsls	r2, r3
 8003d9e:	0013      	movs	r3, r2
 8003da0:	68fa      	ldr	r2, [r7, #12]
 8003da2:	4313      	orrs	r3, r2
 8003da4:	60fb      	str	r3, [r7, #12]
  for (idx = 0U; idx < TSC_NB_OF_GROUPS; idx++)
 8003da6:	68bb      	ldr	r3, [r7, #8]
 8003da8:	3301      	adds	r3, #1
 8003daa:	60bb      	str	r3, [r7, #8]
 8003dac:	68bb      	ldr	r3, [r7, #8]
 8003dae:	2b07      	cmp	r3, #7
 8003db0:	d9ea      	bls.n	8003d88 <TSC_extract_groups+0x12>
    }
  }
  
  return groups;
 8003db2:	68fb      	ldr	r3, [r7, #12]
}
 8003db4:	0018      	movs	r0, r3
 8003db6:	46bd      	mov	sp, r7
 8003db8:	b004      	add	sp, #16
 8003dba:	bd80      	pop	{r7, pc}

08003dbc <TSL_Init>:
  * @brief  Initializes the TS interface.
  * @param  bank  Array holding all the banks
  * @retval Status
  */
TSL_Status_enum_T TSL_Init(CONST TSL_Bank_T *bank)
{
 8003dbc:	b580      	push	{r7, lr}
 8003dbe:	b084      	sub	sp, #16
 8003dc0:	af00      	add	r7, sp, #0
 8003dc2:	6078      	str	r0, [r7, #4]
  TSL_Status_enum_T retval;

  // Get banks array
  TSL_Globals.Bank_Array = bank;
 8003dc4:	4b10      	ldr	r3, [pc, #64]	; (8003e08 <TSL_Init+0x4c>)
 8003dc6:	687a      	ldr	r2, [r7, #4]
 8003dc8:	605a      	str	r2, [r3, #4]

  // Initialize the delay that will be used to discharge the capacitors
  TSL_Globals.DelayDischarge = (uint32_t)((TSLPRM_DELAY_DISCHARGE_ALL * (uint32_t)(SystemCoreClock/1000000)) / 72);
 8003dca:	4b10      	ldr	r3, [pc, #64]	; (8003e0c <TSL_Init+0x50>)
 8003dcc:	681b      	ldr	r3, [r3, #0]
 8003dce:	4910      	ldr	r1, [pc, #64]	; (8003e10 <TSL_Init+0x54>)
 8003dd0:	0018      	movs	r0, r3
 8003dd2:	f7fc f999 	bl	8000108 <__udivsi3>
 8003dd6:	0003      	movs	r3, r0
 8003dd8:	001a      	movs	r2, r3
 8003dda:	23fa      	movs	r3, #250	; 0xfa
 8003ddc:	009b      	lsls	r3, r3, #2
 8003dde:	4353      	muls	r3, r2
 8003de0:	2148      	movs	r1, #72	; 0x48
 8003de2:	0018      	movs	r0, r3
 8003de4:	f7fc f990 	bl	8000108 <__udivsi3>
 8003de8:	0003      	movs	r3, r0
 8003dea:	001a      	movs	r2, r3
 8003dec:	4b06      	ldr	r3, [pc, #24]	; (8003e08 <TSL_Init+0x4c>)
 8003dee:	611a      	str	r2, [r3, #16]
  // Note: The timing configuration (Systick) must be done in the user code.

  // Initialization of the acquisition module
#ifdef __TSL_ACQ_TSC_H
  // Note: The TSC peripheral initialization must be done in the user code.
  retval = TSL_STATUS_OK;
 8003df0:	230f      	movs	r3, #15
 8003df2:	18fb      	adds	r3, r7, r3
 8003df4:	2200      	movs	r2, #0
 8003df6:	701a      	strb	r2, [r3, #0]
#else
  retval = TSL_acq_Init();
#endif

  return retval;
 8003df8:	230f      	movs	r3, #15
 8003dfa:	18fb      	adds	r3, r7, r3
 8003dfc:	781b      	ldrb	r3, [r3, #0]
}
 8003dfe:	0018      	movs	r0, r3
 8003e00:	46bd      	mov	sp, r7
 8003e02:	b004      	add	sp, #16
 8003e04:	bd80      	pop	{r7, pc}
 8003e06:	46c0      	nop			; (mov r8, r8)
 8003e08:	2000046c 	.word	0x2000046c
 8003e0c:	20000004 	.word	0x20000004
 8003e10:	000f4240 	.word	0x000f4240

08003e14 <TSL_acq_BankGetResult>:
  * @param[in]  mfilter Pointer to the Measure filter function
  * @param[in]  dfilter Pointer to the Delta filter function
  * @retval Status
  */
TSL_Status_enum_T TSL_acq_BankGetResult(TSL_tIndex_T idx_bk, TSL_pFuncMeasFilter_T mfilter, TSL_pFuncDeltaFilter_T dfilter)
{
 8003e14:	b590      	push	{r4, r7, lr}
 8003e16:	b08b      	sub	sp, #44	; 0x2c
 8003e18:	af00      	add	r7, sp, #0
 8003e1a:	60b9      	str	r1, [r7, #8]
 8003e1c:	607a      	str	r2, [r7, #4]
 8003e1e:	230f      	movs	r3, #15
 8003e20:	18fb      	adds	r3, r7, r3
 8003e22:	1c02      	adds	r2, r0, #0
 8003e24:	701a      	strb	r2, [r3, #0]
  TSL_Status_enum_T retval = TSL_STATUS_OK;
 8003e26:	2327      	movs	r3, #39	; 0x27
 8003e28:	18fb      	adds	r3, r7, r3
 8003e2a:	2200      	movs	r2, #0
 8003e2c:	701a      	strb	r2, [r3, #0]
  TSL_tIndex_T idx_ch;
  TSL_tIndexDest_T idx_dest;
  TSL_tMeas_T old_meas, new_meas;
  TSL_tDelta_T new_delta;
  CONST TSL_Bank_T *bank = &(TSL_Globals.Bank_Array[idx_bk]);
 8003e2e:	4bc8      	ldr	r3, [pc, #800]	; (8004150 <TSL_acq_BankGetResult+0x33c>)
 8003e30:	6859      	ldr	r1, [r3, #4]
 8003e32:	230f      	movs	r3, #15
 8003e34:	18fb      	adds	r3, r7, r3
 8003e36:	781a      	ldrb	r2, [r3, #0]
 8003e38:	0013      	movs	r3, r2
 8003e3a:	005b      	lsls	r3, r3, #1
 8003e3c:	189b      	adds	r3, r3, r2
 8003e3e:	00db      	lsls	r3, r3, #3
 8003e40:	18cb      	adds	r3, r1, r3
 8003e42:	61bb      	str	r3, [r7, #24]
  CONST TSL_ChannelDest_T *pchDest = bank->p_chDest;
 8003e44:	69bb      	ldr	r3, [r7, #24]
 8003e46:	685b      	ldr	r3, [r3, #4]
 8003e48:	623b      	str	r3, [r7, #32]
  CONST TSL_ChannelSrc_T *pchSrc = bank->p_chSrc;
 8003e4a:	69bb      	ldr	r3, [r7, #24]
 8003e4c:	681b      	ldr	r3, [r3, #0]
 8003e4e:	61fb      	str	r3, [r7, #28]

  if (idx_bk >= TSLPRM_TOTAL_BANKS)
 8003e50:	230f      	movs	r3, #15
 8003e52:	18fb      	adds	r3, r7, r3
 8003e54:	781b      	ldrb	r3, [r3, #0]
 8003e56:	2b00      	cmp	r3, #0
 8003e58:	d001      	beq.n	8003e5e <TSL_acq_BankGetResult+0x4a>
  {
    return TSL_STATUS_ERROR;
 8003e5a:	2302      	movs	r3, #2
 8003e5c:	e173      	b.n	8004146 <TSL_acq_BankGetResult+0x332>
  }

  // For all channels in the bank copy the measure + calculate delta and store them.
  for (idx_ch = 0; idx_ch < bank->NbChannels; idx_ch++)
 8003e5e:	2326      	movs	r3, #38	; 0x26
 8003e60:	18fb      	adds	r3, r7, r3
 8003e62:	2200      	movs	r2, #0
 8003e64:	701a      	strb	r2, [r3, #0]
 8003e66:	e162      	b.n	800412e <TSL_acq_BankGetResult+0x31a>
  {

    // Get the Destination Index of the current channel
    idx_dest = pchDest->IdxDest;
 8003e68:	2316      	movs	r3, #22
 8003e6a:	18fb      	adds	r3, r7, r3
 8003e6c:	6a3a      	ldr	r2, [r7, #32]
 8003e6e:	8812      	ldrh	r2, [r2, #0]
 8003e70:	801a      	strh	r2, [r3, #0]

    if (bank->p_chData[idx_dest].Flags.ObjStatus == TSL_OBJ_STATUS_ON)
 8003e72:	69bb      	ldr	r3, [r7, #24]
 8003e74:	6899      	ldr	r1, [r3, #8]
 8003e76:	2316      	movs	r3, #22
 8003e78:	18fb      	adds	r3, r7, r3
 8003e7a:	881a      	ldrh	r2, [r3, #0]
 8003e7c:	0013      	movs	r3, r2
 8003e7e:	005b      	lsls	r3, r3, #1
 8003e80:	189b      	adds	r3, r3, r2
 8003e82:	009b      	lsls	r3, r3, #2
 8003e84:	18cb      	adds	r3, r1, r3
 8003e86:	781b      	ldrb	r3, [r3, #0]
 8003e88:	2218      	movs	r2, #24
 8003e8a:	4013      	ands	r3, r2
 8003e8c:	b2db      	uxtb	r3, r3
 8003e8e:	2b18      	cmp	r3, #24
 8003e90:	d000      	beq.n	8003e94 <TSL_acq_BankGetResult+0x80>
 8003e92:	e13f      	b.n	8004114 <TSL_acq_BankGetResult+0x300>
    {

      // Initialize flag to inform the Object of that a new data is ready
      bank->p_chData[idx_dest].Flags.DataReady = TSL_DATA_READY;
 8003e94:	69bb      	ldr	r3, [r7, #24]
 8003e96:	6899      	ldr	r1, [r3, #8]
 8003e98:	2316      	movs	r3, #22
 8003e9a:	18fb      	adds	r3, r7, r3
 8003e9c:	881a      	ldrh	r2, [r3, #0]
 8003e9e:	0013      	movs	r3, r2
 8003ea0:	005b      	lsls	r3, r3, #1
 8003ea2:	189b      	adds	r3, r3, r2
 8003ea4:	009b      	lsls	r3, r3, #2
 8003ea6:	18cb      	adds	r3, r1, r3
 8003ea8:	781a      	ldrb	r2, [r3, #0]
 8003eaa:	2101      	movs	r1, #1
 8003eac:	430a      	orrs	r2, r1
 8003eae:	701a      	strb	r2, [r3, #0]

      // Get the new measure (the access is different between acquisitions)
      new_meas = TSL_acq_GetMeas(pchSrc->IdxSrc);
 8003eb0:	69fb      	ldr	r3, [r7, #28]
 8003eb2:	781b      	ldrb	r3, [r3, #0]
 8003eb4:	2224      	movs	r2, #36	; 0x24
 8003eb6:	18bc      	adds	r4, r7, r2
 8003eb8:	0018      	movs	r0, r3
 8003eba:	f000 f9ff 	bl	80042bc <TSL_acq_GetMeas>
 8003ebe:	0003      	movs	r3, r0
 8003ec0:	8023      	strh	r3, [r4, #0]

      // Store last measure for the filter below
#if TSLPRM_USE_MEAS > 0
      old_meas = bank->p_chData[idx_dest].Meas;
 8003ec2:	69bb      	ldr	r3, [r7, #24]
 8003ec4:	6899      	ldr	r1, [r3, #8]
 8003ec6:	2316      	movs	r3, #22
 8003ec8:	18fb      	adds	r3, r7, r3
 8003eca:	881a      	ldrh	r2, [r3, #0]
 8003ecc:	0013      	movs	r3, r2
 8003ece:	005b      	lsls	r3, r3, #1
 8003ed0:	189b      	adds	r3, r3, r2
 8003ed2:	009b      	lsls	r3, r3, #2
 8003ed4:	18ca      	adds	r2, r1, r3
 8003ed6:	2314      	movs	r3, #20
 8003ed8:	18fb      	adds	r3, r7, r3
 8003eda:	8952      	ldrh	r2, [r2, #10]
 8003edc:	801a      	strh	r2, [r3, #0]
      old_meas = new_meas;
#endif

      // Store the new measure
#if TSLPRM_USE_MEAS > 0
      bank->p_chData[idx_dest].Meas = new_meas;
 8003ede:	69bb      	ldr	r3, [r7, #24]
 8003ee0:	6899      	ldr	r1, [r3, #8]
 8003ee2:	2316      	movs	r3, #22
 8003ee4:	18fb      	adds	r3, r7, r3
 8003ee6:	881a      	ldrh	r2, [r3, #0]
 8003ee8:	0013      	movs	r3, r2
 8003eea:	005b      	lsls	r3, r3, #1
 8003eec:	189b      	adds	r3, r3, r2
 8003eee:	009b      	lsls	r3, r3, #2
 8003ef0:	18cb      	adds	r3, r1, r3
 8003ef2:	2224      	movs	r2, #36	; 0x24
 8003ef4:	18ba      	adds	r2, r7, r2
 8003ef6:	8812      	ldrh	r2, [r2, #0]
 8003ef8:	815a      	strh	r2, [r3, #10]
#endif

      // Check acquisition value min/max and set acquisition status flag
      if (new_meas < TSL_Params.AcqMin)
 8003efa:	4b96      	ldr	r3, [pc, #600]	; (8004154 <TSL_acq_BankGetResult+0x340>)
 8003efc:	881b      	ldrh	r3, [r3, #0]
 8003efe:	2224      	movs	r2, #36	; 0x24
 8003f00:	18ba      	adds	r2, r7, r2
 8003f02:	8812      	ldrh	r2, [r2, #0]
 8003f04:	429a      	cmp	r2, r3
 8003f06:	d221      	bcs.n	8003f4c <TSL_acq_BankGetResult+0x138>
      {
        bank->p_chData[idx_dest].Flags.AcqStatus = TSL_ACQ_STATUS_ERROR_MIN;
 8003f08:	69bb      	ldr	r3, [r7, #24]
 8003f0a:	6899      	ldr	r1, [r3, #8]
 8003f0c:	2316      	movs	r3, #22
 8003f0e:	18fb      	adds	r3, r7, r3
 8003f10:	881a      	ldrh	r2, [r3, #0]
 8003f12:	0013      	movs	r3, r2
 8003f14:	005b      	lsls	r3, r3, #1
 8003f16:	189b      	adds	r3, r3, r2
 8003f18:	009b      	lsls	r3, r3, #2
 8003f1a:	18cb      	adds	r3, r1, r3
 8003f1c:	781a      	ldrb	r2, [r3, #0]
 8003f1e:	2106      	movs	r1, #6
 8003f20:	438a      	bics	r2, r1
 8003f22:	1c11      	adds	r1, r2, #0
 8003f24:	2204      	movs	r2, #4
 8003f26:	430a      	orrs	r2, r1
 8003f28:	701a      	strb	r2, [r3, #0]
        bank->p_chData[idx_dest].Delta = 0;
 8003f2a:	69bb      	ldr	r3, [r7, #24]
 8003f2c:	6899      	ldr	r1, [r3, #8]
 8003f2e:	2316      	movs	r3, #22
 8003f30:	18fb      	adds	r3, r7, r3
 8003f32:	881a      	ldrh	r2, [r3, #0]
 8003f34:	0013      	movs	r3, r2
 8003f36:	005b      	lsls	r3, r3, #1
 8003f38:	189b      	adds	r3, r3, r2
 8003f3a:	009b      	lsls	r3, r3, #2
 8003f3c:	18cb      	adds	r3, r1, r3
 8003f3e:	2200      	movs	r2, #0
 8003f40:	811a      	strh	r2, [r3, #8]
        retval = TSL_STATUS_ERROR;
 8003f42:	2327      	movs	r3, #39	; 0x27
 8003f44:	18fb      	adds	r3, r7, r3
 8003f46:	2202      	movs	r2, #2
 8003f48:	701a      	strb	r2, [r3, #0]
 8003f4a:	e0e3      	b.n	8004114 <TSL_acq_BankGetResult+0x300>
      }
      else
      {
        if (new_meas > TSL_Params.AcqMax)
 8003f4c:	4b81      	ldr	r3, [pc, #516]	; (8004154 <TSL_acq_BankGetResult+0x340>)
 8003f4e:	885b      	ldrh	r3, [r3, #2]
 8003f50:	2224      	movs	r2, #36	; 0x24
 8003f52:	18ba      	adds	r2, r7, r2
 8003f54:	8812      	ldrh	r2, [r2, #0]
 8003f56:	429a      	cmp	r2, r3
 8003f58:	d91e      	bls.n	8003f98 <TSL_acq_BankGetResult+0x184>
        {
          bank->p_chData[idx_dest].Flags.AcqStatus = TSL_ACQ_STATUS_ERROR_MAX;
 8003f5a:	69bb      	ldr	r3, [r7, #24]
 8003f5c:	6899      	ldr	r1, [r3, #8]
 8003f5e:	2316      	movs	r3, #22
 8003f60:	18fb      	adds	r3, r7, r3
 8003f62:	881a      	ldrh	r2, [r3, #0]
 8003f64:	0013      	movs	r3, r2
 8003f66:	005b      	lsls	r3, r3, #1
 8003f68:	189b      	adds	r3, r3, r2
 8003f6a:	009b      	lsls	r3, r3, #2
 8003f6c:	18cb      	adds	r3, r1, r3
 8003f6e:	781a      	ldrb	r2, [r3, #0]
 8003f70:	2106      	movs	r1, #6
 8003f72:	430a      	orrs	r2, r1
 8003f74:	701a      	strb	r2, [r3, #0]
          bank->p_chData[idx_dest].Delta = 0;
 8003f76:	69bb      	ldr	r3, [r7, #24]
 8003f78:	6899      	ldr	r1, [r3, #8]
 8003f7a:	2316      	movs	r3, #22
 8003f7c:	18fb      	adds	r3, r7, r3
 8003f7e:	881a      	ldrh	r2, [r3, #0]
 8003f80:	0013      	movs	r3, r2
 8003f82:	005b      	lsls	r3, r3, #1
 8003f84:	189b      	adds	r3, r3, r2
 8003f86:	009b      	lsls	r3, r3, #2
 8003f88:	18cb      	adds	r3, r1, r3
 8003f8a:	2200      	movs	r2, #0
 8003f8c:	811a      	strh	r2, [r3, #8]
          retval = TSL_STATUS_ERROR;
 8003f8e:	2327      	movs	r3, #39	; 0x27
 8003f90:	18fb      	adds	r3, r7, r3
 8003f92:	2202      	movs	r2, #2
 8003f94:	701a      	strb	r2, [r3, #0]
 8003f96:	e0bd      	b.n	8004114 <TSL_acq_BankGetResult+0x300>
        }
        else // The measure is OK
        {
          if (TSL_acq_UseFilter(&bank->p_chData[idx_dest]))
 8003f98:	69bb      	ldr	r3, [r7, #24]
 8003f9a:	6899      	ldr	r1, [r3, #8]
 8003f9c:	2316      	movs	r3, #22
 8003f9e:	18fb      	adds	r3, r7, r3
 8003fa0:	881a      	ldrh	r2, [r3, #0]
 8003fa2:	0013      	movs	r3, r2
 8003fa4:	005b      	lsls	r3, r3, #1
 8003fa6:	189b      	adds	r3, r3, r2
 8003fa8:	009b      	lsls	r3, r3, #2
 8003faa:	18cb      	adds	r3, r1, r3
 8003fac:	0018      	movs	r0, r3
 8003fae:	f000 f9ce 	bl	800434e <TSL_acq_UseFilter>
 8003fb2:	1e03      	subs	r3, r0, #0
 8003fb4:	d100      	bne.n	8003fb8 <TSL_acq_BankGetResult+0x1a4>
 8003fb6:	e074      	b.n	80040a2 <TSL_acq_BankGetResult+0x28e>
          {
            // Apply Measure filter if it exists
            if (mfilter)
 8003fb8:	68bb      	ldr	r3, [r7, #8]
 8003fba:	2b00      	cmp	r3, #0
 8003fbc:	d01a      	beq.n	8003ff4 <TSL_acq_BankGetResult+0x1e0>
            {
              new_meas = mfilter(old_meas, new_meas);
 8003fbe:	2324      	movs	r3, #36	; 0x24
 8003fc0:	18fc      	adds	r4, r7, r3
 8003fc2:	2324      	movs	r3, #36	; 0x24
 8003fc4:	18fb      	adds	r3, r7, r3
 8003fc6:	8819      	ldrh	r1, [r3, #0]
 8003fc8:	2314      	movs	r3, #20
 8003fca:	18fb      	adds	r3, r7, r3
 8003fcc:	881a      	ldrh	r2, [r3, #0]
 8003fce:	68bb      	ldr	r3, [r7, #8]
 8003fd0:	0010      	movs	r0, r2
 8003fd2:	4798      	blx	r3
 8003fd4:	0003      	movs	r3, r0
 8003fd6:	8023      	strh	r3, [r4, #0]
              // Store the measure (optional - used for debug purpose)
#if TSLPRM_USE_MEAS > 0
              bank->p_chData[idx_dest].Meas = new_meas;
 8003fd8:	69bb      	ldr	r3, [r7, #24]
 8003fda:	6899      	ldr	r1, [r3, #8]
 8003fdc:	2316      	movs	r3, #22
 8003fde:	18fb      	adds	r3, r7, r3
 8003fe0:	881a      	ldrh	r2, [r3, #0]
 8003fe2:	0013      	movs	r3, r2
 8003fe4:	005b      	lsls	r3, r3, #1
 8003fe6:	189b      	adds	r3, r3, r2
 8003fe8:	009b      	lsls	r3, r3, #2
 8003fea:	18cb      	adds	r3, r1, r3
 8003fec:	2224      	movs	r2, #36	; 0x24
 8003fee:	18ba      	adds	r2, r7, r2
 8003ff0:	8812      	ldrh	r2, [r2, #0]
 8003ff2:	815a      	strh	r2, [r3, #10]
#endif
            }

            // Calculate the new Delta
            new_delta = TSL_acq_ComputeDelta(bank->p_chData[idx_dest].Ref, new_meas);
 8003ff4:	69bb      	ldr	r3, [r7, #24]
 8003ff6:	6899      	ldr	r1, [r3, #8]
 8003ff8:	2316      	movs	r3, #22
 8003ffa:	18fb      	adds	r3, r7, r3
 8003ffc:	881a      	ldrh	r2, [r3, #0]
 8003ffe:	0013      	movs	r3, r2
 8004000:	005b      	lsls	r3, r3, #1
 8004002:	189b      	adds	r3, r3, r2
 8004004:	009b      	lsls	r3, r3, #2
 8004006:	18cb      	adds	r3, r1, r3
 8004008:	889a      	ldrh	r2, [r3, #4]
 800400a:	2312      	movs	r3, #18
 800400c:	18fc      	adds	r4, r7, r3
 800400e:	2324      	movs	r3, #36	; 0x24
 8004010:	18fb      	adds	r3, r7, r3
 8004012:	881b      	ldrh	r3, [r3, #0]
 8004014:	0019      	movs	r1, r3
 8004016:	0010      	movs	r0, r2
 8004018:	f000 f96c 	bl	80042f4 <TSL_acq_ComputeDelta>
 800401c:	0003      	movs	r3, r0
 800401e:	8023      	strh	r3, [r4, #0]

            // Check Noise (TSL_ACQ_STATUS_OK if no Noise or if Noise detection is not supported)
            bank->p_chData[idx_dest].Flags.AcqStatus = TSL_acq_CheckNoise();
 8004020:	69bb      	ldr	r3, [r7, #24]
 8004022:	6899      	ldr	r1, [r3, #8]
 8004024:	2316      	movs	r3, #22
 8004026:	18fb      	adds	r3, r7, r3
 8004028:	881a      	ldrh	r2, [r3, #0]
 800402a:	0013      	movs	r3, r2
 800402c:	005b      	lsls	r3, r3, #1
 800402e:	189b      	adds	r3, r3, r2
 8004030:	009b      	lsls	r3, r3, #2
 8004032:	18cc      	adds	r4, r1, r3
 8004034:	f000 f985 	bl	8004342 <TSL_acq_CheckNoise>
 8004038:	0003      	movs	r3, r0
 800403a:	1c1a      	adds	r2, r3, #0
 800403c:	2303      	movs	r3, #3
 800403e:	4013      	ands	r3, r2
 8004040:	b2db      	uxtb	r3, r3
 8004042:	2203      	movs	r2, #3
 8004044:	4013      	ands	r3, r2
 8004046:	18d9      	adds	r1, r3, r3
 8004048:	7823      	ldrb	r3, [r4, #0]
 800404a:	2206      	movs	r2, #6
 800404c:	4393      	bics	r3, r2
 800404e:	1c1a      	adds	r2, r3, #0
 8004050:	1c0b      	adds	r3, r1, #0
 8004052:	4313      	orrs	r3, r2
 8004054:	7023      	strb	r3, [r4, #0]

            // Apply Delta filter if it exists
            if (dfilter)
 8004056:	687b      	ldr	r3, [r7, #4]
 8004058:	2b00      	cmp	r3, #0
 800405a:	d013      	beq.n	8004084 <TSL_acq_BankGetResult+0x270>
            {
              bank->p_chData[idx_dest].Delta = dfilter(new_delta);
 800405c:	69bb      	ldr	r3, [r7, #24]
 800405e:	6899      	ldr	r1, [r3, #8]
 8004060:	2316      	movs	r3, #22
 8004062:	18fb      	adds	r3, r7, r3
 8004064:	881a      	ldrh	r2, [r3, #0]
 8004066:	0013      	movs	r3, r2
 8004068:	005b      	lsls	r3, r3, #1
 800406a:	189b      	adds	r3, r3, r2
 800406c:	009b      	lsls	r3, r3, #2
 800406e:	18cc      	adds	r4, r1, r3
 8004070:	2312      	movs	r3, #18
 8004072:	18fb      	adds	r3, r7, r3
 8004074:	2200      	movs	r2, #0
 8004076:	5e9a      	ldrsh	r2, [r3, r2]
 8004078:	687b      	ldr	r3, [r7, #4]
 800407a:	0010      	movs	r0, r2
 800407c:	4798      	blx	r3
 800407e:	0003      	movs	r3, r0
 8004080:	8123      	strh	r3, [r4, #8]
 8004082:	e047      	b.n	8004114 <TSL_acq_BankGetResult+0x300>
            }
            else
            {
              bank->p_chData[idx_dest].Delta = new_delta;
 8004084:	69bb      	ldr	r3, [r7, #24]
 8004086:	6899      	ldr	r1, [r3, #8]
 8004088:	2316      	movs	r3, #22
 800408a:	18fb      	adds	r3, r7, r3
 800408c:	881a      	ldrh	r2, [r3, #0]
 800408e:	0013      	movs	r3, r2
 8004090:	005b      	lsls	r3, r3, #1
 8004092:	189b      	adds	r3, r3, r2
 8004094:	009b      	lsls	r3, r3, #2
 8004096:	18cb      	adds	r3, r1, r3
 8004098:	2212      	movs	r2, #18
 800409a:	18ba      	adds	r2, r7, r2
 800409c:	8812      	ldrh	r2, [r2, #0]
 800409e:	811a      	strh	r2, [r3, #8]
 80040a0:	e038      	b.n	8004114 <TSL_acq_BankGetResult+0x300>
            }
          }
          else
          {
            // Calculate the new Delta
            bank->p_chData[idx_dest].Delta = TSL_acq_ComputeDelta(bank->p_chData[idx_dest].Ref, new_meas);
 80040a2:	69bb      	ldr	r3, [r7, #24]
 80040a4:	6899      	ldr	r1, [r3, #8]
 80040a6:	2316      	movs	r3, #22
 80040a8:	18fb      	adds	r3, r7, r3
 80040aa:	881a      	ldrh	r2, [r3, #0]
 80040ac:	0013      	movs	r3, r2
 80040ae:	005b      	lsls	r3, r3, #1
 80040b0:	189b      	adds	r3, r3, r2
 80040b2:	009b      	lsls	r3, r3, #2
 80040b4:	18cc      	adds	r4, r1, r3
 80040b6:	69bb      	ldr	r3, [r7, #24]
 80040b8:	6899      	ldr	r1, [r3, #8]
 80040ba:	2316      	movs	r3, #22
 80040bc:	18fb      	adds	r3, r7, r3
 80040be:	881a      	ldrh	r2, [r3, #0]
 80040c0:	0013      	movs	r3, r2
 80040c2:	005b      	lsls	r3, r3, #1
 80040c4:	189b      	adds	r3, r3, r2
 80040c6:	009b      	lsls	r3, r3, #2
 80040c8:	18cb      	adds	r3, r1, r3
 80040ca:	889a      	ldrh	r2, [r3, #4]
 80040cc:	2324      	movs	r3, #36	; 0x24
 80040ce:	18fb      	adds	r3, r7, r3
 80040d0:	881b      	ldrh	r3, [r3, #0]
 80040d2:	0019      	movs	r1, r3
 80040d4:	0010      	movs	r0, r2
 80040d6:	f000 f90d 	bl	80042f4 <TSL_acq_ComputeDelta>
 80040da:	0003      	movs	r3, r0
 80040dc:	8123      	strh	r3, [r4, #8]

            // Check Noise (TSL_ACQ_STATUS_OK if no Noise or if Noise detection is not supported)
            bank->p_chData[idx_dest].Flags.AcqStatus = TSL_acq_CheckNoise();
 80040de:	69bb      	ldr	r3, [r7, #24]
 80040e0:	6899      	ldr	r1, [r3, #8]
 80040e2:	2316      	movs	r3, #22
 80040e4:	18fb      	adds	r3, r7, r3
 80040e6:	881a      	ldrh	r2, [r3, #0]
 80040e8:	0013      	movs	r3, r2
 80040ea:	005b      	lsls	r3, r3, #1
 80040ec:	189b      	adds	r3, r3, r2
 80040ee:	009b      	lsls	r3, r3, #2
 80040f0:	18cc      	adds	r4, r1, r3
 80040f2:	f000 f926 	bl	8004342 <TSL_acq_CheckNoise>
 80040f6:	0003      	movs	r3, r0
 80040f8:	1c1a      	adds	r2, r3, #0
 80040fa:	2303      	movs	r3, #3
 80040fc:	4013      	ands	r3, r2
 80040fe:	b2db      	uxtb	r3, r3
 8004100:	2203      	movs	r2, #3
 8004102:	4013      	ands	r3, r2
 8004104:	18d9      	adds	r1, r3, r3
 8004106:	7823      	ldrb	r3, [r4, #0]
 8004108:	2206      	movs	r2, #6
 800410a:	4393      	bics	r3, r2
 800410c:	1c1a      	adds	r2, r3, #0
 800410e:	1c0b      	adds	r3, r1, #0
 8004110:	4313      	orrs	r3, r2
 8004112:	7023      	strb	r3, [r4, #0]
        }
      }
    }

    // Next channel
    pchDest++;
 8004114:	6a3b      	ldr	r3, [r7, #32]
 8004116:	3302      	adds	r3, #2
 8004118:	623b      	str	r3, [r7, #32]
    pchSrc++;
 800411a:	69fb      	ldr	r3, [r7, #28]
 800411c:	330c      	adds	r3, #12
 800411e:	61fb      	str	r3, [r7, #28]
  for (idx_ch = 0; idx_ch < bank->NbChannels; idx_ch++)
 8004120:	2326      	movs	r3, #38	; 0x26
 8004122:	18fb      	adds	r3, r7, r3
 8004124:	781a      	ldrb	r2, [r3, #0]
 8004126:	2326      	movs	r3, #38	; 0x26
 8004128:	18fb      	adds	r3, r7, r3
 800412a:	3201      	adds	r2, #1
 800412c:	701a      	strb	r2, [r3, #0]
 800412e:	2326      	movs	r3, #38	; 0x26
 8004130:	18fb      	adds	r3, r7, r3
 8004132:	781b      	ldrb	r3, [r3, #0]
 8004134:	b29a      	uxth	r2, r3
 8004136:	69bb      	ldr	r3, [r7, #24]
 8004138:	899b      	ldrh	r3, [r3, #12]
 800413a:	429a      	cmp	r2, r3
 800413c:	d200      	bcs.n	8004140 <TSL_acq_BankGetResult+0x32c>
 800413e:	e693      	b.n	8003e68 <TSL_acq_BankGetResult+0x54>

  }

  return retval;
 8004140:	2327      	movs	r3, #39	; 0x27
 8004142:	18fb      	adds	r3, r7, r3
 8004144:	781b      	ldrb	r3, [r3, #0]
}
 8004146:	0018      	movs	r0, r3
 8004148:	46bd      	mov	sp, r7
 800414a:	b00b      	add	sp, #44	; 0x2c
 800414c:	bd90      	pop	{r4, r7, pc}
 800414e:	46c0      	nop			; (mov r8, r8)
 8004150:	2000046c 	.word	0x2000046c
 8004154:	20000018 	.word	0x20000018

08004158 <TSL_acq_BankConfig>:
  * @brief Configures a Bank.
  * @param[in] idx_bk  Index of the Bank to configure
  * @retval Status
  */
TSL_Status_enum_T TSL_acq_BankConfig(TSL_tIndex_T idx_bk)
{
 8004158:	b580      	push	{r7, lr}
 800415a:	b08a      	sub	sp, #40	; 0x28
 800415c:	af00      	add	r7, sp, #0
 800415e:	0002      	movs	r2, r0
 8004160:	1dfb      	adds	r3, r7, #7
 8004162:	701a      	strb	r2, [r3, #0]
  CONST TSL_Bank_T *bank;
  CONST TSL_ChannelSrc_T *pchSrc;
  CONST TSL_ChannelDest_T *pchDest;

  // Check bank index
  if (idx_bk >= TSLPRM_TOTAL_BANKS)
 8004164:	1dfb      	adds	r3, r7, #7
 8004166:	781b      	ldrb	r3, [r3, #0]
 8004168:	2b00      	cmp	r3, #0
 800416a:	d001      	beq.n	8004170 <TSL_acq_BankConfig+0x18>
  {
    return TSL_STATUS_ERROR;
 800416c:	2302      	movs	r3, #2
 800416e:	e057      	b.n	8004220 <TSL_acq_BankConfig+0xc8>
  }

  // Initialize bank pointers
  bank = &(TSL_Globals.Bank_Array[idx_bk]);
 8004170:	4b2d      	ldr	r3, [pc, #180]	; (8004228 <TSL_acq_BankConfig+0xd0>)
 8004172:	6859      	ldr	r1, [r3, #4]
 8004174:	1dfb      	adds	r3, r7, #7
 8004176:	781a      	ldrb	r2, [r3, #0]
 8004178:	0013      	movs	r3, r2
 800417a:	005b      	lsls	r3, r3, #1
 800417c:	189b      	adds	r3, r3, r2
 800417e:	00db      	lsls	r3, r3, #3
 8004180:	18cb      	adds	r3, r1, r3
 8004182:	61bb      	str	r3, [r7, #24]
  pchSrc = bank->p_chSrc;
 8004184:	69bb      	ldr	r3, [r7, #24]
 8004186:	681b      	ldr	r3, [r3, #0]
 8004188:	623b      	str	r3, [r7, #32]
  pchDest = bank->p_chDest;
 800418a:	69bb      	ldr	r3, [r7, #24]
 800418c:	685b      	ldr	r3, [r3, #4]
 800418e:	61fb      	str	r3, [r7, #28]
  
  // Mark the current bank processed
  TSL_Globals.This_Bank = idx_bk;
 8004190:	4b25      	ldr	r3, [pc, #148]	; (8004228 <TSL_acq_BankConfig+0xd0>)
 8004192:	1dfa      	adds	r2, r7, #7
 8004194:	7812      	ldrb	r2, [r2, #0]
 8004196:	721a      	strb	r2, [r3, #8]

  //++++++++++++++++++++++++++++++++++++++++++++++++++++++++++++++++++++++++++++
  // Enable the Gx_IOy used as channels (channels + shield)
  TSC->IOCCR = bank->msk_IOCCR_channels;
 8004198:	4a24      	ldr	r2, [pc, #144]	; (800422c <TSL_acq_BankConfig+0xd4>)
 800419a:	69bb      	ldr	r3, [r7, #24]
 800419c:	691b      	ldr	r3, [r3, #16]
 800419e:	6293      	str	r3, [r2, #40]	; 0x28
  // Enable acquisition on selected Groups
  TSC->IOGCSR = bank->msk_IOGCSR_groups;
 80041a0:	4a22      	ldr	r2, [pc, #136]	; (800422c <TSL_acq_BankConfig+0xd4>)
 80041a2:	69bb      	ldr	r3, [r7, #24]
 80041a4:	695b      	ldr	r3, [r3, #20]
 80041a6:	6313      	str	r3, [r2, #48]	; 0x30
  //++++++++++++++++++++++++++++++++++++++++++++++++++++++++++++++++++++++++++++

  // For all channels of the bank check if they are OFF or BURST_ONLY
  // and set acquisition status flag
  for (idx_ch = 0; idx_ch < bank->NbChannels; idx_ch++)
 80041a8:	2300      	movs	r3, #0
 80041aa:	627b      	str	r3, [r7, #36]	; 0x24
 80041ac:	e031      	b.n	8004212 <TSL_acq_BankConfig+0xba>
  {

    // Check Object status flag
    objs = bank->p_chData[pchDest->IdxDest].Flags.ObjStatus;
 80041ae:	69bb      	ldr	r3, [r7, #24]
 80041b0:	689a      	ldr	r2, [r3, #8]
 80041b2:	69fb      	ldr	r3, [r7, #28]
 80041b4:	881b      	ldrh	r3, [r3, #0]
 80041b6:	0019      	movs	r1, r3
 80041b8:	000b      	movs	r3, r1
 80041ba:	005b      	lsls	r3, r3, #1
 80041bc:	185b      	adds	r3, r3, r1
 80041be:	009b      	lsls	r3, r3, #2
 80041c0:	18d3      	adds	r3, r2, r3
 80041c2:	781b      	ldrb	r3, [r3, #0]
 80041c4:	06db      	lsls	r3, r3, #27
 80041c6:	0f9b      	lsrs	r3, r3, #30
 80041c8:	b2db      	uxtb	r3, r3
 80041ca:	617b      	str	r3, [r7, #20]

    if (objs != TSL_OBJ_STATUS_ON)
 80041cc:	697b      	ldr	r3, [r7, #20]
 80041ce:	2b03      	cmp	r3, #3
 80041d0:	d016      	beq.n	8004200 <TSL_acq_BankConfig+0xa8>
    {
      //++++++++++++++++++++++++++++++++++++++++++++++++++++++++++++++++++++++++
      // Get the Channel Group mask
      gx = pchSrc->msk_IOGCSR_group;
 80041d2:	6a3b      	ldr	r3, [r7, #32]
 80041d4:	689b      	ldr	r3, [r3, #8]
 80041d6:	613b      	str	r3, [r7, #16]
      // Stop acquisition of the Group
      TSC->IOGCSR &= (uint32_t)~gx;
 80041d8:	4b14      	ldr	r3, [pc, #80]	; (800422c <TSL_acq_BankConfig+0xd4>)
 80041da:	4a14      	ldr	r2, [pc, #80]	; (800422c <TSL_acq_BankConfig+0xd4>)
 80041dc:	6b12      	ldr	r2, [r2, #48]	; 0x30
 80041de:	6939      	ldr	r1, [r7, #16]
 80041e0:	43c9      	mvns	r1, r1
 80041e2:	400a      	ands	r2, r1
 80041e4:	631a      	str	r2, [r3, #48]	; 0x30
      //++++++++++++++++++++++++++++++++++++++++++++++++++++++++++++++++++++++++

      if (objs == TSL_OBJ_STATUS_OFF)
 80041e6:	697b      	ldr	r3, [r7, #20]
 80041e8:	2b00      	cmp	r3, #0
 80041ea:	d109      	bne.n	8004200 <TSL_acq_BankConfig+0xa8>
      {
        //++++++++++++++++++++++++++++++++++++++++++++++++++++++++++++++++++++++
        // Get the Channel IO mask
        ioy = pchSrc->msk_IOCCR_channel;
 80041ec:	6a3b      	ldr	r3, [r7, #32]
 80041ee:	685b      	ldr	r3, [r3, #4]
 80041f0:	60fb      	str	r3, [r7, #12]
        // Stop Burst of the Channel
        TSC->IOCCR &= (uint32_t)~ioy;
 80041f2:	4b0e      	ldr	r3, [pc, #56]	; (800422c <TSL_acq_BankConfig+0xd4>)
 80041f4:	4a0d      	ldr	r2, [pc, #52]	; (800422c <TSL_acq_BankConfig+0xd4>)
 80041f6:	6a92      	ldr	r2, [r2, #40]	; 0x28
 80041f8:	68f9      	ldr	r1, [r7, #12]
 80041fa:	43c9      	mvns	r1, r1
 80041fc:	400a      	ands	r2, r1
 80041fe:	629a      	str	r2, [r3, #40]	; 0x28
        //++++++++++++++++++++++++++++++++++++++++++++++++++++++++++++++++++++++
      }
    }

    // Next channel
    pchSrc++;
 8004200:	6a3b      	ldr	r3, [r7, #32]
 8004202:	330c      	adds	r3, #12
 8004204:	623b      	str	r3, [r7, #32]
    pchDest++;
 8004206:	69fb      	ldr	r3, [r7, #28]
 8004208:	3302      	adds	r3, #2
 800420a:	61fb      	str	r3, [r7, #28]
  for (idx_ch = 0; idx_ch < bank->NbChannels; idx_ch++)
 800420c:	6a7b      	ldr	r3, [r7, #36]	; 0x24
 800420e:	3301      	adds	r3, #1
 8004210:	627b      	str	r3, [r7, #36]	; 0x24
 8004212:	69bb      	ldr	r3, [r7, #24]
 8004214:	899b      	ldrh	r3, [r3, #12]
 8004216:	001a      	movs	r2, r3
 8004218:	6a7b      	ldr	r3, [r7, #36]	; 0x24
 800421a:	429a      	cmp	r2, r3
 800421c:	d8c7      	bhi.n	80041ae <TSL_acq_BankConfig+0x56>
  }

  return TSL_STATUS_OK;
 800421e:	2300      	movs	r3, #0
}
 8004220:	0018      	movs	r0, r3
 8004222:	46bd      	mov	sp, r7
 8004224:	b00a      	add	sp, #40	; 0x28
 8004226:	bd80      	pop	{r7, pc}
 8004228:	2000046c 	.word	0x2000046c
 800422c:	40024000 	.word	0x40024000

08004230 <TSL_acq_BankStartAcq>:
  * @brief Start acquisition on a previously configured bank
  * @param None
  * @retval None
  */
void TSL_acq_BankStartAcq(void)
{
 8004230:	b580      	push	{r7, lr}
 8004232:	af00      	add	r7, sp, #0
  // Clear both EOAIC and MCEIC flags
  TSC->ICR |= 0x03;
 8004234:	4b0c      	ldr	r3, [pc, #48]	; (8004268 <TSL_acq_BankStartAcq+0x38>)
 8004236:	4a0c      	ldr	r2, [pc, #48]	; (8004268 <TSL_acq_BankStartAcq+0x38>)
 8004238:	6892      	ldr	r2, [r2, #8]
 800423a:	2103      	movs	r1, #3
 800423c:	430a      	orrs	r2, r1
 800423e:	609a      	str	r2, [r3, #8]

  // Wait capacitors discharge
  SoftDelay(TSL_Globals.DelayDischarge);
 8004240:	4b0a      	ldr	r3, [pc, #40]	; (800426c <TSL_acq_BankStartAcq+0x3c>)
 8004242:	691b      	ldr	r3, [r3, #16]
 8004244:	0018      	movs	r0, r3
 8004246:	f000 f8a0 	bl	800438a <SoftDelay>

#if TSLPRM_IODEF > 0 // Default = Input Floating
  // Set IO default in Input Floating
  TSC->CR |= (1 << 4);
 800424a:	4b07      	ldr	r3, [pc, #28]	; (8004268 <TSL_acq_BankStartAcq+0x38>)
 800424c:	4a06      	ldr	r2, [pc, #24]	; (8004268 <TSL_acq_BankStartAcq+0x38>)
 800424e:	6812      	ldr	r2, [r2, #0]
 8004250:	2110      	movs	r1, #16
 8004252:	430a      	orrs	r2, r1
 8004254:	601a      	str	r2, [r3, #0]
#endif

  // Start acquisition
  TSC->CR |= 0x02;
 8004256:	4b04      	ldr	r3, [pc, #16]	; (8004268 <TSL_acq_BankStartAcq+0x38>)
 8004258:	4a03      	ldr	r2, [pc, #12]	; (8004268 <TSL_acq_BankStartAcq+0x38>)
 800425a:	6812      	ldr	r2, [r2, #0]
 800425c:	2102      	movs	r1, #2
 800425e:	430a      	orrs	r2, r1
 8004260:	601a      	str	r2, [r3, #0]
}
 8004262:	46c0      	nop			; (mov r8, r8)
 8004264:	46bd      	mov	sp, r7
 8004266:	bd80      	pop	{r7, pc}
 8004268:	40024000 	.word	0x40024000
 800426c:	2000046c 	.word	0x2000046c

08004270 <TSL_acq_BankWaitEOC>:
  * @brief Wait end of acquisition
  * @param None
  * @retval Status
  */
TSL_Status_enum_T TSL_acq_BankWaitEOC(void)
{
 8004270:	b580      	push	{r7, lr}
 8004272:	b082      	sub	sp, #8
 8004274:	af00      	add	r7, sp, #0
  TSL_Status_enum_T retval = TSL_STATUS_BUSY;
 8004276:	1dfb      	adds	r3, r7, #7
 8004278:	2201      	movs	r2, #1
 800427a:	701a      	strb	r2, [r3, #0]

  // Check EOAF flag
  if (TSC->ISR & 0x01)
 800427c:	4b0e      	ldr	r3, [pc, #56]	; (80042b8 <TSL_acq_BankWaitEOC+0x48>)
 800427e:	68db      	ldr	r3, [r3, #12]
 8004280:	2201      	movs	r2, #1
 8004282:	4013      	ands	r3, r2
 8004284:	d011      	beq.n	80042aa <TSL_acq_BankWaitEOC+0x3a>
  {

#if TSLPRM_IODEF > 0 // Default = Input Floating
    // Set IO default in Output PP Low to discharge all capacitors
    TSC->CR &= (uint32_t)(~(1 << 4));
 8004286:	4b0c      	ldr	r3, [pc, #48]	; (80042b8 <TSL_acq_BankWaitEOC+0x48>)
 8004288:	4a0b      	ldr	r2, [pc, #44]	; (80042b8 <TSL_acq_BankWaitEOC+0x48>)
 800428a:	6812      	ldr	r2, [r2, #0]
 800428c:	2110      	movs	r1, #16
 800428e:	438a      	bics	r2, r1
 8004290:	601a      	str	r2, [r3, #0]
#endif

    // Check MCEF flag
    if (TSC->ISR & 0x02)
 8004292:	4b09      	ldr	r3, [pc, #36]	; (80042b8 <TSL_acq_BankWaitEOC+0x48>)
 8004294:	68db      	ldr	r3, [r3, #12]
 8004296:	2202      	movs	r2, #2
 8004298:	4013      	ands	r3, r2
 800429a:	d003      	beq.n	80042a4 <TSL_acq_BankWaitEOC+0x34>
    {
      retval = TSL_STATUS_ERROR;
 800429c:	1dfb      	adds	r3, r7, #7
 800429e:	2202      	movs	r2, #2
 80042a0:	701a      	strb	r2, [r3, #0]
 80042a2:	e002      	b.n	80042aa <TSL_acq_BankWaitEOC+0x3a>
    }
    else
    {
      retval = TSL_STATUS_OK;
 80042a4:	1dfb      	adds	r3, r7, #7
 80042a6:	2200      	movs	r2, #0
 80042a8:	701a      	strb	r2, [r3, #0]
    }
  }

  return retval;
 80042aa:	1dfb      	adds	r3, r7, #7
 80042ac:	781b      	ldrb	r3, [r3, #0]
}
 80042ae:	0018      	movs	r0, r3
 80042b0:	46bd      	mov	sp, r7
 80042b2:	b002      	add	sp, #8
 80042b4:	bd80      	pop	{r7, pc}
 80042b6:	46c0      	nop			; (mov r8, r8)
 80042b8:	40024000 	.word	0x40024000

080042bc <TSL_acq_GetMeas>:
  * @brief Return the current measure
  * @param[in] index Index of the measure source
  * @retval Measure
  */
TSL_tMeas_T TSL_acq_GetMeas(TSL_tIndex_T index)
{
 80042bc:	b580      	push	{r7, lr}
 80042be:	b082      	sub	sp, #8
 80042c0:	af00      	add	r7, sp, #0
 80042c2:	0002      	movs	r2, r0
 80042c4:	1dfb      	adds	r3, r7, #7
 80042c6:	701a      	strb	r2, [r3, #0]
  if (index < TSC_NB_GROUPS_SUPPORTED)
 80042c8:	1dfb      	adds	r3, r7, #7
 80042ca:	781b      	ldrb	r3, [r3, #0]
 80042cc:	2b07      	cmp	r3, #7
 80042ce:	d809      	bhi.n	80042e4 <TSL_acq_GetMeas+0x28>
  {
    return((TSL_tMeas_T)(TSC->IOGXCR[index]));
 80042d0:	4a07      	ldr	r2, [pc, #28]	; (80042f0 <TSL_acq_GetMeas+0x34>)
 80042d2:	1dfb      	adds	r3, r7, #7
 80042d4:	781b      	ldrb	r3, [r3, #0]
 80042d6:	330c      	adds	r3, #12
 80042d8:	009b      	lsls	r3, r3, #2
 80042da:	18d3      	adds	r3, r2, r3
 80042dc:	3304      	adds	r3, #4
 80042de:	681b      	ldr	r3, [r3, #0]
 80042e0:	b29b      	uxth	r3, r3
 80042e2:	e000      	b.n	80042e6 <TSL_acq_GetMeas+0x2a>
  }
  else
  {
    return((TSL_tMeas_T)0);
 80042e4:	2300      	movs	r3, #0
  }
}
 80042e6:	0018      	movs	r0, r3
 80042e8:	46bd      	mov	sp, r7
 80042ea:	b002      	add	sp, #8
 80042ec:	bd80      	pop	{r7, pc}
 80042ee:	46c0      	nop			; (mov r8, r8)
 80042f0:	40024000 	.word	0x40024000

080042f4 <TSL_acq_ComputeDelta>:
  * @param[in] ref Reference value
  * @param[in] meas Last Measurement value
  * @retval Delta value
  */
TSL_tDelta_T TSL_acq_ComputeDelta(TSL_tRef_T ref, TSL_tMeas_T meas)
{
 80042f4:	b580      	push	{r7, lr}
 80042f6:	b082      	sub	sp, #8
 80042f8:	af00      	add	r7, sp, #0
 80042fa:	0002      	movs	r2, r0
 80042fc:	1dbb      	adds	r3, r7, #6
 80042fe:	801a      	strh	r2, [r3, #0]
 8004300:	1d3b      	adds	r3, r7, #4
 8004302:	1c0a      	adds	r2, r1, #0
 8004304:	801a      	strh	r2, [r3, #0]
  return((TSL_tDelta_T)(ref - meas));
 8004306:	1dba      	adds	r2, r7, #6
 8004308:	1d3b      	adds	r3, r7, #4
 800430a:	8812      	ldrh	r2, [r2, #0]
 800430c:	881b      	ldrh	r3, [r3, #0]
 800430e:	1ad3      	subs	r3, r2, r3
 8004310:	b29b      	uxth	r3, r3
 8004312:	b21b      	sxth	r3, r3
}
 8004314:	0018      	movs	r0, r3
 8004316:	46bd      	mov	sp, r7
 8004318:	b002      	add	sp, #8
 800431a:	bd80      	pop	{r7, pc}

0800431c <TSL_acq_ComputeMeas>:
  * @param[in] ref Reference value
  * @param[in] delta Delta value
  * @retval Measurement value
  */
TSL_tMeas_T TSL_acq_ComputeMeas(TSL_tRef_T ref, TSL_tDelta_T delta)
{
 800431c:	b580      	push	{r7, lr}
 800431e:	b082      	sub	sp, #8
 8004320:	af00      	add	r7, sp, #0
 8004322:	0002      	movs	r2, r0
 8004324:	1dbb      	adds	r3, r7, #6
 8004326:	801a      	strh	r2, [r3, #0]
 8004328:	1d3b      	adds	r3, r7, #4
 800432a:	1c0a      	adds	r2, r1, #0
 800432c:	801a      	strh	r2, [r3, #0]
  return((TSL_tMeas_T)(ref - delta));
 800432e:	1d3b      	adds	r3, r7, #4
 8004330:	881b      	ldrh	r3, [r3, #0]
 8004332:	1dba      	adds	r2, r7, #6
 8004334:	8812      	ldrh	r2, [r2, #0]
 8004336:	1ad3      	subs	r3, r2, r3
 8004338:	b29b      	uxth	r3, r3
}
 800433a:	0018      	movs	r0, r3
 800433c:	46bd      	mov	sp, r7
 800433e:	b002      	add	sp, #8
 8004340:	bd80      	pop	{r7, pc}

08004342 <TSL_acq_CheckNoise>:
  * @brief  Check noise (not used)
  * @param  None
  * @retval Status
  */
TSL_AcqStatus_enum_T TSL_acq_CheckNoise(void)
{
 8004342:	b580      	push	{r7, lr}
 8004344:	af00      	add	r7, sp, #0
  return TSL_ACQ_STATUS_OK;
 8004346:	2300      	movs	r3, #0
}
 8004348:	0018      	movs	r0, r3
 800434a:	46bd      	mov	sp, r7
 800434c:	bd80      	pop	{r7, pc}

0800434e <TSL_acq_UseFilter>:
  * @brief Check if a filter must be used on the current channel (not used)
  * @param[in] pCh Pointer on the channel data information
  * @retval Result TRUE if a filter can be applied
  */
TSL_Bool_enum_T TSL_acq_UseFilter(TSL_ChannelData_T *pCh)
{
 800434e:	b580      	push	{r7, lr}
 8004350:	b082      	sub	sp, #8
 8004352:	af00      	add	r7, sp, #0
 8004354:	6078      	str	r0, [r7, #4]
  return TSL_TRUE;
 8004356:	2301      	movs	r3, #1
}
 8004358:	0018      	movs	r0, r3
 800435a:	46bd      	mov	sp, r7
 800435c:	b002      	add	sp, #8
 800435e:	bd80      	pop	{r7, pc}

08004360 <TSL_acq_TestReferenceOutOfRange>:
  * @brief Test if the Reference is incorrect (not used)
  * @param[in] pCh Pointer on the channel data information
  * @retval Result TRUE if the Reference is out of range
  */
TSL_Bool_enum_T TSL_acq_TestReferenceOutOfRange(TSL_ChannelData_T *pCh)
{
 8004360:	b580      	push	{r7, lr}
 8004362:	b082      	sub	sp, #8
 8004364:	af00      	add	r7, sp, #0
 8004366:	6078      	str	r0, [r7, #4]
  return TSL_FALSE;
 8004368:	2300      	movs	r3, #0
}
 800436a:	0018      	movs	r0, r3
 800436c:	46bd      	mov	sp, r7
 800436e:	b002      	add	sp, #8
 8004370:	bd80      	pop	{r7, pc}

08004372 <TSL_acq_TestFirstReferenceIsValid>:
  * @param[in] pCh Pointer on the channel data information
  * @param[in] new_meas Measure of the last acquisition on this channel
  * @retval Result TRUE if the Reference is valid
  */
TSL_Bool_enum_T TSL_acq_TestFirstReferenceIsValid(TSL_ChannelData_T *pCh, TSL_tMeas_T new_meas)
{
 8004372:	b580      	push	{r7, lr}
 8004374:	b082      	sub	sp, #8
 8004376:	af00      	add	r7, sp, #0
 8004378:	6078      	str	r0, [r7, #4]
 800437a:	000a      	movs	r2, r1
 800437c:	1cbb      	adds	r3, r7, #2
 800437e:	801a      	strh	r2, [r3, #0]
  return TSL_TRUE;
 8004380:	2301      	movs	r3, #1
}
 8004382:	0018      	movs	r0, r3
 8004384:	46bd      	mov	sp, r7
 8004386:	b002      	add	sp, #8
 8004388:	bd80      	pop	{r7, pc}

0800438a <SoftDelay>:
  * val =  500: ~ 63s
  * val = 1000: ~126s
  * val = 2000: ~251s
  */
void SoftDelay(uint32_t val)
{
 800438a:	b580      	push	{r7, lr}
 800438c:	b084      	sub	sp, #16
 800438e:	af00      	add	r7, sp, #0
 8004390:	6078      	str	r0, [r7, #4]
  uint32_t idx;
  for (idx = val; idx > 0; idx--)
 8004392:	687b      	ldr	r3, [r7, #4]
 8004394:	60fb      	str	r3, [r7, #12]
 8004396:	e002      	b.n	800439e <SoftDelay+0x14>
 8004398:	68fb      	ldr	r3, [r7, #12]
 800439a:	3b01      	subs	r3, #1
 800439c:	60fb      	str	r3, [r7, #12]
 800439e:	68fb      	ldr	r3, [r7, #12]
 80043a0:	2b00      	cmp	r3, #0
 80043a2:	d1f9      	bne.n	8004398 <SoftDelay+0xe>
  {}
}
 80043a4:	46c0      	nop			; (mov r8, r8)
 80043a6:	46bd      	mov	sp, r7
 80043a8:	b004      	add	sp, #16
 80043aa:	bd80      	pop	{r7, pc}

080043ac <TSL_dxs_FirstObj>:
  * @brief Detection Exclusion System on the first object in detect state
  * @param[in] objgrp  Pointer to the objects group to process
  * @retval None
  */
void TSL_dxs_FirstObj(CONST TSL_ObjectGroup_T *objgrp)
{
 80043ac:	b580      	push	{r7, lr}
 80043ae:	b082      	sub	sp, #8
 80043b0:	af00      	add	r7, sp, #0
 80043b2:	6078      	str	r0, [r7, #4]
#endif // TSLPRM_TOTAL_LNRTS > 0

  }

#endif // TSLPRM_USE_DXS > 0
}
 80043b4:	46c0      	nop			; (mov r8, r8)
 80043b6:	46bd      	mov	sp, r7
 80043b8:	b002      	add	sp, #8
 80043ba:	bd80      	pop	{r7, pc}

080043bc <TSL_ecs_CalcK>:
  * @param[in] k_slow  K coefficient when objects have different delta variation
  * @param[in] k_fast  K coefficient when objects have the same delta variation
  * @retval    K coefficient (slow or fast)
  */
TSL_tKCoeff_T TSL_ecs_CalcK(TSL_ObjectGroup_T *objgrp, TSL_tKCoeff_T k_slow, TSL_tKCoeff_T k_fast)
{
 80043bc:	b580      	push	{r7, lr}
 80043be:	b088      	sub	sp, #32
 80043c0:	af00      	add	r7, sp, #0
 80043c2:	6078      	str	r0, [r7, #4]
 80043c4:	0008      	movs	r0, r1
 80043c6:	0011      	movs	r1, r2
 80043c8:	1cbb      	adds	r3, r7, #2
 80043ca:	1c02      	adds	r2, r0, #0
 80043cc:	801a      	strh	r2, [r3, #0]
 80043ce:	003b      	movs	r3, r7
 80043d0:	1c0a      	adds	r2, r1, #0
 80043d2:	801a      	strh	r2, [r3, #0]
  TSL_tIndex_T idx_obj; // Index of current object
  TSL_tIndex_T idx_ch; // Index of current channel
  TSL_tDelta_T ldelta = 0; // Temporary delta
 80043d4:	230a      	movs	r3, #10
 80043d6:	18fb      	adds	r3, r7, r3
 80043d8:	2200      	movs	r2, #0
 80043da:	801a      	strh	r2, [r3, #0]
  TSL_tDelta_T ECS_Fast_Enable = 1;
 80043dc:	231c      	movs	r3, #28
 80043de:	18fb      	adds	r3, r7, r3
 80043e0:	2201      	movs	r2, #1
 80043e2:	801a      	strh	r2, [r3, #0]
  TSL_tDelta_T ECS_Fast_Direction = 0;
 80043e4:	231a      	movs	r3, #26
 80043e6:	18fb      	adds	r3, r7, r3
 80043e8:	2200      	movs	r2, #0
 80043ea:	801a      	strh	r2, [r3, #0]
  CONST TSL_Object_T *pobj;
  TSL_tKCoeff_T retval = k_slow;
 80043ec:	2312      	movs	r3, #18
 80043ee:	18fb      	adds	r3, r7, r3
 80043f0:	1cba      	adds	r2, r7, #2
 80043f2:	8812      	ldrh	r2, [r2, #0]
 80043f4:	801a      	strh	r2, [r3, #0]
  TSL_tNb_T nb_channels = 0; // Number of channels inside current object
 80043f6:	2310      	movs	r3, #16
 80043f8:	18fb      	adds	r3, r7, r3
 80043fa:	2200      	movs	r2, #0
 80043fc:	801a      	strh	r2, [r3, #0]
  TSL_ChannelData_T *p_Ch = 0;
 80043fe:	2300      	movs	r3, #0
 8004400:	60fb      	str	r3, [r7, #12]

  // Check parameters
  if (k_slow > 255) k_slow = 255;
 8004402:	1cbb      	adds	r3, r7, #2
 8004404:	881b      	ldrh	r3, [r3, #0]
 8004406:	2bff      	cmp	r3, #255	; 0xff
 8004408:	d902      	bls.n	8004410 <TSL_ecs_CalcK+0x54>
 800440a:	1cbb      	adds	r3, r7, #2
 800440c:	22ff      	movs	r2, #255	; 0xff
 800440e:	801a      	strh	r2, [r3, #0]
  if (k_fast > 255) k_fast = 255;
 8004410:	003b      	movs	r3, r7
 8004412:	881b      	ldrh	r3, [r3, #0]
 8004414:	2bff      	cmp	r3, #255	; 0xff
 8004416:	d902      	bls.n	800441e <TSL_ecs_CalcK+0x62>
 8004418:	003b      	movs	r3, r7
 800441a:	22ff      	movs	r2, #255	; 0xff
 800441c:	801a      	strh	r2, [r3, #0]

  pobj = objgrp->p_Obj; // First object in the group
 800441e:	687b      	ldr	r3, [r7, #4]
 8004420:	681b      	ldr	r3, [r3, #0]
 8004422:	617b      	str	r3, [r7, #20]

  // Process all objects
  for (idx_obj = 0; idx_obj < objgrp->NbObjects; idx_obj++)
 8004424:	231f      	movs	r3, #31
 8004426:	18fb      	adds	r3, r7, r3
 8004428:	2200      	movs	r2, #0
 800442a:	701a      	strb	r2, [r3, #0]
 800442c:	e07c      	b.n	8004528 <TSL_ecs_CalcK+0x16c>
  {

    // Assign global object
    TSL_obj_SetGlobalObj(pobj);
 800442e:	697b      	ldr	r3, [r7, #20]
 8004430:	0018      	movs	r0, r3
 8004432:	f000 fa81 	bl	8004938 <TSL_obj_SetGlobalObj>

#if TSLPRM_TOTAL_TKEYS > 0
    if ((THIS_OBJ_TYPE == TSL_OBJ_TOUCHKEY) || (THIS_OBJ_TYPE == TSL_OBJ_TOUCHKEYB))
 8004436:	4b4a      	ldr	r3, [pc, #296]	; (8004560 <TSL_ecs_CalcK+0x1a4>)
 8004438:	68db      	ldr	r3, [r3, #12]
 800443a:	781b      	ldrb	r3, [r3, #0]
 800443c:	2b10      	cmp	r3, #16
 800443e:	d004      	beq.n	800444a <TSL_ecs_CalcK+0x8e>
 8004440:	4b47      	ldr	r3, [pc, #284]	; (8004560 <TSL_ecs_CalcK+0x1a4>)
 8004442:	68db      	ldr	r3, [r3, #12]
 8004444:	781b      	ldrb	r3, [r3, #0]
 8004446:	2b11      	cmp	r3, #17
 8004448:	d111      	bne.n	800446e <TSL_ecs_CalcK+0xb2>
    {
      // Ignore object if not in Release state (OFF or Error in this case)
      if (THIS_TKEY_STATEID != TSL_STATEID_RELEASE)
 800444a:	4b45      	ldr	r3, [pc, #276]	; (8004560 <TSL_ecs_CalcK+0x1a4>)
 800444c:	695b      	ldr	r3, [r3, #20]
 800444e:	681b      	ldr	r3, [r3, #0]
 8004450:	781b      	ldrb	r3, [r3, #0]
 8004452:	2b02      	cmp	r3, #2
 8004454:	d003      	beq.n	800445e <TSL_ecs_CalcK+0xa2>
      {
        pobj++; // Next object
 8004456:	697b      	ldr	r3, [r7, #20]
 8004458:	3308      	adds	r3, #8
 800445a:	617b      	str	r3, [r7, #20]
        continue; // Stop processing of current object
 800445c:	e05d      	b.n	800451a <TSL_ecs_CalcK+0x15e>
      }
      nb_channels = 1;
 800445e:	2310      	movs	r3, #16
 8004460:	18fb      	adds	r3, r7, r3
 8004462:	2201      	movs	r2, #1
 8004464:	801a      	strh	r2, [r3, #0]
      p_Ch = TSL_Globals.This_TKey->p_ChD;
 8004466:	4b3e      	ldr	r3, [pc, #248]	; (8004560 <TSL_ecs_CalcK+0x1a4>)
 8004468:	695b      	ldr	r3, [r3, #20]
 800446a:	689b      	ldr	r3, [r3, #8]
 800446c:	60fb      	str	r3, [r7, #12]
      p_Ch = TSL_Globals.This_LinRot->p_ChD;
    }
#endif

    // Check channel pointer variable
    if (p_Ch == 0) return 0;
 800446e:	68fb      	ldr	r3, [r7, #12]
 8004470:	2b00      	cmp	r3, #0
 8004472:	d101      	bne.n	8004478 <TSL_ecs_CalcK+0xbc>
 8004474:	2300      	movs	r3, #0
 8004476:	e06e      	b.n	8004556 <TSL_ecs_CalcK+0x19a>

    // Check all channels of current object
    for (idx_ch = 0; idx_ch < nb_channels; idx_ch++)
 8004478:	231e      	movs	r3, #30
 800447a:	18fb      	adds	r3, r7, r3
 800447c:	2200      	movs	r2, #0
 800447e:	701a      	strb	r2, [r3, #0]
 8004480:	e03f      	b.n	8004502 <TSL_ecs_CalcK+0x146>
    {

      ldelta = p_Ch->Delta;
 8004482:	230a      	movs	r3, #10
 8004484:	18fb      	adds	r3, r7, r3
 8004486:	68fa      	ldr	r2, [r7, #12]
 8004488:	8912      	ldrh	r2, [r2, #8]
 800448a:	801a      	strh	r2, [r3, #0]

      // Check delta
      if (ldelta == 0) // No Fast ECS !
 800448c:	230a      	movs	r3, #10
 800448e:	18fb      	adds	r3, r7, r3
 8004490:	2200      	movs	r2, #0
 8004492:	5e9b      	ldrsh	r3, [r3, r2]
 8004494:	2b00      	cmp	r3, #0
 8004496:	d104      	bne.n	80044a2 <TSL_ecs_CalcK+0xe6>
      {
        ECS_Fast_Enable = 0;
 8004498:	231c      	movs	r3, #28
 800449a:	18fb      	adds	r3, r7, r3
 800449c:	2200      	movs	r2, #0
 800449e:	801a      	strh	r2, [r3, #0]
 80044a0:	e025      	b.n	80044ee <TSL_ecs_CalcK+0x132>
      }
      else
      {
        if (ldelta < 0)
 80044a2:	230a      	movs	r3, #10
 80044a4:	18fb      	adds	r3, r7, r3
 80044a6:	2200      	movs	r2, #0
 80044a8:	5e9b      	ldrsh	r3, [r3, r2]
 80044aa:	2b00      	cmp	r3, #0
 80044ac:	da10      	bge.n	80044d0 <TSL_ecs_CalcK+0x114>
        {
          if (ECS_Fast_Direction > 0) // No Fast ECS !
 80044ae:	231a      	movs	r3, #26
 80044b0:	18fb      	adds	r3, r7, r3
 80044b2:	2200      	movs	r2, #0
 80044b4:	5e9b      	ldrsh	r3, [r3, r2]
 80044b6:	2b00      	cmp	r3, #0
 80044b8:	dd04      	ble.n	80044c4 <TSL_ecs_CalcK+0x108>
          {
            ECS_Fast_Enable = 0;
 80044ba:	231c      	movs	r3, #28
 80044bc:	18fb      	adds	r3, r7, r3
 80044be:	2200      	movs	r2, #0
 80044c0:	801a      	strh	r2, [r3, #0]
 80044c2:	e014      	b.n	80044ee <TSL_ecs_CalcK+0x132>
          }
          else
          {
            ECS_Fast_Direction = -1;
 80044c4:	231a      	movs	r3, #26
 80044c6:	18fb      	adds	r3, r7, r3
 80044c8:	2201      	movs	r2, #1
 80044ca:	4252      	negs	r2, r2
 80044cc:	801a      	strh	r2, [r3, #0]
 80044ce:	e00e      	b.n	80044ee <TSL_ecs_CalcK+0x132>
          }
        }
        else
        {
          if (ECS_Fast_Direction < 0) // No Fast ECS !
 80044d0:	231a      	movs	r3, #26
 80044d2:	18fb      	adds	r3, r7, r3
 80044d4:	2200      	movs	r2, #0
 80044d6:	5e9b      	ldrsh	r3, [r3, r2]
 80044d8:	2b00      	cmp	r3, #0
 80044da:	da04      	bge.n	80044e6 <TSL_ecs_CalcK+0x12a>
          {
            ECS_Fast_Enable = 0;
 80044dc:	231c      	movs	r3, #28
 80044de:	18fb      	adds	r3, r7, r3
 80044e0:	2200      	movs	r2, #0
 80044e2:	801a      	strh	r2, [r3, #0]
 80044e4:	e003      	b.n	80044ee <TSL_ecs_CalcK+0x132>
          }
          else
          {
            ECS_Fast_Direction = 1;
 80044e6:	231a      	movs	r3, #26
 80044e8:	18fb      	adds	r3, r7, r3
 80044ea:	2201      	movs	r2, #1
 80044ec:	801a      	strh	r2, [r3, #0]
          }
        }
      }

      p_Ch++; // Next channel
 80044ee:	68fb      	ldr	r3, [r7, #12]
 80044f0:	330c      	adds	r3, #12
 80044f2:	60fb      	str	r3, [r7, #12]
    for (idx_ch = 0; idx_ch < nb_channels; idx_ch++)
 80044f4:	231e      	movs	r3, #30
 80044f6:	18fb      	adds	r3, r7, r3
 80044f8:	781a      	ldrb	r2, [r3, #0]
 80044fa:	231e      	movs	r3, #30
 80044fc:	18fb      	adds	r3, r7, r3
 80044fe:	3201      	adds	r2, #1
 8004500:	701a      	strb	r2, [r3, #0]
 8004502:	231e      	movs	r3, #30
 8004504:	18fb      	adds	r3, r7, r3
 8004506:	781b      	ldrb	r3, [r3, #0]
 8004508:	b29b      	uxth	r3, r3
 800450a:	2210      	movs	r2, #16
 800450c:	18ba      	adds	r2, r7, r2
 800450e:	8812      	ldrh	r2, [r2, #0]
 8004510:	429a      	cmp	r2, r3
 8004512:	d8b6      	bhi.n	8004482 <TSL_ecs_CalcK+0xc6>

    } // for all channels of current object

    pobj++; // Next object
 8004514:	697b      	ldr	r3, [r7, #20]
 8004516:	3308      	adds	r3, #8
 8004518:	617b      	str	r3, [r7, #20]
  for (idx_obj = 0; idx_obj < objgrp->NbObjects; idx_obj++)
 800451a:	231f      	movs	r3, #31
 800451c:	18fb      	adds	r3, r7, r3
 800451e:	781a      	ldrb	r2, [r3, #0]
 8004520:	231f      	movs	r3, #31
 8004522:	18fb      	adds	r3, r7, r3
 8004524:	3201      	adds	r2, #1
 8004526:	701a      	strb	r2, [r3, #0]
 8004528:	231f      	movs	r3, #31
 800452a:	18fb      	adds	r3, r7, r3
 800452c:	781b      	ldrb	r3, [r3, #0]
 800452e:	b29a      	uxth	r2, r3
 8004530:	687b      	ldr	r3, [r7, #4]
 8004532:	889b      	ldrh	r3, [r3, #4]
 8004534:	429a      	cmp	r2, r3
 8004536:	d200      	bcs.n	800453a <TSL_ecs_CalcK+0x17e>
 8004538:	e779      	b.n	800442e <TSL_ecs_CalcK+0x72>

  } // for all objects

  // Assign K fast following Delta variations
  if (ECS_Fast_Enable)
 800453a:	231c      	movs	r3, #28
 800453c:	18fb      	adds	r3, r7, r3
 800453e:	2200      	movs	r2, #0
 8004540:	5e9b      	ldrsh	r3, [r3, r2]
 8004542:	2b00      	cmp	r3, #0
 8004544:	d004      	beq.n	8004550 <TSL_ecs_CalcK+0x194>
  {
    retval = k_fast;
 8004546:	2312      	movs	r3, #18
 8004548:	18fb      	adds	r3, r7, r3
 800454a:	003a      	movs	r2, r7
 800454c:	8812      	ldrh	r2, [r2, #0]
 800454e:	801a      	strh	r2, [r3, #0]
  }

  return retval;
 8004550:	2312      	movs	r3, #18
 8004552:	18fb      	adds	r3, r7, r3
 8004554:	881b      	ldrh	r3, [r3, #0]
}
 8004556:	0018      	movs	r0, r3
 8004558:	46bd      	mov	sp, r7
 800455a:	b008      	add	sp, #32
 800455c:	bd80      	pop	{r7, pc}
 800455e:	46c0      	nop			; (mov r8, r8)
 8004560:	2000046c 	.word	0x2000046c

08004564 <TSL_ecs_ProcessK>:
  * @param[in] objgrp Pointer to the objects group to process
  * @param[in] Kcoeff K coefficient to apply
  * @retval None
  */
void TSL_ecs_ProcessK(TSL_ObjectGroup_T *objgrp, TSL_tKCoeff_T Kcoeff)
{
 8004564:	b580      	push	{r7, lr}
 8004566:	b08a      	sub	sp, #40	; 0x28
 8004568:	af00      	add	r7, sp, #0
 800456a:	6078      	str	r0, [r7, #4]
 800456c:	000a      	movs	r2, r1
 800456e:	1cbb      	adds	r3, r7, #2
 8004570:	801a      	strh	r2, [r3, #0]
  TSL_tIndex_T idx_ch; // Index of current channel
  CONST TSL_Object_T *pobj;
  TSL_tKCoeff_T Kcoeff_comp;
  uint32_t ECS_meas;
  uint32_t ECS_ref;
  TSL_tNb_T nb_channels = 0; // Number of channels inside current object
 8004572:	231e      	movs	r3, #30
 8004574:	18fb      	adds	r3, r7, r3
 8004576:	2200      	movs	r2, #0
 8004578:	801a      	strh	r2, [r3, #0]
  TSL_ChannelData_T *p_Ch = 0;
 800457a:	2300      	movs	r3, #0
 800457c:	61bb      	str	r3, [r7, #24]
  void(*pFunc_SetStateCalibration)(TSL_tCounter_T delay) = 0;
 800457e:	2300      	movs	r3, #0
 8004580:	617b      	str	r3, [r7, #20]

  // Check parameter
  if (Kcoeff > 255) Kcoeff = 255;
 8004582:	1cbb      	adds	r3, r7, #2
 8004584:	881b      	ldrh	r3, [r3, #0]
 8004586:	2bff      	cmp	r3, #255	; 0xff
 8004588:	d902      	bls.n	8004590 <TSL_ecs_ProcessK+0x2c>
 800458a:	1cbb      	adds	r3, r7, #2
 800458c:	22ff      	movs	r2, #255	; 0xff
 800458e:	801a      	strh	r2, [r3, #0]

  pobj = objgrp->p_Obj; // First object in the group
 8004590:	687b      	ldr	r3, [r7, #4]
 8004592:	681b      	ldr	r3, [r3, #0]
 8004594:	623b      	str	r3, [r7, #32]

  // Calculate the K coefficient complement
  Kcoeff_comp = (0xFF ^ Kcoeff) + 1;
 8004596:	1cbb      	adds	r3, r7, #2
 8004598:	881b      	ldrh	r3, [r3, #0]
 800459a:	22ff      	movs	r2, #255	; 0xff
 800459c:	4053      	eors	r3, r2
 800459e:	b29a      	uxth	r2, r3
 80045a0:	2312      	movs	r3, #18
 80045a2:	18fb      	adds	r3, r7, r3
 80045a4:	3201      	adds	r2, #1
 80045a6:	801a      	strh	r2, [r3, #0]

  // Process all objects
  for (idx_obj = 0; idx_obj < objgrp->NbObjects; idx_obj++)
 80045a8:	2327      	movs	r3, #39	; 0x27
 80045aa:	18fb      	adds	r3, r7, r3
 80045ac:	2200      	movs	r2, #0
 80045ae:	701a      	strb	r2, [r3, #0]
 80045b0:	e081      	b.n	80046b6 <TSL_ecs_ProcessK+0x152>
  {

    // Assign global object
    TSL_obj_SetGlobalObj(pobj);
 80045b2:	6a3b      	ldr	r3, [r7, #32]
 80045b4:	0018      	movs	r0, r3
 80045b6:	f000 f9bf 	bl	8004938 <TSL_obj_SetGlobalObj>

#if TSLPRM_TOTAL_TKEYS > 0
    if ((THIS_OBJ_TYPE == TSL_OBJ_TOUCHKEY) || (THIS_OBJ_TYPE == TSL_OBJ_TOUCHKEYB))
 80045ba:	4b46      	ldr	r3, [pc, #280]	; (80046d4 <TSL_ecs_ProcessK+0x170>)
 80045bc:	68db      	ldr	r3, [r3, #12]
 80045be:	781b      	ldrb	r3, [r3, #0]
 80045c0:	2b10      	cmp	r3, #16
 80045c2:	d004      	beq.n	80045ce <TSL_ecs_ProcessK+0x6a>
 80045c4:	4b43      	ldr	r3, [pc, #268]	; (80046d4 <TSL_ecs_ProcessK+0x170>)
 80045c6:	68db      	ldr	r3, [r3, #12]
 80045c8:	781b      	ldrb	r3, [r3, #0]
 80045ca:	2b11      	cmp	r3, #17
 80045cc:	d113      	bne.n	80045f6 <TSL_ecs_ProcessK+0x92>
    {
      // Ignore object if not in Release state (OFF or Error in this case)
      if (THIS_TKEY_STATEID != TSL_STATEID_RELEASE)
 80045ce:	4b41      	ldr	r3, [pc, #260]	; (80046d4 <TSL_ecs_ProcessK+0x170>)
 80045d0:	695b      	ldr	r3, [r3, #20]
 80045d2:	681b      	ldr	r3, [r3, #0]
 80045d4:	781b      	ldrb	r3, [r3, #0]
 80045d6:	2b02      	cmp	r3, #2
 80045d8:	d003      	beq.n	80045e2 <TSL_ecs_ProcessK+0x7e>
      {
        pobj++; // Next object
 80045da:	6a3b      	ldr	r3, [r7, #32]
 80045dc:	3308      	adds	r3, #8
 80045de:	623b      	str	r3, [r7, #32]
        continue; // Stop processing of current object
 80045e0:	e062      	b.n	80046a8 <TSL_ecs_ProcessK+0x144>
      }
      nb_channels = 1;
 80045e2:	231e      	movs	r3, #30
 80045e4:	18fb      	adds	r3, r7, r3
 80045e6:	2201      	movs	r2, #1
 80045e8:	801a      	strh	r2, [r3, #0]
      p_Ch = TSL_Globals.This_TKey->p_ChD;
 80045ea:	4b3a      	ldr	r3, [pc, #232]	; (80046d4 <TSL_ecs_ProcessK+0x170>)
 80045ec:	695b      	ldr	r3, [r3, #20]
 80045ee:	689b      	ldr	r3, [r3, #8]
 80045f0:	61bb      	str	r3, [r7, #24]
      pFunc_SetStateCalibration = &TSL_tkey_SetStateCalibration;
 80045f2:	4b39      	ldr	r3, [pc, #228]	; (80046d8 <TSL_ecs_ProcessK+0x174>)
 80045f4:	617b      	str	r3, [r7, #20]
      pFunc_SetStateCalibration = &TSL_linrot_SetStateCalibration;
    }
#endif

    // Check channel pointer variable
    if (p_Ch == 0) return;
 80045f6:	69bb      	ldr	r3, [r7, #24]
 80045f8:	2b00      	cmp	r3, #0
 80045fa:	d066      	beq.n	80046ca <TSL_ecs_ProcessK+0x166>

    // Calculate the new reference + rest for all channels
    for (idx_ch = 0; idx_ch < nb_channels; idx_ch++)
 80045fc:	2326      	movs	r3, #38	; 0x26
 80045fe:	18fb      	adds	r3, r7, r3
 8004600:	2200      	movs	r2, #0
 8004602:	701a      	strb	r2, [r3, #0]
 8004604:	e044      	b.n	8004690 <TSL_ecs_ProcessK+0x12c>
    {
      ECS_meas = TSL_acq_ComputeMeas(p_Ch->Ref, p_Ch->Delta);
 8004606:	69bb      	ldr	r3, [r7, #24]
 8004608:	889a      	ldrh	r2, [r3, #4]
 800460a:	69bb      	ldr	r3, [r7, #24]
 800460c:	2108      	movs	r1, #8
 800460e:	5e5b      	ldrsh	r3, [r3, r1]
 8004610:	0019      	movs	r1, r3
 8004612:	0010      	movs	r0, r2
 8004614:	f7ff fe82 	bl	800431c <TSL_acq_ComputeMeas>
 8004618:	0003      	movs	r3, r0
 800461a:	60fb      	str	r3, [r7, #12]
      ECS_meas <<= 8;
 800461c:	68fb      	ldr	r3, [r7, #12]
 800461e:	021b      	lsls	r3, r3, #8
 8004620:	60fb      	str	r3, [r7, #12]

      ECS_ref = (uint32_t)(p_Ch->Ref);
 8004622:	69bb      	ldr	r3, [r7, #24]
 8004624:	889b      	ldrh	r3, [r3, #4]
 8004626:	60bb      	str	r3, [r7, #8]
      ECS_ref <<= 8;
 8004628:	68bb      	ldr	r3, [r7, #8]
 800462a:	021b      	lsls	r3, r3, #8
 800462c:	60bb      	str	r3, [r7, #8]
      ECS_ref += p_Ch->RefRest;
 800462e:	69bb      	ldr	r3, [r7, #24]
 8004630:	799b      	ldrb	r3, [r3, #6]
 8004632:	001a      	movs	r2, r3
 8004634:	68bb      	ldr	r3, [r7, #8]
 8004636:	189b      	adds	r3, r3, r2
 8004638:	60bb      	str	r3, [r7, #8]
      ECS_ref *= Kcoeff_comp;
 800463a:	2312      	movs	r3, #18
 800463c:	18fb      	adds	r3, r7, r3
 800463e:	881a      	ldrh	r2, [r3, #0]
 8004640:	68bb      	ldr	r3, [r7, #8]
 8004642:	4353      	muls	r3, r2
 8004644:	60bb      	str	r3, [r7, #8]
      ECS_ref += (Kcoeff * ECS_meas);
 8004646:	1cbb      	adds	r3, r7, #2
 8004648:	881b      	ldrh	r3, [r3, #0]
 800464a:	68fa      	ldr	r2, [r7, #12]
 800464c:	4353      	muls	r3, r2
 800464e:	68ba      	ldr	r2, [r7, #8]
 8004650:	18d3      	adds	r3, r2, r3
 8004652:	60bb      	str	r3, [r7, #8]

      p_Ch->RefRest = (TSL_tRefRest_T)((ECS_ref >> 8) & 0xFF);
 8004654:	68bb      	ldr	r3, [r7, #8]
 8004656:	0a1b      	lsrs	r3, r3, #8
 8004658:	b2da      	uxtb	r2, r3
 800465a:	69bb      	ldr	r3, [r7, #24]
 800465c:	719a      	strb	r2, [r3, #6]
      p_Ch->Ref = (TSL_tRef_T)(ECS_ref >> 16);
 800465e:	68bb      	ldr	r3, [r7, #8]
 8004660:	0c1b      	lsrs	r3, r3, #16
 8004662:	b29a      	uxth	r2, r3
 8004664:	69bb      	ldr	r3, [r7, #24]
 8004666:	809a      	strh	r2, [r3, #4]

      // Go in Calibration state in the Reference is out of Range
      if (TSL_acq_TestReferenceOutOfRange(p_Ch) == TSL_TRUE)
 8004668:	69bb      	ldr	r3, [r7, #24]
 800466a:	0018      	movs	r0, r3
 800466c:	f7ff fe78 	bl	8004360 <TSL_acq_TestReferenceOutOfRange>
 8004670:	0003      	movs	r3, r0
 8004672:	2b01      	cmp	r3, #1
 8004674:	d102      	bne.n	800467c <TSL_ecs_ProcessK+0x118>
      {
        pFunc_SetStateCalibration(0);
 8004676:	697b      	ldr	r3, [r7, #20]
 8004678:	2000      	movs	r0, #0
 800467a:	4798      	blx	r3
      }

      p_Ch++; // Next channel
 800467c:	69bb      	ldr	r3, [r7, #24]
 800467e:	330c      	adds	r3, #12
 8004680:	61bb      	str	r3, [r7, #24]
    for (idx_ch = 0; idx_ch < nb_channels; idx_ch++)
 8004682:	2326      	movs	r3, #38	; 0x26
 8004684:	18fb      	adds	r3, r7, r3
 8004686:	781a      	ldrb	r2, [r3, #0]
 8004688:	2326      	movs	r3, #38	; 0x26
 800468a:	18fb      	adds	r3, r7, r3
 800468c:	3201      	adds	r2, #1
 800468e:	701a      	strb	r2, [r3, #0]
 8004690:	2326      	movs	r3, #38	; 0x26
 8004692:	18fb      	adds	r3, r7, r3
 8004694:	781b      	ldrb	r3, [r3, #0]
 8004696:	b29b      	uxth	r3, r3
 8004698:	221e      	movs	r2, #30
 800469a:	18ba      	adds	r2, r7, r2
 800469c:	8812      	ldrh	r2, [r2, #0]
 800469e:	429a      	cmp	r2, r3
 80046a0:	d8b1      	bhi.n	8004606 <TSL_ecs_ProcessK+0xa2>
    }

    pobj++; // Next object
 80046a2:	6a3b      	ldr	r3, [r7, #32]
 80046a4:	3308      	adds	r3, #8
 80046a6:	623b      	str	r3, [r7, #32]
  for (idx_obj = 0; idx_obj < objgrp->NbObjects; idx_obj++)
 80046a8:	2327      	movs	r3, #39	; 0x27
 80046aa:	18fb      	adds	r3, r7, r3
 80046ac:	781a      	ldrb	r2, [r3, #0]
 80046ae:	2327      	movs	r3, #39	; 0x27
 80046b0:	18fb      	adds	r3, r7, r3
 80046b2:	3201      	adds	r2, #1
 80046b4:	701a      	strb	r2, [r3, #0]
 80046b6:	2327      	movs	r3, #39	; 0x27
 80046b8:	18fb      	adds	r3, r7, r3
 80046ba:	781b      	ldrb	r3, [r3, #0]
 80046bc:	b29a      	uxth	r2, r3
 80046be:	687b      	ldr	r3, [r7, #4]
 80046c0:	889b      	ldrh	r3, [r3, #4]
 80046c2:	429a      	cmp	r2, r3
 80046c4:	d200      	bcs.n	80046c8 <TSL_ecs_ProcessK+0x164>
 80046c6:	e774      	b.n	80045b2 <TSL_ecs_ProcessK+0x4e>
 80046c8:	e000      	b.n	80046cc <TSL_ecs_ProcessK+0x168>
    if (p_Ch == 0) return;
 80046ca:	46c0      	nop			; (mov r8, r8)

  } // for all objects

}
 80046cc:	46bd      	mov	sp, r7
 80046ce:	b00a      	add	sp, #40	; 0x28
 80046d0:	bd80      	pop	{r7, pc}
 80046d2:	46c0      	nop			; (mov r8, r8)
 80046d4:	2000046c 	.word	0x2000046c
 80046d8:	08004c51 	.word	0x08004c51

080046dc <TSL_ecs_Process>:
  * An optional delay is added after the ECS condition (all sensors in Release state) is reached.
  * @param[in] objgrp Pointer to the objects group to process
  * @retval Status
  */
TSL_Status_enum_T TSL_ecs_Process(TSL_ObjectGroup_T *objgrp)
{
 80046dc:	b590      	push	{r4, r7, lr}
 80046de:	b085      	sub	sp, #20
 80046e0:	af00      	add	r7, sp, #0
 80046e2:	6078      	str	r0, [r7, #4]
  TSL_tKCoeff_T MyKcoeff;
  TSL_Status_enum_T retval;

  if ((objgrp->StateMask & TSL_STATE_RELEASE_BIT_MASK) && !(objgrp->StateMask & TSL_STATEMASK_ACTIVE))
 80046e4:	687b      	ldr	r3, [r7, #4]
 80046e6:	88db      	ldrh	r3, [r3, #6]
 80046e8:	001a      	movs	r2, r3
 80046ea:	2301      	movs	r3, #1
 80046ec:	4013      	ands	r3, r2
 80046ee:	d020      	beq.n	8004732 <TSL_ecs_Process+0x56>
 80046f0:	687b      	ldr	r3, [r7, #4]
 80046f2:	88db      	ldrh	r3, [r3, #6]
 80046f4:	001a      	movs	r2, r3
 80046f6:	233e      	movs	r3, #62	; 0x3e
 80046f8:	4013      	ands	r3, r2
 80046fa:	d11a      	bne.n	8004732 <TSL_ecs_Process+0x56>
  {
#if TSLPRM_ECS_DELAY > 0
    if (!objgrp->ECS_wait)
 80046fc:	687b      	ldr	r3, [r7, #4]
 80046fe:	7a9b      	ldrb	r3, [r3, #10]
 8004700:	2b00      	cmp	r3, #0
 8004702:	d11c      	bne.n	800473e <TSL_ecs_Process+0x62>
    {
      disableInterrupts();
 8004704:	4b2c      	ldr	r3, [pc, #176]	; (80047b8 <TSL_ecs_Process+0xdc>)
 8004706:	4a2c      	ldr	r2, [pc, #176]	; (80047b8 <TSL_ecs_Process+0xdc>)
 8004708:	6812      	ldr	r2, [r2, #0]
 800470a:	2102      	movs	r1, #2
 800470c:	438a      	bics	r2, r1
 800470e:	601a      	str	r2, [r3, #0]
      objgrp->ECS_start_time = TSL_Globals.Tick_ms; // Save the current time
 8004710:	4b2a      	ldr	r3, [pc, #168]	; (80047bc <TSL_ecs_Process+0xe0>)
 8004712:	881a      	ldrh	r2, [r3, #0]
 8004714:	687b      	ldr	r3, [r7, #4]
 8004716:	819a      	strh	r2, [r3, #12]
      enableInterrupts();
 8004718:	4b27      	ldr	r3, [pc, #156]	; (80047b8 <TSL_ecs_Process+0xdc>)
 800471a:	4a27      	ldr	r2, [pc, #156]	; (80047b8 <TSL_ecs_Process+0xdc>)
 800471c:	6812      	ldr	r2, [r2, #0]
 800471e:	2102      	movs	r1, #2
 8004720:	430a      	orrs	r2, r1
 8004722:	601a      	str	r2, [r3, #0]
      objgrp->ECS_wait = 1;
 8004724:	687b      	ldr	r3, [r7, #4]
 8004726:	2201      	movs	r2, #1
 8004728:	729a      	strb	r2, [r3, #10]
      objgrp->ECS_exec = 0;
 800472a:	687b      	ldr	r3, [r7, #4]
 800472c:	2200      	movs	r2, #0
 800472e:	725a      	strb	r2, [r3, #9]
    if (!objgrp->ECS_wait)
 8004730:	e005      	b.n	800473e <TSL_ecs_Process+0x62>
#endif
  }
  else
  {
#if TSLPRM_ECS_DELAY > 0
    objgrp->ECS_wait = 0;
 8004732:	687b      	ldr	r3, [r7, #4]
 8004734:	2200      	movs	r2, #0
 8004736:	729a      	strb	r2, [r3, #10]
#endif
    objgrp->ECS_exec = 0;
 8004738:	687b      	ldr	r3, [r7, #4]
 800473a:	2200      	movs	r2, #0
 800473c:	725a      	strb	r2, [r3, #9]
  }

#if TSLPRM_ECS_DELAY > 0
  if (objgrp->ECS_wait && (!objgrp->ECS_exec))
 800473e:	687b      	ldr	r3, [r7, #4]
 8004740:	7a9b      	ldrb	r3, [r3, #10]
 8004742:	2b00      	cmp	r3, #0
 8004744:	d011      	beq.n	800476a <TSL_ecs_Process+0x8e>
 8004746:	687b      	ldr	r3, [r7, #4]
 8004748:	7a5b      	ldrb	r3, [r3, #9]
 800474a:	2b00      	cmp	r3, #0
 800474c:	d10d      	bne.n	800476a <TSL_ecs_Process+0x8e>
  {
    // Execute the ECS only when the delay has elapsed
    if (TSL_tim_CheckDelay_ms(TSLPRM_ECS_DELAY, &objgrp->ECS_start_time) == TSL_STATUS_OK)
 800474e:	687b      	ldr	r3, [r7, #4]
 8004750:	330c      	adds	r3, #12
 8004752:	001a      	movs	r2, r3
 8004754:	23fa      	movs	r3, #250	; 0xfa
 8004756:	005b      	lsls	r3, r3, #1
 8004758:	0011      	movs	r1, r2
 800475a:	0018      	movs	r0, r3
 800475c:	f000 f930 	bl	80049c0 <TSL_tim_CheckDelay_ms>
 8004760:	1e03      	subs	r3, r0, #0
 8004762:	d102      	bne.n	800476a <TSL_ecs_Process+0x8e>
    {
      objgrp->ECS_exec = 1;
 8004764:	687b      	ldr	r3, [r7, #4]
 8004766:	2201      	movs	r2, #1
 8004768:	725a      	strb	r2, [r3, #9]
    }
  }
#endif

  if (objgrp->ECS_exec)
 800476a:	687b      	ldr	r3, [r7, #4]
 800476c:	7a5b      	ldrb	r3, [r3, #9]
 800476e:	2b00      	cmp	r3, #0
 8004770:	d016      	beq.n	80047a0 <TSL_ecs_Process+0xc4>
  {
    // Calculate the K coefficient
    MyKcoeff = TSL_ecs_CalcK(objgrp, TSLPRM_ECS_K_SLOW, TSLPRM_ECS_K_FAST);
 8004772:	230c      	movs	r3, #12
 8004774:	18fc      	adds	r4, r7, r3
 8004776:	687b      	ldr	r3, [r7, #4]
 8004778:	2214      	movs	r2, #20
 800477a:	210a      	movs	r1, #10
 800477c:	0018      	movs	r0, r3
 800477e:	f7ff fe1d 	bl	80043bc <TSL_ecs_CalcK>
 8004782:	0003      	movs	r3, r0
 8004784:	8023      	strh	r3, [r4, #0]
    // Process the objects
    TSL_ecs_ProcessK(objgrp, MyKcoeff);
 8004786:	230c      	movs	r3, #12
 8004788:	18fb      	adds	r3, r7, r3
 800478a:	881a      	ldrh	r2, [r3, #0]
 800478c:	687b      	ldr	r3, [r7, #4]
 800478e:	0011      	movs	r1, r2
 8004790:	0018      	movs	r0, r3
 8004792:	f7ff fee7 	bl	8004564 <TSL_ecs_ProcessK>
    retval = TSL_STATUS_OK;
 8004796:	230f      	movs	r3, #15
 8004798:	18fb      	adds	r3, r7, r3
 800479a:	2200      	movs	r2, #0
 800479c:	701a      	strb	r2, [r3, #0]
 800479e:	e003      	b.n	80047a8 <TSL_ecs_Process+0xcc>
  }
  else
  {
    retval = TSL_STATUS_BUSY;
 80047a0:	230f      	movs	r3, #15
 80047a2:	18fb      	adds	r3, r7, r3
 80047a4:	2201      	movs	r2, #1
 80047a6:	701a      	strb	r2, [r3, #0]
  }

  return retval;
 80047a8:	230f      	movs	r3, #15
 80047aa:	18fb      	adds	r3, r7, r3
 80047ac:	781b      	ldrb	r3, [r3, #0]
}
 80047ae:	0018      	movs	r0, r3
 80047b0:	46bd      	mov	sp, r7
 80047b2:	b005      	add	sp, #20
 80047b4:	bd90      	pop	{r4, r7, pc}
 80047b6:	46c0      	nop			; (mov r8, r8)
 80047b8:	e000e010 	.word	0xe000e010
 80047bc:	2000046c 	.word	0x2000046c

080047c0 <TSL_obj_GroupInit>:
  * @brief Initialize a group of Objects
  * @param[in] objgrp  Pointer to the group of objects
  * @retval None
  */
void TSL_obj_GroupInit(TSL_ObjectGroup_T *objgrp)
{
 80047c0:	b580      	push	{r7, lr}
 80047c2:	b086      	sub	sp, #24
 80047c4:	af00      	add	r7, sp, #0
 80047c6:	6078      	str	r0, [r7, #4]
  TSL_tIndex_T idx_obj;
  CONST TSL_Object_T *pobj;
  TSL_tNb_T objgrp_state_mask = 0;
 80047c8:	230e      	movs	r3, #14
 80047ca:	18fb      	adds	r3, r7, r3
 80047cc:	2200      	movs	r2, #0
 80047ce:	801a      	strh	r2, [r3, #0]

  pobj = objgrp->p_Obj; // First object in the group
 80047d0:	687b      	ldr	r3, [r7, #4]
 80047d2:	681b      	ldr	r3, [r3, #0]
 80047d4:	613b      	str	r3, [r7, #16]

  objgrp->Change = TSL_STATE_NOT_CHANGED;
 80047d6:	687b      	ldr	r3, [r7, #4]
 80047d8:	2200      	movs	r2, #0
 80047da:	721a      	strb	r2, [r3, #8]

  // Process all objects
  for (idx_obj = 0; idx_obj < objgrp->NbObjects; idx_obj++)
 80047dc:	2317      	movs	r3, #23
 80047de:	18fb      	adds	r3, r7, r3
 80047e0:	2200      	movs	r2, #0
 80047e2:	701a      	strb	r2, [r3, #0]
 80047e4:	e034      	b.n	8004850 <TSL_obj_GroupInit+0x90>
  {

    // Assign global object
    TSL_obj_SetGlobalObj(pobj);
 80047e6:	693b      	ldr	r3, [r7, #16]
 80047e8:	0018      	movs	r0, r3
 80047ea:	f000 f8a5 	bl	8004938 <TSL_obj_SetGlobalObj>

    switch (pobj->Type)
 80047ee:	693b      	ldr	r3, [r7, #16]
 80047f0:	781b      	ldrb	r3, [r3, #0]
 80047f2:	2b11      	cmp	r3, #17
 80047f4:	d000      	beq.n	80047f8 <TSL_obj_GroupInit+0x38>
        // Get object state mask from state machine in TSL_Params
        objgrp_state_mask |= TSL_Params.p_LinRotSM[TSL_Globals.This_LinRot->p_Data->StateId].StateMask;
        break;
#endif
      default:
        break;
 80047f6:	e021      	b.n	800483c <TSL_obj_GroupInit+0x7c>
        TSL_Params.p_TKeyMT->Init();
 80047f8:	4b1e      	ldr	r3, [pc, #120]	; (8004874 <TSL_obj_GroupInit+0xb4>)
 80047fa:	68db      	ldr	r3, [r3, #12]
 80047fc:	681b      	ldr	r3, [r3, #0]
 80047fe:	4798      	blx	r3
        if (TSL_Globals.This_TKey->p_Data->Change)
 8004800:	4b1d      	ldr	r3, [pc, #116]	; (8004878 <TSL_obj_GroupInit+0xb8>)
 8004802:	695b      	ldr	r3, [r3, #20]
 8004804:	681b      	ldr	r3, [r3, #0]
 8004806:	789b      	ldrb	r3, [r3, #2]
 8004808:	2240      	movs	r2, #64	; 0x40
 800480a:	4013      	ands	r3, r2
 800480c:	b2db      	uxtb	r3, r3
 800480e:	2b00      	cmp	r3, #0
 8004810:	d002      	beq.n	8004818 <TSL_obj_GroupInit+0x58>
          objgrp->Change = TSL_STATE_CHANGED;
 8004812:	687b      	ldr	r3, [r7, #4]
 8004814:	2201      	movs	r2, #1
 8004816:	721a      	strb	r2, [r3, #8]
        objgrp_state_mask |= TSL_Params.p_TKeySM[TSL_Globals.This_TKey->p_Data->StateId].StateMask;
 8004818:	4b16      	ldr	r3, [pc, #88]	; (8004874 <TSL_obj_GroupInit+0xb4>)
 800481a:	689a      	ldr	r2, [r3, #8]
 800481c:	4b16      	ldr	r3, [pc, #88]	; (8004878 <TSL_obj_GroupInit+0xb8>)
 800481e:	695b      	ldr	r3, [r3, #20]
 8004820:	681b      	ldr	r3, [r3, #0]
 8004822:	781b      	ldrb	r3, [r3, #0]
 8004824:	00db      	lsls	r3, r3, #3
 8004826:	18d3      	adds	r3, r2, r3
 8004828:	781b      	ldrb	r3, [r3, #0]
 800482a:	b299      	uxth	r1, r3
 800482c:	230e      	movs	r3, #14
 800482e:	18fb      	adds	r3, r7, r3
 8004830:	220e      	movs	r2, #14
 8004832:	18ba      	adds	r2, r7, r2
 8004834:	8812      	ldrh	r2, [r2, #0]
 8004836:	430a      	orrs	r2, r1
 8004838:	801a      	strh	r2, [r3, #0]
        break;
 800483a:	46c0      	nop			; (mov r8, r8)
    }

    pobj++; // Next object
 800483c:	693b      	ldr	r3, [r7, #16]
 800483e:	3308      	adds	r3, #8
 8004840:	613b      	str	r3, [r7, #16]
  for (idx_obj = 0; idx_obj < objgrp->NbObjects; idx_obj++)
 8004842:	2317      	movs	r3, #23
 8004844:	18fb      	adds	r3, r7, r3
 8004846:	781a      	ldrb	r2, [r3, #0]
 8004848:	2317      	movs	r3, #23
 800484a:	18fb      	adds	r3, r7, r3
 800484c:	3201      	adds	r2, #1
 800484e:	701a      	strb	r2, [r3, #0]
 8004850:	2317      	movs	r3, #23
 8004852:	18fb      	adds	r3, r7, r3
 8004854:	781b      	ldrb	r3, [r3, #0]
 8004856:	b29a      	uxth	r2, r3
 8004858:	687b      	ldr	r3, [r7, #4]
 800485a:	889b      	ldrh	r3, [r3, #4]
 800485c:	429a      	cmp	r2, r3
 800485e:	d3c2      	bcc.n	80047e6 <TSL_obj_GroupInit+0x26>
  }

  // Update the object group state mask
  objgrp->StateMask = objgrp_state_mask;
 8004860:	687b      	ldr	r3, [r7, #4]
 8004862:	220e      	movs	r2, #14
 8004864:	18ba      	adds	r2, r7, r2
 8004866:	8812      	ldrh	r2, [r2, #0]
 8004868:	80da      	strh	r2, [r3, #6]
}
 800486a:	46c0      	nop			; (mov r8, r8)
 800486c:	46bd      	mov	sp, r7
 800486e:	b006      	add	sp, #24
 8004870:	bd80      	pop	{r7, pc}
 8004872:	46c0      	nop			; (mov r8, r8)
 8004874:	20000018 	.word	0x20000018
 8004878:	2000046c 	.word	0x2000046c

0800487c <TSL_obj_GroupProcess>:
  * @brief Process the state machine on a group of Objects
  * @param[in] objgrp  Pointer to the group of objects to process
  * @retval None
  */
void TSL_obj_GroupProcess(TSL_ObjectGroup_T *objgrp)
{
 800487c:	b580      	push	{r7, lr}
 800487e:	b086      	sub	sp, #24
 8004880:	af00      	add	r7, sp, #0
 8004882:	6078      	str	r0, [r7, #4]
  TSL_tIndex_T idx_obj;
  CONST TSL_Object_T *pobj;
  TSL_tNb_T objgrp_state_mask = 0;
 8004884:	230e      	movs	r3, #14
 8004886:	18fb      	adds	r3, r7, r3
 8004888:	2200      	movs	r2, #0
 800488a:	801a      	strh	r2, [r3, #0]

  pobj = objgrp->p_Obj; // First object in the group
 800488c:	687b      	ldr	r3, [r7, #4]
 800488e:	681b      	ldr	r3, [r3, #0]
 8004890:	613b      	str	r3, [r7, #16]

  objgrp->Change = TSL_STATE_NOT_CHANGED;
 8004892:	687b      	ldr	r3, [r7, #4]
 8004894:	2200      	movs	r2, #0
 8004896:	721a      	strb	r2, [r3, #8]

  // Process all objects
  for (idx_obj = 0; idx_obj < objgrp->NbObjects; idx_obj++)
 8004898:	2317      	movs	r3, #23
 800489a:	18fb      	adds	r3, r7, r3
 800489c:	2200      	movs	r2, #0
 800489e:	701a      	strb	r2, [r3, #0]
 80048a0:	e034      	b.n	800490c <TSL_obj_GroupProcess+0x90>
  {

    // Assign global object
    TSL_obj_SetGlobalObj(pobj);
 80048a2:	693b      	ldr	r3, [r7, #16]
 80048a4:	0018      	movs	r0, r3
 80048a6:	f000 f847 	bl	8004938 <TSL_obj_SetGlobalObj>

    switch (pobj->Type)
 80048aa:	693b      	ldr	r3, [r7, #16]
 80048ac:	781b      	ldrb	r3, [r3, #0]
 80048ae:	2b11      	cmp	r3, #17
 80048b0:	d000      	beq.n	80048b4 <TSL_obj_GroupProcess+0x38>
        // Get object state mask from state machine in TSL_Params
        objgrp_state_mask |= TSL_Params.p_LinRotSM[TSL_Globals.This_LinRot->p_Data->StateId].StateMask;
        break;
#endif
      default:
        break;
 80048b2:	e021      	b.n	80048f8 <TSL_obj_GroupProcess+0x7c>
        TSL_Params.p_TKeyMT->Process();
 80048b4:	4b1e      	ldr	r3, [pc, #120]	; (8004930 <TSL_obj_GroupProcess+0xb4>)
 80048b6:	68db      	ldr	r3, [r3, #12]
 80048b8:	685b      	ldr	r3, [r3, #4]
 80048ba:	4798      	blx	r3
        if (TSL_Globals.This_TKey->p_Data->Change)
 80048bc:	4b1d      	ldr	r3, [pc, #116]	; (8004934 <TSL_obj_GroupProcess+0xb8>)
 80048be:	695b      	ldr	r3, [r3, #20]
 80048c0:	681b      	ldr	r3, [r3, #0]
 80048c2:	789b      	ldrb	r3, [r3, #2]
 80048c4:	2240      	movs	r2, #64	; 0x40
 80048c6:	4013      	ands	r3, r2
 80048c8:	b2db      	uxtb	r3, r3
 80048ca:	2b00      	cmp	r3, #0
 80048cc:	d002      	beq.n	80048d4 <TSL_obj_GroupProcess+0x58>
          objgrp->Change = TSL_STATE_CHANGED;
 80048ce:	687b      	ldr	r3, [r7, #4]
 80048d0:	2201      	movs	r2, #1
 80048d2:	721a      	strb	r2, [r3, #8]
        objgrp_state_mask |= TSL_Params.p_TKeySM[TSL_Globals.This_TKey->p_Data->StateId].StateMask;
 80048d4:	4b16      	ldr	r3, [pc, #88]	; (8004930 <TSL_obj_GroupProcess+0xb4>)
 80048d6:	689a      	ldr	r2, [r3, #8]
 80048d8:	4b16      	ldr	r3, [pc, #88]	; (8004934 <TSL_obj_GroupProcess+0xb8>)
 80048da:	695b      	ldr	r3, [r3, #20]
 80048dc:	681b      	ldr	r3, [r3, #0]
 80048de:	781b      	ldrb	r3, [r3, #0]
 80048e0:	00db      	lsls	r3, r3, #3
 80048e2:	18d3      	adds	r3, r2, r3
 80048e4:	781b      	ldrb	r3, [r3, #0]
 80048e6:	b299      	uxth	r1, r3
 80048e8:	230e      	movs	r3, #14
 80048ea:	18fb      	adds	r3, r7, r3
 80048ec:	220e      	movs	r2, #14
 80048ee:	18ba      	adds	r2, r7, r2
 80048f0:	8812      	ldrh	r2, [r2, #0]
 80048f2:	430a      	orrs	r2, r1
 80048f4:	801a      	strh	r2, [r3, #0]
        break;
 80048f6:	46c0      	nop			; (mov r8, r8)
    }

    pobj++; // Next object
 80048f8:	693b      	ldr	r3, [r7, #16]
 80048fa:	3308      	adds	r3, #8
 80048fc:	613b      	str	r3, [r7, #16]
  for (idx_obj = 0; idx_obj < objgrp->NbObjects; idx_obj++)
 80048fe:	2317      	movs	r3, #23
 8004900:	18fb      	adds	r3, r7, r3
 8004902:	781a      	ldrb	r2, [r3, #0]
 8004904:	2317      	movs	r3, #23
 8004906:	18fb      	adds	r3, r7, r3
 8004908:	3201      	adds	r2, #1
 800490a:	701a      	strb	r2, [r3, #0]
 800490c:	2317      	movs	r3, #23
 800490e:	18fb      	adds	r3, r7, r3
 8004910:	781b      	ldrb	r3, [r3, #0]
 8004912:	b29a      	uxth	r2, r3
 8004914:	687b      	ldr	r3, [r7, #4]
 8004916:	889b      	ldrh	r3, [r3, #4]
 8004918:	429a      	cmp	r2, r3
 800491a:	d3c2      	bcc.n	80048a2 <TSL_obj_GroupProcess+0x26>
  }

  // Update the object group state mask
  objgrp->StateMask = objgrp_state_mask;
 800491c:	687b      	ldr	r3, [r7, #4]
 800491e:	220e      	movs	r2, #14
 8004920:	18ba      	adds	r2, r7, r2
 8004922:	8812      	ldrh	r2, [r2, #0]
 8004924:	80da      	strh	r2, [r3, #6]
}
 8004926:	46c0      	nop			; (mov r8, r8)
 8004928:	46bd      	mov	sp, r7
 800492a:	b006      	add	sp, #24
 800492c:	bd80      	pop	{r7, pc}
 800492e:	46c0      	nop			; (mov r8, r8)
 8004930:	20000018 	.word	0x20000018
 8004934:	2000046c 	.word	0x2000046c

08004938 <TSL_obj_SetGlobalObj>:
  * @brief Set the global object variable
  * @param[in] pobj  Pointer to the object to process
  * @retval None
  */
void TSL_obj_SetGlobalObj(CONST TSL_Object_T *pobj)
{
 8004938:	b580      	push	{r7, lr}
 800493a:	b082      	sub	sp, #8
 800493c:	af00      	add	r7, sp, #0
 800493e:	6078      	str	r0, [r7, #4]

  TSL_Globals.This_Obj = pobj;
 8004940:	4b08      	ldr	r3, [pc, #32]	; (8004964 <TSL_obj_SetGlobalObj+0x2c>)
 8004942:	687a      	ldr	r2, [r7, #4]
 8004944:	60da      	str	r2, [r3, #12]

  switch (pobj->Type)
 8004946:	687b      	ldr	r3, [r7, #4]
 8004948:	781b      	ldrb	r3, [r3, #0]
 800494a:	3b10      	subs	r3, #16
 800494c:	2b01      	cmp	r3, #1
 800494e:	d804      	bhi.n	800495a <TSL_obj_SetGlobalObj+0x22>
  {
#if TSLPRM_TOTAL_TKEYS > 0
    case TSL_OBJ_TOUCHKEY:
    case TSL_OBJ_TOUCHKEYB:
      TSL_Globals.This_TKey = (TSL_TouchKey_T *)pobj->Elmt;
 8004950:	687b      	ldr	r3, [r7, #4]
 8004952:	685a      	ldr	r2, [r3, #4]
 8004954:	4b03      	ldr	r3, [pc, #12]	; (8004964 <TSL_obj_SetGlobalObj+0x2c>)
 8004956:	615a      	str	r2, [r3, #20]
      break;
 8004958:	e000      	b.n	800495c <TSL_obj_SetGlobalObj+0x24>
    case TSL_OBJ_ROTARYB:
      TSL_Globals.This_LinRot = (TSL_LinRot_T *)pobj->Elmt;
      break;
#endif
    default:
      break;
 800495a:	46c0      	nop			; (mov r8, r8)
  }
}
 800495c:	46c0      	nop			; (mov r8, r8)
 800495e:	46bd      	mov	sp, r7
 8004960:	b002      	add	sp, #8
 8004962:	bd80      	pop	{r7, pc}
 8004964:	2000046c 	.word	0x2000046c

08004968 <TSL_tim_ProcessIT>:
  * @brief  Management of the timing module interrupt service routine.
  * @param  None
  * @retval None
  */
void TSL_tim_ProcessIT(void)
{
 8004968:	b580      	push	{r7, lr}
 800496a:	af00      	add	r7, sp, #0
  static TSL_tTick_ms_T count_1s = 0;

  // Count 1 global tick every xxx ms (defined by TSLPRM_TICK_FREQ parameter)
  TSL_Globals.Tick_ms++;
 800496c:	4b11      	ldr	r3, [pc, #68]	; (80049b4 <TSL_tim_ProcessIT+0x4c>)
 800496e:	881b      	ldrh	r3, [r3, #0]
 8004970:	3301      	adds	r3, #1
 8004972:	b29a      	uxth	r2, r3
 8004974:	4b0f      	ldr	r3, [pc, #60]	; (80049b4 <TSL_tim_ProcessIT+0x4c>)
 8004976:	801a      	strh	r2, [r3, #0]

  // Check if 1 second has elapsed
  count_1s++;
 8004978:	4b0f      	ldr	r3, [pc, #60]	; (80049b8 <TSL_tim_ProcessIT+0x50>)
 800497a:	881b      	ldrh	r3, [r3, #0]
 800497c:	3301      	adds	r3, #1
 800497e:	b29a      	uxth	r2, r3
 8004980:	4b0d      	ldr	r3, [pc, #52]	; (80049b8 <TSL_tim_ProcessIT+0x50>)
 8004982:	801a      	strh	r2, [r3, #0]
  if (count_1s > (TSLPRM_TICK_FREQ - 1))
 8004984:	4b0c      	ldr	r3, [pc, #48]	; (80049b8 <TSL_tim_ProcessIT+0x50>)
 8004986:	881b      	ldrh	r3, [r3, #0]
 8004988:	4a0c      	ldr	r2, [pc, #48]	; (80049bc <TSL_tim_ProcessIT+0x54>)
 800498a:	4293      	cmp	r3, r2
 800498c:	d90f      	bls.n	80049ae <TSL_tim_ProcessIT+0x46>
  {
    TSL_Globals.Tick_sec++; // 1 global tick every second
 800498e:	4b09      	ldr	r3, [pc, #36]	; (80049b4 <TSL_tim_ProcessIT+0x4c>)
 8004990:	789b      	ldrb	r3, [r3, #2]
 8004992:	3301      	adds	r3, #1
 8004994:	b2da      	uxtb	r2, r3
 8004996:	4b07      	ldr	r3, [pc, #28]	; (80049b4 <TSL_tim_ProcessIT+0x4c>)
 8004998:	709a      	strb	r2, [r3, #2]
    if (TSL_Globals.Tick_sec > 63)  // Due to DTO counter on 6 bits...
 800499a:	4b06      	ldr	r3, [pc, #24]	; (80049b4 <TSL_tim_ProcessIT+0x4c>)
 800499c:	789b      	ldrb	r3, [r3, #2]
 800499e:	2b3f      	cmp	r3, #63	; 0x3f
 80049a0:	d902      	bls.n	80049a8 <TSL_tim_ProcessIT+0x40>
    {
      TSL_Globals.Tick_sec = 0;
 80049a2:	4b04      	ldr	r3, [pc, #16]	; (80049b4 <TSL_tim_ProcessIT+0x4c>)
 80049a4:	2200      	movs	r2, #0
 80049a6:	709a      	strb	r2, [r3, #2]
    }
    count_1s = 0;
 80049a8:	4b03      	ldr	r3, [pc, #12]	; (80049b8 <TSL_tim_ProcessIT+0x50>)
 80049aa:	2200      	movs	r2, #0
 80049ac:	801a      	strh	r2, [r3, #0]
  }
}
 80049ae:	46c0      	nop			; (mov r8, r8)
 80049b0:	46bd      	mov	sp, r7
 80049b2:	bd80      	pop	{r7, pc}
 80049b4:	2000046c 	.word	0x2000046c
 80049b8:	20000044 	.word	0x20000044
 80049bc:	000003e7 	.word	0x000003e7

080049c0 <TSL_tim_CheckDelay_ms>:
  * @param[in] delay_ms  Delay in ms
  * @param[in] last_tick Variable holding the last tick value
  * @retval Status
  */
TSL_Status_enum_T TSL_tim_CheckDelay_ms(TSL_tTick_ms_T delay_ms, __IO TSL_tTick_ms_T *last_tick)
{
 80049c0:	b580      	push	{r7, lr}
 80049c2:	b084      	sub	sp, #16
 80049c4:	af00      	add	r7, sp, #0
 80049c6:	0002      	movs	r2, r0
 80049c8:	6039      	str	r1, [r7, #0]
 80049ca:	1dbb      	adds	r3, r7, #6
 80049cc:	801a      	strh	r2, [r3, #0]
  TSL_tTick_ms_T tick;
  TSL_tTick_ms_T diff;

  disableInterrupts();
 80049ce:	4b29      	ldr	r3, [pc, #164]	; (8004a74 <TSL_tim_CheckDelay_ms+0xb4>)
 80049d0:	4a28      	ldr	r2, [pc, #160]	; (8004a74 <TSL_tim_CheckDelay_ms+0xb4>)
 80049d2:	6812      	ldr	r2, [r2, #0]
 80049d4:	2102      	movs	r1, #2
 80049d6:	438a      	bics	r2, r1
 80049d8:	601a      	str	r2, [r3, #0]

  tick = TSL_Globals.Tick_ms;
 80049da:	230c      	movs	r3, #12
 80049dc:	18fb      	adds	r3, r7, r3
 80049de:	4a26      	ldr	r2, [pc, #152]	; (8004a78 <TSL_tim_CheckDelay_ms+0xb8>)
 80049e0:	8812      	ldrh	r2, [r2, #0]
 80049e2:	801a      	strh	r2, [r3, #0]

  if (delay_ms == 0)
 80049e4:	1dbb      	adds	r3, r7, #6
 80049e6:	881b      	ldrh	r3, [r3, #0]
 80049e8:	2b00      	cmp	r3, #0
 80049ea:	d107      	bne.n	80049fc <TSL_tim_CheckDelay_ms+0x3c>
  {
    enableInterrupts();
 80049ec:	4b21      	ldr	r3, [pc, #132]	; (8004a74 <TSL_tim_CheckDelay_ms+0xb4>)
 80049ee:	4a21      	ldr	r2, [pc, #132]	; (8004a74 <TSL_tim_CheckDelay_ms+0xb4>)
 80049f0:	6812      	ldr	r2, [r2, #0]
 80049f2:	2102      	movs	r1, #2
 80049f4:	430a      	orrs	r2, r1
 80049f6:	601a      	str	r2, [r3, #0]
    return TSL_STATUS_ERROR;
 80049f8:	2302      	movs	r3, #2
 80049fa:	e037      	b.n	8004a6c <TSL_tim_CheckDelay_ms+0xac>
  }

  // Counter Roll-over management
  if (tick >= *last_tick)
 80049fc:	683b      	ldr	r3, [r7, #0]
 80049fe:	881b      	ldrh	r3, [r3, #0]
 8004a00:	b29b      	uxth	r3, r3
 8004a02:	220c      	movs	r2, #12
 8004a04:	18ba      	adds	r2, r7, r2
 8004a06:	8812      	ldrh	r2, [r2, #0]
 8004a08:	429a      	cmp	r2, r3
 8004a0a:	d30a      	bcc.n	8004a22 <TSL_tim_CheckDelay_ms+0x62>
  {
    diff = tick - *last_tick;
 8004a0c:	683b      	ldr	r3, [r7, #0]
 8004a0e:	881b      	ldrh	r3, [r3, #0]
 8004a10:	b29a      	uxth	r2, r3
 8004a12:	230e      	movs	r3, #14
 8004a14:	18fb      	adds	r3, r7, r3
 8004a16:	210c      	movs	r1, #12
 8004a18:	1879      	adds	r1, r7, r1
 8004a1a:	8809      	ldrh	r1, [r1, #0]
 8004a1c:	1a8a      	subs	r2, r1, r2
 8004a1e:	801a      	strh	r2, [r3, #0]
 8004a20:	e009      	b.n	8004a36 <TSL_tim_CheckDelay_ms+0x76>
  }
  else
  {
    diff = (0xFFFF - *last_tick) + tick + 1;
 8004a22:	683b      	ldr	r3, [r7, #0]
 8004a24:	881b      	ldrh	r3, [r3, #0]
 8004a26:	b29a      	uxth	r2, r3
 8004a28:	230e      	movs	r3, #14
 8004a2a:	18fb      	adds	r3, r7, r3
 8004a2c:	210c      	movs	r1, #12
 8004a2e:	1879      	adds	r1, r7, r1
 8004a30:	8809      	ldrh	r1, [r1, #0]
 8004a32:	1a8a      	subs	r2, r1, r2
 8004a34:	801a      	strh	r2, [r3, #0]
#endif
#if (TSLPRM_TICK_FREQ == 500)
  if (diff >= (TSL_tTick_ms_T)(delay_ms >> 1)) // Divide by 2 for 2ms tick
#endif
#if (TSLPRM_TICK_FREQ == 1000)
  if (diff >= (TSL_tTick_ms_T)delay_ms) // Direct value for 1ms tick
 8004a36:	230e      	movs	r3, #14
 8004a38:	18fa      	adds	r2, r7, r3
 8004a3a:	1dbb      	adds	r3, r7, #6
 8004a3c:	8812      	ldrh	r2, [r2, #0]
 8004a3e:	881b      	ldrh	r3, [r3, #0]
 8004a40:	429a      	cmp	r2, r3
 8004a42:	d30c      	bcc.n	8004a5e <TSL_tim_CheckDelay_ms+0x9e>
#if (TSLPRM_TICK_FREQ == 2000)
  if (diff >= (TSL_tTick_ms_T)(delay_ms << 1)) // Multiply by 2 for 0.5ms tick
#endif
  {
    // Save current time
    *last_tick = tick;
 8004a44:	683b      	ldr	r3, [r7, #0]
 8004a46:	220c      	movs	r2, #12
 8004a48:	18ba      	adds	r2, r7, r2
 8004a4a:	8812      	ldrh	r2, [r2, #0]
 8004a4c:	801a      	strh	r2, [r3, #0]
    enableInterrupts();
 8004a4e:	4b09      	ldr	r3, [pc, #36]	; (8004a74 <TSL_tim_CheckDelay_ms+0xb4>)
 8004a50:	4a08      	ldr	r2, [pc, #32]	; (8004a74 <TSL_tim_CheckDelay_ms+0xb4>)
 8004a52:	6812      	ldr	r2, [r2, #0]
 8004a54:	2102      	movs	r1, #2
 8004a56:	430a      	orrs	r2, r1
 8004a58:	601a      	str	r2, [r3, #0]
    return TSL_STATUS_OK;
 8004a5a:	2300      	movs	r3, #0
 8004a5c:	e006      	b.n	8004a6c <TSL_tim_CheckDelay_ms+0xac>
  }

  enableInterrupts();
 8004a5e:	4b05      	ldr	r3, [pc, #20]	; (8004a74 <TSL_tim_CheckDelay_ms+0xb4>)
 8004a60:	4a04      	ldr	r2, [pc, #16]	; (8004a74 <TSL_tim_CheckDelay_ms+0xb4>)
 8004a62:	6812      	ldr	r2, [r2, #0]
 8004a64:	2102      	movs	r1, #2
 8004a66:	430a      	orrs	r2, r1
 8004a68:	601a      	str	r2, [r3, #0]
  return TSL_STATUS_BUSY;
 8004a6a:	2301      	movs	r3, #1

}
 8004a6c:	0018      	movs	r0, r3
 8004a6e:	46bd      	mov	sp, r7
 8004a70:	b004      	add	sp, #16
 8004a72:	bd80      	pop	{r7, pc}
 8004a74:	e000e010 	.word	0xe000e010
 8004a78:	2000046c 	.word	0x2000046c

08004a7c <TSL_tim_CheckDelay_sec>:
  * @param[in] delay_sec  Delay in seconds
  * @param[in] last_tick Variable holding the last tick value
  * @retval Status
  */
TSL_Status_enum_T TSL_tim_CheckDelay_sec(TSL_tTick_sec_T delay_sec, __IO TSL_tTick_sec_T *last_tick)
{
 8004a7c:	b580      	push	{r7, lr}
 8004a7e:	b084      	sub	sp, #16
 8004a80:	af00      	add	r7, sp, #0
 8004a82:	0002      	movs	r2, r0
 8004a84:	6039      	str	r1, [r7, #0]
 8004a86:	1dfb      	adds	r3, r7, #7
 8004a88:	701a      	strb	r2, [r3, #0]
  TSL_tTick_sec_T tick;
  TSL_tTick_sec_T diff;

  disableInterrupts();
 8004a8a:	4b2a      	ldr	r3, [pc, #168]	; (8004b34 <TSL_tim_CheckDelay_sec+0xb8>)
 8004a8c:	4a29      	ldr	r2, [pc, #164]	; (8004b34 <TSL_tim_CheckDelay_sec+0xb8>)
 8004a8e:	6812      	ldr	r2, [r2, #0]
 8004a90:	2102      	movs	r1, #2
 8004a92:	438a      	bics	r2, r1
 8004a94:	601a      	str	r2, [r3, #0]

  tick = TSL_Globals.Tick_sec;
 8004a96:	230e      	movs	r3, #14
 8004a98:	18fb      	adds	r3, r7, r3
 8004a9a:	4a27      	ldr	r2, [pc, #156]	; (8004b38 <TSL_tim_CheckDelay_sec+0xbc>)
 8004a9c:	7892      	ldrb	r2, [r2, #2]
 8004a9e:	701a      	strb	r2, [r3, #0]

  if (delay_sec == 0)
 8004aa0:	1dfb      	adds	r3, r7, #7
 8004aa2:	781b      	ldrb	r3, [r3, #0]
 8004aa4:	2b00      	cmp	r3, #0
 8004aa6:	d107      	bne.n	8004ab8 <TSL_tim_CheckDelay_sec+0x3c>
  {
    enableInterrupts();
 8004aa8:	4b22      	ldr	r3, [pc, #136]	; (8004b34 <TSL_tim_CheckDelay_sec+0xb8>)
 8004aaa:	4a22      	ldr	r2, [pc, #136]	; (8004b34 <TSL_tim_CheckDelay_sec+0xb8>)
 8004aac:	6812      	ldr	r2, [r2, #0]
 8004aae:	2102      	movs	r1, #2
 8004ab0:	430a      	orrs	r2, r1
 8004ab2:	601a      	str	r2, [r3, #0]
    return TSL_STATUS_ERROR;
 8004ab4:	2302      	movs	r3, #2
 8004ab6:	e039      	b.n	8004b2c <TSL_tim_CheckDelay_sec+0xb0>
  }

  // Counter Roll-over management
  if (tick >= *last_tick)
 8004ab8:	683b      	ldr	r3, [r7, #0]
 8004aba:	781b      	ldrb	r3, [r3, #0]
 8004abc:	b2db      	uxtb	r3, r3
 8004abe:	220e      	movs	r2, #14
 8004ac0:	18ba      	adds	r2, r7, r2
 8004ac2:	7812      	ldrb	r2, [r2, #0]
 8004ac4:	429a      	cmp	r2, r3
 8004ac6:	d30a      	bcc.n	8004ade <TSL_tim_CheckDelay_sec+0x62>
  {
    diff = (TSL_tTick_sec_T)(tick - *last_tick);
 8004ac8:	683b      	ldr	r3, [r7, #0]
 8004aca:	781b      	ldrb	r3, [r3, #0]
 8004acc:	b2da      	uxtb	r2, r3
 8004ace:	230f      	movs	r3, #15
 8004ad0:	18fb      	adds	r3, r7, r3
 8004ad2:	210e      	movs	r1, #14
 8004ad4:	1879      	adds	r1, r7, r1
 8004ad6:	7809      	ldrb	r1, [r1, #0]
 8004ad8:	1a8a      	subs	r2, r1, r2
 8004ada:	701a      	strb	r2, [r3, #0]
 8004adc:	e00b      	b.n	8004af6 <TSL_tim_CheckDelay_sec+0x7a>
  }
  else
  {
    diff = (TSL_tTick_sec_T)((63 - *last_tick) + tick + 1); // DTO counter is on 6 bits
 8004ade:	683b      	ldr	r3, [r7, #0]
 8004ae0:	781b      	ldrb	r3, [r3, #0]
 8004ae2:	b2db      	uxtb	r3, r3
 8004ae4:	220e      	movs	r2, #14
 8004ae6:	18ba      	adds	r2, r7, r2
 8004ae8:	7812      	ldrb	r2, [r2, #0]
 8004aea:	1ad3      	subs	r3, r2, r3
 8004aec:	b2da      	uxtb	r2, r3
 8004aee:	230f      	movs	r3, #15
 8004af0:	18fb      	adds	r3, r7, r3
 8004af2:	3240      	adds	r2, #64	; 0x40
 8004af4:	701a      	strb	r2, [r3, #0]
  }

  if (diff >= delay_sec)
 8004af6:	230f      	movs	r3, #15
 8004af8:	18fa      	adds	r2, r7, r3
 8004afa:	1dfb      	adds	r3, r7, #7
 8004afc:	7812      	ldrb	r2, [r2, #0]
 8004afe:	781b      	ldrb	r3, [r3, #0]
 8004b00:	429a      	cmp	r2, r3
 8004b02:	d30c      	bcc.n	8004b1e <TSL_tim_CheckDelay_sec+0xa2>
  {
    // Save current time
    *last_tick = tick;
 8004b04:	683b      	ldr	r3, [r7, #0]
 8004b06:	220e      	movs	r2, #14
 8004b08:	18ba      	adds	r2, r7, r2
 8004b0a:	7812      	ldrb	r2, [r2, #0]
 8004b0c:	701a      	strb	r2, [r3, #0]
    enableInterrupts();
 8004b0e:	4b09      	ldr	r3, [pc, #36]	; (8004b34 <TSL_tim_CheckDelay_sec+0xb8>)
 8004b10:	4a08      	ldr	r2, [pc, #32]	; (8004b34 <TSL_tim_CheckDelay_sec+0xb8>)
 8004b12:	6812      	ldr	r2, [r2, #0]
 8004b14:	2102      	movs	r1, #2
 8004b16:	430a      	orrs	r2, r1
 8004b18:	601a      	str	r2, [r3, #0]
    return TSL_STATUS_OK;
 8004b1a:	2300      	movs	r3, #0
 8004b1c:	e006      	b.n	8004b2c <TSL_tim_CheckDelay_sec+0xb0>
  }

  enableInterrupts();
 8004b1e:	4b05      	ldr	r3, [pc, #20]	; (8004b34 <TSL_tim_CheckDelay_sec+0xb8>)
 8004b20:	4a04      	ldr	r2, [pc, #16]	; (8004b34 <TSL_tim_CheckDelay_sec+0xb8>)
 8004b22:	6812      	ldr	r2, [r2, #0]
 8004b24:	2102      	movs	r1, #2
 8004b26:	430a      	orrs	r2, r1
 8004b28:	601a      	str	r2, [r3, #0]
  return TSL_STATUS_BUSY;
 8004b2a:	2301      	movs	r3, #1

}
 8004b2c:	0018      	movs	r0, r3
 8004b2e:	46bd      	mov	sp, r7
 8004b30:	b004      	add	sp, #16
 8004b32:	bd80      	pop	{r7, pc}
 8004b34:	e000e010 	.word	0xe000e010
 8004b38:	2000046c 	.word	0x2000046c

08004b3c <TSL_tkey_Init>:
  * @brief  Init parameters with default values from configuration file
  * @param  None
  * @retval None
  */
void TSL_tkey_Init(void)
{
 8004b3c:	b580      	push	{r7, lr}
 8004b3e:	af00      	add	r7, sp, #0
  // Thresholds
#if TSLPRM_USE_PROX > 0
  THIS_PROXIN_TH    = TSLPRM_TKEY_PROX_IN_TH;
 8004b40:	4b1b      	ldr	r3, [pc, #108]	; (8004bb0 <TSL_tkey_Init+0x74>)
 8004b42:	695b      	ldr	r3, [r3, #20]
 8004b44:	685b      	ldr	r3, [r3, #4]
 8004b46:	2214      	movs	r2, #20
 8004b48:	701a      	strb	r2, [r3, #0]
  THIS_PROXOUT_TH   = TSLPRM_TKEY_PROX_OUT_TH;
 8004b4a:	4b19      	ldr	r3, [pc, #100]	; (8004bb0 <TSL_tkey_Init+0x74>)
 8004b4c:	695b      	ldr	r3, [r3, #20]
 8004b4e:	685b      	ldr	r3, [r3, #4]
 8004b50:	220f      	movs	r2, #15
 8004b52:	705a      	strb	r2, [r3, #1]
#endif
  THIS_DETECTIN_TH  = TSLPRM_TKEY_DETECT_IN_TH;
 8004b54:	4b16      	ldr	r3, [pc, #88]	; (8004bb0 <TSL_tkey_Init+0x74>)
 8004b56:	695b      	ldr	r3, [r3, #20]
 8004b58:	685b      	ldr	r3, [r3, #4]
 8004b5a:	221e      	movs	r2, #30
 8004b5c:	709a      	strb	r2, [r3, #2]
  THIS_DETECTOUT_TH = TSLPRM_TKEY_DETECT_OUT_TH;
 8004b5e:	4b14      	ldr	r3, [pc, #80]	; (8004bb0 <TSL_tkey_Init+0x74>)
 8004b60:	695b      	ldr	r3, [r3, #20]
 8004b62:	685b      	ldr	r3, [r3, #4]
 8004b64:	2216      	movs	r2, #22
 8004b66:	70da      	strb	r2, [r3, #3]
  THIS_CALIB_TH     = TSLPRM_TKEY_CALIB_TH;
 8004b68:	4b11      	ldr	r3, [pc, #68]	; (8004bb0 <TSL_tkey_Init+0x74>)
 8004b6a:	695b      	ldr	r3, [r3, #20]
 8004b6c:	685b      	ldr	r3, [r3, #4]
 8004b6e:	2205      	movs	r2, #5
 8004b70:	711a      	strb	r2, [r3, #4]

  // Debounce counters
  THIS_COUNTER_DEB_CALIB   = TSLPRM_DEBOUNCE_CALIB;
 8004b72:	4b0f      	ldr	r3, [pc, #60]	; (8004bb0 <TSL_tkey_Init+0x74>)
 8004b74:	695b      	ldr	r3, [r3, #20]
 8004b76:	685b      	ldr	r3, [r3, #4]
 8004b78:	2203      	movs	r2, #3
 8004b7a:	715a      	strb	r2, [r3, #5]
#if TSLPRM_USE_PROX > 0
  THIS_COUNTER_DEB_PROX    = TSLPRM_DEBOUNCE_PROX;
 8004b7c:	4b0c      	ldr	r3, [pc, #48]	; (8004bb0 <TSL_tkey_Init+0x74>)
 8004b7e:	695b      	ldr	r3, [r3, #20]
 8004b80:	685b      	ldr	r3, [r3, #4]
 8004b82:	2203      	movs	r2, #3
 8004b84:	719a      	strb	r2, [r3, #6]
#endif
  THIS_COUNTER_DEB_DETECT  = TSLPRM_DEBOUNCE_DETECT;
 8004b86:	4b0a      	ldr	r3, [pc, #40]	; (8004bb0 <TSL_tkey_Init+0x74>)
 8004b88:	695b      	ldr	r3, [r3, #20]
 8004b8a:	685b      	ldr	r3, [r3, #4]
 8004b8c:	2203      	movs	r2, #3
 8004b8e:	71da      	strb	r2, [r3, #7]
  THIS_COUNTER_DEB_RELEASE = TSLPRM_DEBOUNCE_RELEASE;
 8004b90:	4b07      	ldr	r3, [pc, #28]	; (8004bb0 <TSL_tkey_Init+0x74>)
 8004b92:	695b      	ldr	r3, [r3, #20]
 8004b94:	685b      	ldr	r3, [r3, #4]
 8004b96:	2203      	movs	r2, #3
 8004b98:	721a      	strb	r2, [r3, #8]
  THIS_COUNTER_DEB_ERROR   = TSLPRM_DEBOUNCE_ERROR;
 8004b9a:	4b05      	ldr	r3, [pc, #20]	; (8004bb0 <TSL_tkey_Init+0x74>)
 8004b9c:	695b      	ldr	r3, [r3, #20]
 8004b9e:	685b      	ldr	r3, [r3, #4]
 8004ba0:	2203      	movs	r2, #3
 8004ba2:	725a      	strb	r2, [r3, #9]

  // Initial state
  TSL_tkey_SetStateCalibration(TSLPRM_CALIB_DELAY);
 8004ba4:	2000      	movs	r0, #0
 8004ba6:	f000 f853 	bl	8004c50 <TSL_tkey_SetStateCalibration>
}
 8004baa:	46c0      	nop			; (mov r8, r8)
 8004bac:	46bd      	mov	sp, r7
 8004bae:	bd80      	pop	{r7, pc}
 8004bb0:	2000046c 	.word	0x2000046c

08004bb4 <TSL_tkey_Process>:
  * @brief  Process the State Machine
  * @param  None
  * @retval None
  */
void TSL_tkey_Process(void)
{
 8004bb4:	b580      	push	{r7, lr}
 8004bb6:	b082      	sub	sp, #8
 8004bb8:	af00      	add	r7, sp, #0
  TSL_StateId_enum_T prev_state_id;

  if ((THIS_DATA_READY != 0) || (THIS_STATEID == TSL_STATEID_OFF))
 8004bba:	4b23      	ldr	r3, [pc, #140]	; (8004c48 <TSL_tkey_Process+0x94>)
 8004bbc:	695b      	ldr	r3, [r3, #20]
 8004bbe:	689b      	ldr	r3, [r3, #8]
 8004bc0:	781b      	ldrb	r3, [r3, #0]
 8004bc2:	2201      	movs	r2, #1
 8004bc4:	4013      	ands	r3, r2
 8004bc6:	b2db      	uxtb	r3, r3
 8004bc8:	2b00      	cmp	r3, #0
 8004bca:	d105      	bne.n	8004bd8 <TSL_tkey_Process+0x24>
 8004bcc:	4b1e      	ldr	r3, [pc, #120]	; (8004c48 <TSL_tkey_Process+0x94>)
 8004bce:	695b      	ldr	r3, [r3, #20]
 8004bd0:	681b      	ldr	r3, [r3, #0]
 8004bd2:	781b      	ldrb	r3, [r3, #0]
 8004bd4:	2b13      	cmp	r3, #19
 8004bd6:	d132      	bne.n	8004c3e <TSL_tkey_Process+0x8a>
  {

    THIS_DATA_READY = TSL_DATA_NOT_READY; // The new data is processed
 8004bd8:	4b1b      	ldr	r3, [pc, #108]	; (8004c48 <TSL_tkey_Process+0x94>)
 8004bda:	695b      	ldr	r3, [r3, #20]
 8004bdc:	689b      	ldr	r3, [r3, #8]
 8004bde:	781a      	ldrb	r2, [r3, #0]
 8004be0:	2101      	movs	r1, #1
 8004be2:	438a      	bics	r2, r1
 8004be4:	701a      	strb	r2, [r3, #0]

    prev_state_id = THIS_STATEID;
 8004be6:	4b18      	ldr	r3, [pc, #96]	; (8004c48 <TSL_tkey_Process+0x94>)
 8004be8:	695b      	ldr	r3, [r3, #20]
 8004bea:	681a      	ldr	r2, [r3, #0]
 8004bec:	1dfb      	adds	r3, r7, #7
 8004bee:	7812      	ldrb	r2, [r2, #0]
 8004bf0:	701a      	strb	r2, [r3, #0]
      TSL_Globals.This_TKey->p_SM[THIS_STATEID].StateFunc();
    }
#endif

#if TSLPRM_TOTAL_TOUCHKEYS_B > 0
    if (TSL_Globals.This_Obj->Type == TSL_OBJ_TOUCHKEYB)
 8004bf2:	4b15      	ldr	r3, [pc, #84]	; (8004c48 <TSL_tkey_Process+0x94>)
 8004bf4:	68db      	ldr	r3, [r3, #12]
 8004bf6:	781b      	ldrb	r3, [r3, #0]
 8004bf8:	2b11      	cmp	r3, #17
 8004bfa:	d109      	bne.n	8004c10 <TSL_tkey_Process+0x5c>
    {
      // Launch the TSL_Params state function
      TSL_Params.p_TKeySM[THIS_STATEID].StateFunc();
 8004bfc:	4b13      	ldr	r3, [pc, #76]	; (8004c4c <TSL_tkey_Process+0x98>)
 8004bfe:	689a      	ldr	r2, [r3, #8]
 8004c00:	4b11      	ldr	r3, [pc, #68]	; (8004c48 <TSL_tkey_Process+0x94>)
 8004c02:	695b      	ldr	r3, [r3, #20]
 8004c04:	681b      	ldr	r3, [r3, #0]
 8004c06:	781b      	ldrb	r3, [r3, #0]
 8004c08:	00db      	lsls	r3, r3, #3
 8004c0a:	18d3      	adds	r3, r2, r3
 8004c0c:	685b      	ldr	r3, [r3, #4]
 8004c0e:	4798      	blx	r3
    }
#endif

    // Check if the new state has changed
    if (THIS_STATEID == prev_state_id)
 8004c10:	4b0d      	ldr	r3, [pc, #52]	; (8004c48 <TSL_tkey_Process+0x94>)
 8004c12:	695b      	ldr	r3, [r3, #20]
 8004c14:	681b      	ldr	r3, [r3, #0]
 8004c16:	781b      	ldrb	r3, [r3, #0]
 8004c18:	1dfa      	adds	r2, r7, #7
 8004c1a:	7812      	ldrb	r2, [r2, #0]
 8004c1c:	429a      	cmp	r2, r3
 8004c1e:	d107      	bne.n	8004c30 <TSL_tkey_Process+0x7c>
    {
      THIS_CHANGE = TSL_STATE_NOT_CHANGED;
 8004c20:	4b09      	ldr	r3, [pc, #36]	; (8004c48 <TSL_tkey_Process+0x94>)
 8004c22:	695b      	ldr	r3, [r3, #20]
 8004c24:	681b      	ldr	r3, [r3, #0]
 8004c26:	789a      	ldrb	r2, [r3, #2]
 8004c28:	2140      	movs	r1, #64	; 0x40
 8004c2a:	438a      	bics	r2, r1
 8004c2c:	709a      	strb	r2, [r3, #2]
      THIS_STATEID = TSL_STATEID_DETECT;
    }
#endif

  }
}
 8004c2e:	e006      	b.n	8004c3e <TSL_tkey_Process+0x8a>
      THIS_CHANGE = TSL_STATE_CHANGED;
 8004c30:	4b05      	ldr	r3, [pc, #20]	; (8004c48 <TSL_tkey_Process+0x94>)
 8004c32:	695b      	ldr	r3, [r3, #20]
 8004c34:	681b      	ldr	r3, [r3, #0]
 8004c36:	789a      	ldrb	r2, [r3, #2]
 8004c38:	2140      	movs	r1, #64	; 0x40
 8004c3a:	430a      	orrs	r2, r1
 8004c3c:	709a      	strb	r2, [r3, #2]
}
 8004c3e:	46c0      	nop			; (mov r8, r8)
 8004c40:	46bd      	mov	sp, r7
 8004c42:	b002      	add	sp, #8
 8004c44:	bd80      	pop	{r7, pc}
 8004c46:	46c0      	nop			; (mov r8, r8)
 8004c48:	2000046c 	.word	0x2000046c
 8004c4c:	20000018 	.word	0x20000018

08004c50 <TSL_tkey_SetStateCalibration>:
  * @brief  Go in Calibration state
  * @param[in] delay Delay before calibration starts (stabilization of noise filter)
  * @retval None
  */
void TSL_tkey_SetStateCalibration(TSL_tCounter_T delay)
{
 8004c50:	b580      	push	{r7, lr}
 8004c52:	b082      	sub	sp, #8
 8004c54:	af00      	add	r7, sp, #0
 8004c56:	0002      	movs	r2, r0
 8004c58:	1dfb      	adds	r3, r7, #7
 8004c5a:	701a      	strb	r2, [r3, #0]
  THIS_STATEID = TSL_STATEID_CALIB;
 8004c5c:	4b1e      	ldr	r3, [pc, #120]	; (8004cd8 <TSL_tkey_SetStateCalibration+0x88>)
 8004c5e:	695b      	ldr	r3, [r3, #20]
 8004c60:	681b      	ldr	r3, [r3, #0]
 8004c62:	2200      	movs	r2, #0
 8004c64:	701a      	strb	r2, [r3, #0]
  THIS_CHANGE = TSL_STATE_CHANGED;
 8004c66:	4b1c      	ldr	r3, [pc, #112]	; (8004cd8 <TSL_tkey_SetStateCalibration+0x88>)
 8004c68:	695b      	ldr	r3, [r3, #20]
 8004c6a:	681b      	ldr	r3, [r3, #0]
 8004c6c:	789a      	ldrb	r2, [r3, #2]
 8004c6e:	2140      	movs	r1, #64	; 0x40
 8004c70:	430a      	orrs	r2, r1
 8004c72:	709a      	strb	r2, [r3, #2]
  THIS_OBJ_STATUS = TSL_OBJ_STATUS_ON;
 8004c74:	4b18      	ldr	r3, [pc, #96]	; (8004cd8 <TSL_tkey_SetStateCalibration+0x88>)
 8004c76:	695b      	ldr	r3, [r3, #20]
 8004c78:	689b      	ldr	r3, [r3, #8]
 8004c7a:	781a      	ldrb	r2, [r3, #0]
 8004c7c:	2118      	movs	r1, #24
 8004c7e:	430a      	orrs	r2, r1
 8004c80:	701a      	strb	r2, [r3, #0]

  switch (TSL_Params.NbCalibSamples)
 8004c82:	4b16      	ldr	r3, [pc, #88]	; (8004cdc <TSL_tkey_SetStateCalibration+0x8c>)
 8004c84:	889b      	ldrh	r3, [r3, #4]
 8004c86:	2b04      	cmp	r3, #4
 8004c88:	d002      	beq.n	8004c90 <TSL_tkey_SetStateCalibration+0x40>
 8004c8a:	2b10      	cmp	r3, #16
 8004c8c:	d004      	beq.n	8004c98 <TSL_tkey_SetStateCalibration+0x48>
 8004c8e:	e007      	b.n	8004ca0 <TSL_tkey_SetStateCalibration+0x50>
  {
    case 4:
      CalibDiv = 2;
 8004c90:	4b13      	ldr	r3, [pc, #76]	; (8004ce0 <TSL_tkey_SetStateCalibration+0x90>)
 8004c92:	2202      	movs	r2, #2
 8004c94:	801a      	strh	r2, [r3, #0]
      break;
 8004c96:	e00a      	b.n	8004cae <TSL_tkey_SetStateCalibration+0x5e>
    case 16:
      CalibDiv = 4;
 8004c98:	4b11      	ldr	r3, [pc, #68]	; (8004ce0 <TSL_tkey_SetStateCalibration+0x90>)
 8004c9a:	2204      	movs	r2, #4
 8004c9c:	801a      	strh	r2, [r3, #0]
      break;
 8004c9e:	e006      	b.n	8004cae <TSL_tkey_SetStateCalibration+0x5e>
    default:
      TSL_Params.NbCalibSamples =  8;
 8004ca0:	4b0e      	ldr	r3, [pc, #56]	; (8004cdc <TSL_tkey_SetStateCalibration+0x8c>)
 8004ca2:	2208      	movs	r2, #8
 8004ca4:	809a      	strh	r2, [r3, #4]
      CalibDiv = 3;
 8004ca6:	4b0e      	ldr	r3, [pc, #56]	; (8004ce0 <TSL_tkey_SetStateCalibration+0x90>)
 8004ca8:	2203      	movs	r2, #3
 8004caa:	801a      	strh	r2, [r3, #0]
      break;
 8004cac:	46c0      	nop			; (mov r8, r8)
  }

  // If a noise filter is used, the counter must be initialized to a value
  // different from 0 in order to stabilize the filter.
  THIS_COUNTER_DEB = (TSL_tCounter_T)(delay + (TSL_tCounter_T)TSL_Params.NbCalibSamples);
 8004cae:	4b0a      	ldr	r3, [pc, #40]	; (8004cd8 <TSL_tkey_SetStateCalibration+0x88>)
 8004cb0:	695b      	ldr	r3, [r3, #20]
 8004cb2:	681b      	ldr	r3, [r3, #0]
 8004cb4:	4a09      	ldr	r2, [pc, #36]	; (8004cdc <TSL_tkey_SetStateCalibration+0x8c>)
 8004cb6:	8892      	ldrh	r2, [r2, #4]
 8004cb8:	b2d1      	uxtb	r1, r2
 8004cba:	1dfa      	adds	r2, r7, #7
 8004cbc:	7812      	ldrb	r2, [r2, #0]
 8004cbe:	188a      	adds	r2, r1, r2
 8004cc0:	b2d2      	uxtb	r2, r2
 8004cc2:	705a      	strb	r2, [r3, #1]
  THIS_REF = 0;
 8004cc4:	4b04      	ldr	r3, [pc, #16]	; (8004cd8 <TSL_tkey_SetStateCalibration+0x88>)
 8004cc6:	695b      	ldr	r3, [r3, #20]
 8004cc8:	689b      	ldr	r3, [r3, #8]
 8004cca:	2200      	movs	r2, #0
 8004ccc:	809a      	strh	r2, [r3, #4]
}
 8004cce:	46c0      	nop			; (mov r8, r8)
 8004cd0:	46bd      	mov	sp, r7
 8004cd2:	b002      	add	sp, #8
 8004cd4:	bd80      	pop	{r7, pc}
 8004cd6:	46c0      	nop			; (mov r8, r8)
 8004cd8:	2000046c 	.word	0x2000046c
 8004cdc:	20000018 	.word	0x20000018
 8004ce0:	20000046 	.word	0x20000046

08004ce4 <TSL_tkey_GetStateMask>:
  * @brief  Return the current state mask
  * @param  None
  * @retval State mask
  */
TSL_StateMask_enum_T TSL_tkey_GetStateMask(void)
{
 8004ce4:	b580      	push	{r7, lr}
 8004ce6:	b082      	sub	sp, #8
 8004ce8:	af00      	add	r7, sp, #0
  TSL_StateMask_enum_T state_mask = TSL_STATEMASK_UNKNOWN;
 8004cea:	1dfb      	adds	r3, r7, #7
 8004cec:	2200      	movs	r2, #0
 8004cee:	701a      	strb	r2, [r3, #0]
    state_mask = TSL_Globals.This_TKey->p_SM[THIS_STATEID].StateMask;
  }
#endif

#if TSLPRM_TOTAL_TOUCHKEYS_B > 0
  if (TSL_Globals.This_Obj->Type == TSL_OBJ_TOUCHKEYB)
 8004cf0:	4b0a      	ldr	r3, [pc, #40]	; (8004d1c <TSL_tkey_GetStateMask+0x38>)
 8004cf2:	68db      	ldr	r3, [r3, #12]
 8004cf4:	781b      	ldrb	r3, [r3, #0]
 8004cf6:	2b11      	cmp	r3, #17
 8004cf8:	d10a      	bne.n	8004d10 <TSL_tkey_GetStateMask+0x2c>
  {
    state_mask = TSL_Params.p_TKeySM[THIS_STATEID].StateMask;
 8004cfa:	4b09      	ldr	r3, [pc, #36]	; (8004d20 <TSL_tkey_GetStateMask+0x3c>)
 8004cfc:	689a      	ldr	r2, [r3, #8]
 8004cfe:	4b07      	ldr	r3, [pc, #28]	; (8004d1c <TSL_tkey_GetStateMask+0x38>)
 8004d00:	695b      	ldr	r3, [r3, #20]
 8004d02:	681b      	ldr	r3, [r3, #0]
 8004d04:	781b      	ldrb	r3, [r3, #0]
 8004d06:	00db      	lsls	r3, r3, #3
 8004d08:	18d2      	adds	r2, r2, r3
 8004d0a:	1dfb      	adds	r3, r7, #7
 8004d0c:	7812      	ldrb	r2, [r2, #0]
 8004d0e:	701a      	strb	r2, [r3, #0]
  }
#endif

  return state_mask;
 8004d10:	1dfb      	adds	r3, r7, #7
 8004d12:	781b      	ldrb	r3, [r3, #0]
}
 8004d14:	0018      	movs	r0, r3
 8004d16:	46bd      	mov	sp, r7
 8004d18:	b002      	add	sp, #8
 8004d1a:	bd80      	pop	{r7, pc}
 8004d1c:	2000046c 	.word	0x2000046c
 8004d20:	20000018 	.word	0x20000018

08004d24 <TSL_tkey_DebReleaseProxStateProcess>:
  * @brief  Debounce Release processing (previous state = Proximity)
  * @param  None
  * @retval None
  */
void TSL_tkey_DebReleaseProxStateProcess(void)
{
 8004d24:	b580      	push	{r7, lr}
 8004d26:	af00      	add	r7, sp, #0
  if (THIS_ACQ_STATUS & TSL_ACQ_STATUS_ERROR_MASK) // Acquisition error (min or max)
 8004d28:	4b1e      	ldr	r3, [pc, #120]	; (8004da4 <TSL_tkey_DebReleaseProxStateProcess+0x80>)
 8004d2a:	695b      	ldr	r3, [r3, #20]
 8004d2c:	689b      	ldr	r3, [r3, #8]
 8004d2e:	781b      	ldrb	r3, [r3, #0]
 8004d30:	075b      	lsls	r3, r3, #29
 8004d32:	0f9b      	lsrs	r3, r3, #30
 8004d34:	b2db      	uxtb	r3, r3
 8004d36:	001a      	movs	r2, r3
 8004d38:	2302      	movs	r3, #2
 8004d3a:	4013      	ands	r3, r2
 8004d3c:	d005      	beq.n	8004d4a <TSL_tkey_DebReleaseProxStateProcess+0x26>
  {
    THIS_STATEID = TSL_STATEID_PROX; // Go back to the previous state
 8004d3e:	4b19      	ldr	r3, [pc, #100]	; (8004da4 <TSL_tkey_DebReleaseProxStateProcess+0x80>)
 8004d40:	695b      	ldr	r3, [r3, #20]
 8004d42:	681b      	ldr	r3, [r3, #0]
 8004d44:	2206      	movs	r2, #6
 8004d46:	701a      	strb	r2, [r3, #0]
        THIS_STATEID = TSL_STATEID_RELEASE;
      }
      // else stay in Debounce Release
    }
  }
}
 8004d48:	e029      	b.n	8004d9e <TSL_tkey_DebReleaseProxStateProcess+0x7a>
    if (THIS_DELTA > THIS_PROXOUT_TH)
 8004d4a:	4b16      	ldr	r3, [pc, #88]	; (8004da4 <TSL_tkey_DebReleaseProxStateProcess+0x80>)
 8004d4c:	695b      	ldr	r3, [r3, #20]
 8004d4e:	689b      	ldr	r3, [r3, #8]
 8004d50:	2208      	movs	r2, #8
 8004d52:	5e9b      	ldrsh	r3, [r3, r2]
 8004d54:	001a      	movs	r2, r3
 8004d56:	4b13      	ldr	r3, [pc, #76]	; (8004da4 <TSL_tkey_DebReleaseProxStateProcess+0x80>)
 8004d58:	695b      	ldr	r3, [r3, #20]
 8004d5a:	685b      	ldr	r3, [r3, #4]
 8004d5c:	785b      	ldrb	r3, [r3, #1]
 8004d5e:	429a      	cmp	r2, r3
 8004d60:	dd05      	ble.n	8004d6e <TSL_tkey_DebReleaseProxStateProcess+0x4a>
      THIS_STATEID = TSL_STATEID_PROX; // Go back to the previous state
 8004d62:	4b10      	ldr	r3, [pc, #64]	; (8004da4 <TSL_tkey_DebReleaseProxStateProcess+0x80>)
 8004d64:	695b      	ldr	r3, [r3, #20]
 8004d66:	681b      	ldr	r3, [r3, #0]
 8004d68:	2206      	movs	r2, #6
 8004d6a:	701a      	strb	r2, [r3, #0]
}
 8004d6c:	e017      	b.n	8004d9e <TSL_tkey_DebReleaseProxStateProcess+0x7a>
      if (THIS_COUNTER_DEB > 0) {THIS_COUNTER_DEB--;}
 8004d6e:	4b0d      	ldr	r3, [pc, #52]	; (8004da4 <TSL_tkey_DebReleaseProxStateProcess+0x80>)
 8004d70:	695b      	ldr	r3, [r3, #20]
 8004d72:	681b      	ldr	r3, [r3, #0]
 8004d74:	785b      	ldrb	r3, [r3, #1]
 8004d76:	2b00      	cmp	r3, #0
 8004d78:	d006      	beq.n	8004d88 <TSL_tkey_DebReleaseProxStateProcess+0x64>
 8004d7a:	4b0a      	ldr	r3, [pc, #40]	; (8004da4 <TSL_tkey_DebReleaseProxStateProcess+0x80>)
 8004d7c:	695b      	ldr	r3, [r3, #20]
 8004d7e:	681b      	ldr	r3, [r3, #0]
 8004d80:	785a      	ldrb	r2, [r3, #1]
 8004d82:	3a01      	subs	r2, #1
 8004d84:	b2d2      	uxtb	r2, r2
 8004d86:	705a      	strb	r2, [r3, #1]
      if (THIS_COUNTER_DEB == 0)
 8004d88:	4b06      	ldr	r3, [pc, #24]	; (8004da4 <TSL_tkey_DebReleaseProxStateProcess+0x80>)
 8004d8a:	695b      	ldr	r3, [r3, #20]
 8004d8c:	681b      	ldr	r3, [r3, #0]
 8004d8e:	785b      	ldrb	r3, [r3, #1]
 8004d90:	2b00      	cmp	r3, #0
 8004d92:	d104      	bne.n	8004d9e <TSL_tkey_DebReleaseProxStateProcess+0x7a>
        THIS_STATEID = TSL_STATEID_RELEASE;
 8004d94:	4b03      	ldr	r3, [pc, #12]	; (8004da4 <TSL_tkey_DebReleaseProxStateProcess+0x80>)
 8004d96:	695b      	ldr	r3, [r3, #20]
 8004d98:	681b      	ldr	r3, [r3, #0]
 8004d9a:	2202      	movs	r2, #2
 8004d9c:	701a      	strb	r2, [r3, #0]
}
 8004d9e:	46c0      	nop			; (mov r8, r8)
 8004da0:	46bd      	mov	sp, r7
 8004da2:	bd80      	pop	{r7, pc}
 8004da4:	2000046c 	.word	0x2000046c

08004da8 <TSL_tkey_DebReleaseDetectStateProcess>:
  * @brief  Debounce Release processing (previous state = Detect)
  * @param  None
  * @retval None
  */
void TSL_tkey_DebReleaseDetectStateProcess(void)
{
 8004da8:	b580      	push	{r7, lr}
 8004daa:	af00      	add	r7, sp, #0
  if (THIS_ACQ_STATUS & TSL_ACQ_STATUS_ERROR_MASK) // Acquisition error (min or max)
 8004dac:	4b27      	ldr	r3, [pc, #156]	; (8004e4c <TSL_tkey_DebReleaseDetectStateProcess+0xa4>)
 8004dae:	695b      	ldr	r3, [r3, #20]
 8004db0:	689b      	ldr	r3, [r3, #8]
 8004db2:	781b      	ldrb	r3, [r3, #0]
 8004db4:	075b      	lsls	r3, r3, #29
 8004db6:	0f9b      	lsrs	r3, r3, #30
 8004db8:	b2db      	uxtb	r3, r3
 8004dba:	001a      	movs	r2, r3
 8004dbc:	2302      	movs	r3, #2
 8004dbe:	4013      	ands	r3, r2
 8004dc0:	d005      	beq.n	8004dce <TSL_tkey_DebReleaseDetectStateProcess+0x26>
  {
    THIS_STATEID = TSL_STATEID_DETECT; // Go back to the previous state
 8004dc2:	4b22      	ldr	r3, [pc, #136]	; (8004e4c <TSL_tkey_DebReleaseDetectStateProcess+0xa4>)
 8004dc4:	695b      	ldr	r3, [r3, #20]
 8004dc6:	681b      	ldr	r3, [r3, #0]
 8004dc8:	220a      	movs	r2, #10
 8004dca:	701a      	strb	r2, [r3, #0]
 8004dcc:	e03b      	b.n	8004e46 <TSL_tkey_DebReleaseDetectStateProcess+0x9e>
  }
  else // Acquisition is OK or has NOISE
  {
    if TEST_DELTA(>, THIS_DETECTOUT_TH)
 8004dce:	4b1f      	ldr	r3, [pc, #124]	; (8004e4c <TSL_tkey_DebReleaseDetectStateProcess+0xa4>)
 8004dd0:	695b      	ldr	r3, [r3, #20]
 8004dd2:	689b      	ldr	r3, [r3, #8]
 8004dd4:	2208      	movs	r2, #8
 8004dd6:	5e9b      	ldrsh	r3, [r3, r2]
 8004dd8:	001a      	movs	r2, r3
 8004dda:	4b1c      	ldr	r3, [pc, #112]	; (8004e4c <TSL_tkey_DebReleaseDetectStateProcess+0xa4>)
 8004ddc:	695b      	ldr	r3, [r3, #20]
 8004dde:	685b      	ldr	r3, [r3, #4]
 8004de0:	78db      	ldrb	r3, [r3, #3]
 8004de2:	429a      	cmp	r2, r3
 8004de4:	dd05      	ble.n	8004df2 <TSL_tkey_DebReleaseDetectStateProcess+0x4a>
    {
      TEST_DELTA_NEGATIVE;
      THIS_STATEID = TSL_STATEID_DETECT;
 8004de6:	4b19      	ldr	r3, [pc, #100]	; (8004e4c <TSL_tkey_DebReleaseDetectStateProcess+0xa4>)
 8004de8:	695b      	ldr	r3, [r3, #20]
 8004dea:	681b      	ldr	r3, [r3, #0]
 8004dec:	220a      	movs	r2, #10
 8004dee:	701a      	strb	r2, [r3, #0]
 8004df0:	e029      	b.n	8004e46 <TSL_tkey_DebReleaseDetectStateProcess+0x9e>
    }
    else
    {
#if TSLPRM_USE_PROX > 0
      if (THIS_DELTA > THIS_PROXOUT_TH)
 8004df2:	4b16      	ldr	r3, [pc, #88]	; (8004e4c <TSL_tkey_DebReleaseDetectStateProcess+0xa4>)
 8004df4:	695b      	ldr	r3, [r3, #20]
 8004df6:	689b      	ldr	r3, [r3, #8]
 8004df8:	2208      	movs	r2, #8
 8004dfa:	5e9b      	ldrsh	r3, [r3, r2]
 8004dfc:	001a      	movs	r2, r3
 8004dfe:	4b13      	ldr	r3, [pc, #76]	; (8004e4c <TSL_tkey_DebReleaseDetectStateProcess+0xa4>)
 8004e00:	695b      	ldr	r3, [r3, #20]
 8004e02:	685b      	ldr	r3, [r3, #4]
 8004e04:	785b      	ldrb	r3, [r3, #1]
 8004e06:	429a      	cmp	r2, r3
 8004e08:	dd05      	ble.n	8004e16 <TSL_tkey_DebReleaseDetectStateProcess+0x6e>
      {
        THIS_STATEID = TSL_STATEID_PROX;
 8004e0a:	4b10      	ldr	r3, [pc, #64]	; (8004e4c <TSL_tkey_DebReleaseDetectStateProcess+0xa4>)
 8004e0c:	695b      	ldr	r3, [r3, #20]
 8004e0e:	681b      	ldr	r3, [r3, #0]
 8004e10:	2206      	movs	r2, #6
 8004e12:	701a      	strb	r2, [r3, #0]
        return;
 8004e14:	e017      	b.n	8004e46 <TSL_tkey_DebReleaseDetectStateProcess+0x9e>
      }
#endif
      if (THIS_COUNTER_DEB > 0) {THIS_COUNTER_DEB--;}
 8004e16:	4b0d      	ldr	r3, [pc, #52]	; (8004e4c <TSL_tkey_DebReleaseDetectStateProcess+0xa4>)
 8004e18:	695b      	ldr	r3, [r3, #20]
 8004e1a:	681b      	ldr	r3, [r3, #0]
 8004e1c:	785b      	ldrb	r3, [r3, #1]
 8004e1e:	2b00      	cmp	r3, #0
 8004e20:	d006      	beq.n	8004e30 <TSL_tkey_DebReleaseDetectStateProcess+0x88>
 8004e22:	4b0a      	ldr	r3, [pc, #40]	; (8004e4c <TSL_tkey_DebReleaseDetectStateProcess+0xa4>)
 8004e24:	695b      	ldr	r3, [r3, #20]
 8004e26:	681b      	ldr	r3, [r3, #0]
 8004e28:	785a      	ldrb	r2, [r3, #1]
 8004e2a:	3a01      	subs	r2, #1
 8004e2c:	b2d2      	uxtb	r2, r2
 8004e2e:	705a      	strb	r2, [r3, #1]
      if (THIS_COUNTER_DEB == 0)
 8004e30:	4b06      	ldr	r3, [pc, #24]	; (8004e4c <TSL_tkey_DebReleaseDetectStateProcess+0xa4>)
 8004e32:	695b      	ldr	r3, [r3, #20]
 8004e34:	681b      	ldr	r3, [r3, #0]
 8004e36:	785b      	ldrb	r3, [r3, #1]
 8004e38:	2b00      	cmp	r3, #0
 8004e3a:	d104      	bne.n	8004e46 <TSL_tkey_DebReleaseDetectStateProcess+0x9e>
      {
        THIS_STATEID = TSL_STATEID_RELEASE;
 8004e3c:	4b03      	ldr	r3, [pc, #12]	; (8004e4c <TSL_tkey_DebReleaseDetectStateProcess+0xa4>)
 8004e3e:	695b      	ldr	r3, [r3, #20]
 8004e40:	681b      	ldr	r3, [r3, #0]
 8004e42:	2202      	movs	r2, #2
 8004e44:	701a      	strb	r2, [r3, #0]
      }
      // else stay in Debounce Release
    }
  }
}
 8004e46:	46bd      	mov	sp, r7
 8004e48:	bd80      	pop	{r7, pc}
 8004e4a:	46c0      	nop			; (mov r8, r8)
 8004e4c:	2000046c 	.word	0x2000046c

08004e50 <TSL_tkey_DebReleaseTouchStateProcess>:
  * Same as Debounce Release Detect processing
  * @param  None
  * @retval None
  */
void TSL_tkey_DebReleaseTouchStateProcess(void)
{
 8004e50:	b580      	push	{r7, lr}
 8004e52:	af00      	add	r7, sp, #0
  if (THIS_ACQ_STATUS & TSL_ACQ_STATUS_ERROR_MASK) // Acquisition error (min or max)
 8004e54:	4b27      	ldr	r3, [pc, #156]	; (8004ef4 <TSL_tkey_DebReleaseTouchStateProcess+0xa4>)
 8004e56:	695b      	ldr	r3, [r3, #20]
 8004e58:	689b      	ldr	r3, [r3, #8]
 8004e5a:	781b      	ldrb	r3, [r3, #0]
 8004e5c:	075b      	lsls	r3, r3, #29
 8004e5e:	0f9b      	lsrs	r3, r3, #30
 8004e60:	b2db      	uxtb	r3, r3
 8004e62:	001a      	movs	r2, r3
 8004e64:	2302      	movs	r3, #2
 8004e66:	4013      	ands	r3, r2
 8004e68:	d005      	beq.n	8004e76 <TSL_tkey_DebReleaseTouchStateProcess+0x26>
  {
    THIS_STATEID = TSL_STATEID_TOUCH; // Go back to the previous state
 8004e6a:	4b22      	ldr	r3, [pc, #136]	; (8004ef4 <TSL_tkey_DebReleaseTouchStateProcess+0xa4>)
 8004e6c:	695b      	ldr	r3, [r3, #20]
 8004e6e:	681b      	ldr	r3, [r3, #0]
 8004e70:	220c      	movs	r2, #12
 8004e72:	701a      	strb	r2, [r3, #0]
 8004e74:	e03b      	b.n	8004eee <TSL_tkey_DebReleaseTouchStateProcess+0x9e>
  }
  else // Acquisition is OK or has NOISE
  {
    if TEST_DELTA(>, THIS_DETECTOUT_TH)
 8004e76:	4b1f      	ldr	r3, [pc, #124]	; (8004ef4 <TSL_tkey_DebReleaseTouchStateProcess+0xa4>)
 8004e78:	695b      	ldr	r3, [r3, #20]
 8004e7a:	689b      	ldr	r3, [r3, #8]
 8004e7c:	2208      	movs	r2, #8
 8004e7e:	5e9b      	ldrsh	r3, [r3, r2]
 8004e80:	001a      	movs	r2, r3
 8004e82:	4b1c      	ldr	r3, [pc, #112]	; (8004ef4 <TSL_tkey_DebReleaseTouchStateProcess+0xa4>)
 8004e84:	695b      	ldr	r3, [r3, #20]
 8004e86:	685b      	ldr	r3, [r3, #4]
 8004e88:	78db      	ldrb	r3, [r3, #3]
 8004e8a:	429a      	cmp	r2, r3
 8004e8c:	dd05      	ble.n	8004e9a <TSL_tkey_DebReleaseTouchStateProcess+0x4a>
    {
      TEST_DELTA_NEGATIVE;
      THIS_STATEID = TSL_STATEID_TOUCH;
 8004e8e:	4b19      	ldr	r3, [pc, #100]	; (8004ef4 <TSL_tkey_DebReleaseTouchStateProcess+0xa4>)
 8004e90:	695b      	ldr	r3, [r3, #20]
 8004e92:	681b      	ldr	r3, [r3, #0]
 8004e94:	220c      	movs	r2, #12
 8004e96:	701a      	strb	r2, [r3, #0]
 8004e98:	e029      	b.n	8004eee <TSL_tkey_DebReleaseTouchStateProcess+0x9e>
    }
    else
    {
#if TSLPRM_USE_PROX > 0
      if (THIS_DELTA > THIS_PROXOUT_TH)
 8004e9a:	4b16      	ldr	r3, [pc, #88]	; (8004ef4 <TSL_tkey_DebReleaseTouchStateProcess+0xa4>)
 8004e9c:	695b      	ldr	r3, [r3, #20]
 8004e9e:	689b      	ldr	r3, [r3, #8]
 8004ea0:	2208      	movs	r2, #8
 8004ea2:	5e9b      	ldrsh	r3, [r3, r2]
 8004ea4:	001a      	movs	r2, r3
 8004ea6:	4b13      	ldr	r3, [pc, #76]	; (8004ef4 <TSL_tkey_DebReleaseTouchStateProcess+0xa4>)
 8004ea8:	695b      	ldr	r3, [r3, #20]
 8004eaa:	685b      	ldr	r3, [r3, #4]
 8004eac:	785b      	ldrb	r3, [r3, #1]
 8004eae:	429a      	cmp	r2, r3
 8004eb0:	dd05      	ble.n	8004ebe <TSL_tkey_DebReleaseTouchStateProcess+0x6e>
      {
        THIS_STATEID = TSL_STATEID_PROX;
 8004eb2:	4b10      	ldr	r3, [pc, #64]	; (8004ef4 <TSL_tkey_DebReleaseTouchStateProcess+0xa4>)
 8004eb4:	695b      	ldr	r3, [r3, #20]
 8004eb6:	681b      	ldr	r3, [r3, #0]
 8004eb8:	2206      	movs	r2, #6
 8004eba:	701a      	strb	r2, [r3, #0]
        return;
 8004ebc:	e017      	b.n	8004eee <TSL_tkey_DebReleaseTouchStateProcess+0x9e>
      }
#endif
      if (THIS_COUNTER_DEB > 0) {THIS_COUNTER_DEB--;}
 8004ebe:	4b0d      	ldr	r3, [pc, #52]	; (8004ef4 <TSL_tkey_DebReleaseTouchStateProcess+0xa4>)
 8004ec0:	695b      	ldr	r3, [r3, #20]
 8004ec2:	681b      	ldr	r3, [r3, #0]
 8004ec4:	785b      	ldrb	r3, [r3, #1]
 8004ec6:	2b00      	cmp	r3, #0
 8004ec8:	d006      	beq.n	8004ed8 <TSL_tkey_DebReleaseTouchStateProcess+0x88>
 8004eca:	4b0a      	ldr	r3, [pc, #40]	; (8004ef4 <TSL_tkey_DebReleaseTouchStateProcess+0xa4>)
 8004ecc:	695b      	ldr	r3, [r3, #20]
 8004ece:	681b      	ldr	r3, [r3, #0]
 8004ed0:	785a      	ldrb	r2, [r3, #1]
 8004ed2:	3a01      	subs	r2, #1
 8004ed4:	b2d2      	uxtb	r2, r2
 8004ed6:	705a      	strb	r2, [r3, #1]
      if (THIS_COUNTER_DEB == 0)
 8004ed8:	4b06      	ldr	r3, [pc, #24]	; (8004ef4 <TSL_tkey_DebReleaseTouchStateProcess+0xa4>)
 8004eda:	695b      	ldr	r3, [r3, #20]
 8004edc:	681b      	ldr	r3, [r3, #0]
 8004ede:	785b      	ldrb	r3, [r3, #1]
 8004ee0:	2b00      	cmp	r3, #0
 8004ee2:	d104      	bne.n	8004eee <TSL_tkey_DebReleaseTouchStateProcess+0x9e>
      {
        THIS_STATEID = TSL_STATEID_RELEASE;
 8004ee4:	4b03      	ldr	r3, [pc, #12]	; (8004ef4 <TSL_tkey_DebReleaseTouchStateProcess+0xa4>)
 8004ee6:	695b      	ldr	r3, [r3, #20]
 8004ee8:	681b      	ldr	r3, [r3, #0]
 8004eea:	2202      	movs	r2, #2
 8004eec:	701a      	strb	r2, [r3, #0]
      }
      // else stay in Debounce Release
    }
  }
}
 8004eee:	46bd      	mov	sp, r7
 8004ef0:	bd80      	pop	{r7, pc}
 8004ef2:	46c0      	nop			; (mov r8, r8)
 8004ef4:	2000046c 	.word	0x2000046c

08004ef8 <TSL_tkey_ReleaseStateProcess>:
  * @brief  Release state processing
  * @param  None
  * @retval None
  */
void TSL_tkey_ReleaseStateProcess(void)
{
 8004ef8:	b580      	push	{r7, lr}
 8004efa:	af00      	add	r7, sp, #0
  if (THIS_ACQ_STATUS & TSL_ACQ_STATUS_ERROR_MASK) // Acquisition error (min or max)
 8004efc:	4b4d      	ldr	r3, [pc, #308]	; (8005034 <TSL_tkey_ReleaseStateProcess+0x13c>)
 8004efe:	695b      	ldr	r3, [r3, #20]
 8004f00:	689b      	ldr	r3, [r3, #8]
 8004f02:	781b      	ldrb	r3, [r3, #0]
 8004f04:	075b      	lsls	r3, r3, #29
 8004f06:	0f9b      	lsrs	r3, r3, #30
 8004f08:	b2db      	uxtb	r3, r3
 8004f0a:	001a      	movs	r2, r3
 8004f0c:	2302      	movs	r3, #2
 8004f0e:	4013      	ands	r3, r2
 8004f10:	d019      	beq.n	8004f46 <TSL_tkey_ReleaseStateProcess+0x4e>
  {
    THIS_COUNTER_DEB = THIS_COUNTER_DEB_ERROR;
 8004f12:	4b48      	ldr	r3, [pc, #288]	; (8005034 <TSL_tkey_ReleaseStateProcess+0x13c>)
 8004f14:	695b      	ldr	r3, [r3, #20]
 8004f16:	681a      	ldr	r2, [r3, #0]
 8004f18:	4b46      	ldr	r3, [pc, #280]	; (8005034 <TSL_tkey_ReleaseStateProcess+0x13c>)
 8004f1a:	695b      	ldr	r3, [r3, #20]
 8004f1c:	685b      	ldr	r3, [r3, #4]
 8004f1e:	7a5b      	ldrb	r3, [r3, #9]
 8004f20:	7053      	strb	r3, [r2, #1]
    if (THIS_COUNTER_DEB == 0)
 8004f22:	4b44      	ldr	r3, [pc, #272]	; (8005034 <TSL_tkey_ReleaseStateProcess+0x13c>)
 8004f24:	695b      	ldr	r3, [r3, #20]
 8004f26:	681b      	ldr	r3, [r3, #0]
 8004f28:	785b      	ldrb	r3, [r3, #1]
 8004f2a:	2b00      	cmp	r3, #0
 8004f2c:	d105      	bne.n	8004f3a <TSL_tkey_ReleaseStateProcess+0x42>
    {
      THIS_STATEID = TSL_STATEID_ERROR;
 8004f2e:	4b41      	ldr	r3, [pc, #260]	; (8005034 <TSL_tkey_ReleaseStateProcess+0x13c>)
 8004f30:	695b      	ldr	r3, [r3, #20]
 8004f32:	681b      	ldr	r3, [r3, #0]
 8004f34:	220d      	movs	r2, #13
 8004f36:	701a      	strb	r2, [r3, #0]
 8004f38:	e079      	b.n	800502e <TSL_tkey_ReleaseStateProcess+0x136>
    }
    else
    {
      THIS_STATEID = TSL_STATEID_DEB_ERROR_RELEASE;
 8004f3a:	4b3e      	ldr	r3, [pc, #248]	; (8005034 <TSL_tkey_ReleaseStateProcess+0x13c>)
 8004f3c:	695b      	ldr	r3, [r3, #20]
 8004f3e:	681b      	ldr	r3, [r3, #0]
 8004f40:	220f      	movs	r2, #15
 8004f42:	701a      	strb	r2, [r3, #0]
 8004f44:	e073      	b.n	800502e <TSL_tkey_ReleaseStateProcess+0x136>
    }
  }
  else // Acquisition is OK or has NOISE
  {
    if TEST_DELTA(>=, THIS_DETECTIN_TH)
 8004f46:	4b3b      	ldr	r3, [pc, #236]	; (8005034 <TSL_tkey_ReleaseStateProcess+0x13c>)
 8004f48:	695b      	ldr	r3, [r3, #20]
 8004f4a:	689b      	ldr	r3, [r3, #8]
 8004f4c:	2208      	movs	r2, #8
 8004f4e:	5e9b      	ldrsh	r3, [r3, r2]
 8004f50:	001a      	movs	r2, r3
 8004f52:	4b38      	ldr	r3, [pc, #224]	; (8005034 <TSL_tkey_ReleaseStateProcess+0x13c>)
 8004f54:	695b      	ldr	r3, [r3, #20]
 8004f56:	685b      	ldr	r3, [r3, #4]
 8004f58:	789b      	ldrb	r3, [r3, #2]
 8004f5a:	429a      	cmp	r2, r3
 8004f5c:	db1b      	blt.n	8004f96 <TSL_tkey_ReleaseStateProcess+0x9e>
    {
      TEST_DELTA_NEGATIVE;
      THIS_COUNTER_DEB = THIS_COUNTER_DEB_DETECT;
 8004f5e:	4b35      	ldr	r3, [pc, #212]	; (8005034 <TSL_tkey_ReleaseStateProcess+0x13c>)
 8004f60:	695b      	ldr	r3, [r3, #20]
 8004f62:	681a      	ldr	r2, [r3, #0]
 8004f64:	4b33      	ldr	r3, [pc, #204]	; (8005034 <TSL_tkey_ReleaseStateProcess+0x13c>)
 8004f66:	695b      	ldr	r3, [r3, #20]
 8004f68:	685b      	ldr	r3, [r3, #4]
 8004f6a:	79db      	ldrb	r3, [r3, #7]
 8004f6c:	7053      	strb	r3, [r2, #1]
      if (THIS_COUNTER_DEB == 0)
 8004f6e:	4b31      	ldr	r3, [pc, #196]	; (8005034 <TSL_tkey_ReleaseStateProcess+0x13c>)
 8004f70:	695b      	ldr	r3, [r3, #20]
 8004f72:	681b      	ldr	r3, [r3, #0]
 8004f74:	785b      	ldrb	r3, [r3, #1]
 8004f76:	2b00      	cmp	r3, #0
 8004f78:	d107      	bne.n	8004f8a <TSL_tkey_ReleaseStateProcess+0x92>
      {
        THIS_STATEID = TSL_STATEID_DETECT;
 8004f7a:	4b2e      	ldr	r3, [pc, #184]	; (8005034 <TSL_tkey_ReleaseStateProcess+0x13c>)
 8004f7c:	695b      	ldr	r3, [r3, #20]
 8004f7e:	681b      	ldr	r3, [r3, #0]
 8004f80:	220a      	movs	r2, #10
 8004f82:	701a      	strb	r2, [r3, #0]
        DTO_GET_TIME; // Take current time for DTO processing
 8004f84:	f000 fd2c 	bl	80059e0 <TSL_tkey_DTOGetTime>
      }
      else
      {
        THIS_STATEID = TSL_STATEID_DEB_DETECT;
      }
      return;
 8004f88:	e051      	b.n	800502e <TSL_tkey_ReleaseStateProcess+0x136>
        THIS_STATEID = TSL_STATEID_DEB_DETECT;
 8004f8a:	4b2a      	ldr	r3, [pc, #168]	; (8005034 <TSL_tkey_ReleaseStateProcess+0x13c>)
 8004f8c:	695b      	ldr	r3, [r3, #20]
 8004f8e:	681b      	ldr	r3, [r3, #0]
 8004f90:	220b      	movs	r2, #11
 8004f92:	701a      	strb	r2, [r3, #0]
      return;
 8004f94:	e04b      	b.n	800502e <TSL_tkey_ReleaseStateProcess+0x136>
    }

#if TSLPRM_USE_PROX > 0
    if (THIS_DELTA >= THIS_PROXIN_TH)
 8004f96:	4b27      	ldr	r3, [pc, #156]	; (8005034 <TSL_tkey_ReleaseStateProcess+0x13c>)
 8004f98:	695b      	ldr	r3, [r3, #20]
 8004f9a:	689b      	ldr	r3, [r3, #8]
 8004f9c:	2208      	movs	r2, #8
 8004f9e:	5e9b      	ldrsh	r3, [r3, r2]
 8004fa0:	001a      	movs	r2, r3
 8004fa2:	4b24      	ldr	r3, [pc, #144]	; (8005034 <TSL_tkey_ReleaseStateProcess+0x13c>)
 8004fa4:	695b      	ldr	r3, [r3, #20]
 8004fa6:	685b      	ldr	r3, [r3, #4]
 8004fa8:	781b      	ldrb	r3, [r3, #0]
 8004faa:	429a      	cmp	r2, r3
 8004fac:	db1b      	blt.n	8004fe6 <TSL_tkey_ReleaseStateProcess+0xee>
    {
      THIS_COUNTER_DEB = THIS_COUNTER_DEB_PROX;
 8004fae:	4b21      	ldr	r3, [pc, #132]	; (8005034 <TSL_tkey_ReleaseStateProcess+0x13c>)
 8004fb0:	695b      	ldr	r3, [r3, #20]
 8004fb2:	681a      	ldr	r2, [r3, #0]
 8004fb4:	4b1f      	ldr	r3, [pc, #124]	; (8005034 <TSL_tkey_ReleaseStateProcess+0x13c>)
 8004fb6:	695b      	ldr	r3, [r3, #20]
 8004fb8:	685b      	ldr	r3, [r3, #4]
 8004fba:	799b      	ldrb	r3, [r3, #6]
 8004fbc:	7053      	strb	r3, [r2, #1]
      if (THIS_COUNTER_DEB == 0)
 8004fbe:	4b1d      	ldr	r3, [pc, #116]	; (8005034 <TSL_tkey_ReleaseStateProcess+0x13c>)
 8004fc0:	695b      	ldr	r3, [r3, #20]
 8004fc2:	681b      	ldr	r3, [r3, #0]
 8004fc4:	785b      	ldrb	r3, [r3, #1]
 8004fc6:	2b00      	cmp	r3, #0
 8004fc8:	d107      	bne.n	8004fda <TSL_tkey_ReleaseStateProcess+0xe2>
      {
        THIS_STATEID = TSL_STATEID_PROX;
 8004fca:	4b1a      	ldr	r3, [pc, #104]	; (8005034 <TSL_tkey_ReleaseStateProcess+0x13c>)
 8004fcc:	695b      	ldr	r3, [r3, #20]
 8004fce:	681b      	ldr	r3, [r3, #0]
 8004fd0:	2206      	movs	r2, #6
 8004fd2:	701a      	strb	r2, [r3, #0]
        DTO_GET_TIME; // Take current time for DTO processing
 8004fd4:	f000 fd04 	bl	80059e0 <TSL_tkey_DTOGetTime>
      }
      else
      {
        THIS_STATEID = TSL_STATEID_DEB_PROX;
      }
      return;
 8004fd8:	e029      	b.n	800502e <TSL_tkey_ReleaseStateProcess+0x136>
        THIS_STATEID = TSL_STATEID_DEB_PROX;
 8004fda:	4b16      	ldr	r3, [pc, #88]	; (8005034 <TSL_tkey_ReleaseStateProcess+0x13c>)
 8004fdc:	695b      	ldr	r3, [r3, #20]
 8004fde:	681b      	ldr	r3, [r3, #0]
 8004fe0:	2207      	movs	r2, #7
 8004fe2:	701a      	strb	r2, [r3, #0]
      return;
 8004fe4:	e023      	b.n	800502e <TSL_tkey_ReleaseStateProcess+0x136>
    }
#endif

    // Check delta for re-calibration
    // Warning: the threshold value is inverted in the macro
    if TEST_DELTA_N(<=, THIS_CALIB_TH)
 8004fe6:	4b13      	ldr	r3, [pc, #76]	; (8005034 <TSL_tkey_ReleaseStateProcess+0x13c>)
 8004fe8:	695b      	ldr	r3, [r3, #20]
 8004fea:	689b      	ldr	r3, [r3, #8]
 8004fec:	2208      	movs	r2, #8
 8004fee:	5e9b      	ldrsh	r3, [r3, r2]
 8004ff0:	001a      	movs	r2, r3
 8004ff2:	4b10      	ldr	r3, [pc, #64]	; (8005034 <TSL_tkey_ReleaseStateProcess+0x13c>)
 8004ff4:	695b      	ldr	r3, [r3, #20]
 8004ff6:	685b      	ldr	r3, [r3, #4]
 8004ff8:	791b      	ldrb	r3, [r3, #4]
 8004ffa:	425b      	negs	r3, r3
 8004ffc:	429a      	cmp	r2, r3
 8004ffe:	dc16      	bgt.n	800502e <TSL_tkey_ReleaseStateProcess+0x136>
    {
      THIS_COUNTER_DEB = THIS_COUNTER_DEB_CALIB;
 8005000:	4b0c      	ldr	r3, [pc, #48]	; (8005034 <TSL_tkey_ReleaseStateProcess+0x13c>)
 8005002:	695b      	ldr	r3, [r3, #20]
 8005004:	681a      	ldr	r2, [r3, #0]
 8005006:	4b0b      	ldr	r3, [pc, #44]	; (8005034 <TSL_tkey_ReleaseStateProcess+0x13c>)
 8005008:	695b      	ldr	r3, [r3, #20]
 800500a:	685b      	ldr	r3, [r3, #4]
 800500c:	795b      	ldrb	r3, [r3, #5]
 800500e:	7053      	strb	r3, [r2, #1]
      if (THIS_COUNTER_DEB == 0)
 8005010:	4b08      	ldr	r3, [pc, #32]	; (8005034 <TSL_tkey_ReleaseStateProcess+0x13c>)
 8005012:	695b      	ldr	r3, [r3, #20]
 8005014:	681b      	ldr	r3, [r3, #0]
 8005016:	785b      	ldrb	r3, [r3, #1]
 8005018:	2b00      	cmp	r3, #0
 800501a:	d103      	bne.n	8005024 <TSL_tkey_ReleaseStateProcess+0x12c>
      {
        TSL_tkey_SetStateCalibration(0);
 800501c:	2000      	movs	r0, #0
 800501e:	f7ff fe17 	bl	8004c50 <TSL_tkey_SetStateCalibration>
 8005022:	e004      	b.n	800502e <TSL_tkey_ReleaseStateProcess+0x136>
      }
      else
      {
        THIS_STATEID = TSL_STATEID_DEB_CALIB;
 8005024:	4b03      	ldr	r3, [pc, #12]	; (8005034 <TSL_tkey_ReleaseStateProcess+0x13c>)
 8005026:	695b      	ldr	r3, [r3, #20]
 8005028:	681b      	ldr	r3, [r3, #0]
 800502a:	2201      	movs	r2, #1
 800502c:	701a      	strb	r2, [r3, #0]
      }
    }
  }
}
 800502e:	46bd      	mov	sp, r7
 8005030:	bd80      	pop	{r7, pc}
 8005032:	46c0      	nop			; (mov r8, r8)
 8005034:	2000046c 	.word	0x2000046c

08005038 <TSL_tkey_DebCalibrationStateProcess>:
  * @brief  Debounce Calibration processing (previous state = Release)
  * @param  None
  * @retval None
  */
void TSL_tkey_DebCalibrationStateProcess(void)
{
 8005038:	b580      	push	{r7, lr}
 800503a:	af00      	add	r7, sp, #0
  if (THIS_ACQ_STATUS & TSL_ACQ_STATUS_ERROR_MASK) // Acquisition error (min or max)
 800503c:	4b1e      	ldr	r3, [pc, #120]	; (80050b8 <TSL_tkey_DebCalibrationStateProcess+0x80>)
 800503e:	695b      	ldr	r3, [r3, #20]
 8005040:	689b      	ldr	r3, [r3, #8]
 8005042:	781b      	ldrb	r3, [r3, #0]
 8005044:	075b      	lsls	r3, r3, #29
 8005046:	0f9b      	lsrs	r3, r3, #30
 8005048:	b2db      	uxtb	r3, r3
 800504a:	001a      	movs	r2, r3
 800504c:	2302      	movs	r3, #2
 800504e:	4013      	ands	r3, r2
 8005050:	d005      	beq.n	800505e <TSL_tkey_DebCalibrationStateProcess+0x26>
  {
    THIS_STATEID = TSL_STATEID_RELEASE; // Go back to the previous state
 8005052:	4b19      	ldr	r3, [pc, #100]	; (80050b8 <TSL_tkey_DebCalibrationStateProcess+0x80>)
 8005054:	695b      	ldr	r3, [r3, #20]
 8005056:	681b      	ldr	r3, [r3, #0]
 8005058:	2202      	movs	r2, #2
 800505a:	701a      	strb	r2, [r3, #0]
    else // Go back to previous state
    {
      THIS_STATEID = TSL_STATEID_RELEASE;
    }
  }
}
 800505c:	e028      	b.n	80050b0 <TSL_tkey_DebCalibrationStateProcess+0x78>
    if TEST_DELTA_N(<=, THIS_CALIB_TH)
 800505e:	4b16      	ldr	r3, [pc, #88]	; (80050b8 <TSL_tkey_DebCalibrationStateProcess+0x80>)
 8005060:	695b      	ldr	r3, [r3, #20]
 8005062:	689b      	ldr	r3, [r3, #8]
 8005064:	2208      	movs	r2, #8
 8005066:	5e9b      	ldrsh	r3, [r3, r2]
 8005068:	001a      	movs	r2, r3
 800506a:	4b13      	ldr	r3, [pc, #76]	; (80050b8 <TSL_tkey_DebCalibrationStateProcess+0x80>)
 800506c:	695b      	ldr	r3, [r3, #20]
 800506e:	685b      	ldr	r3, [r3, #4]
 8005070:	791b      	ldrb	r3, [r3, #4]
 8005072:	425b      	negs	r3, r3
 8005074:	429a      	cmp	r2, r3
 8005076:	dc16      	bgt.n	80050a6 <TSL_tkey_DebCalibrationStateProcess+0x6e>
      if (THIS_COUNTER_DEB > 0) {THIS_COUNTER_DEB--;}
 8005078:	4b0f      	ldr	r3, [pc, #60]	; (80050b8 <TSL_tkey_DebCalibrationStateProcess+0x80>)
 800507a:	695b      	ldr	r3, [r3, #20]
 800507c:	681b      	ldr	r3, [r3, #0]
 800507e:	785b      	ldrb	r3, [r3, #1]
 8005080:	2b00      	cmp	r3, #0
 8005082:	d006      	beq.n	8005092 <TSL_tkey_DebCalibrationStateProcess+0x5a>
 8005084:	4b0c      	ldr	r3, [pc, #48]	; (80050b8 <TSL_tkey_DebCalibrationStateProcess+0x80>)
 8005086:	695b      	ldr	r3, [r3, #20]
 8005088:	681b      	ldr	r3, [r3, #0]
 800508a:	785a      	ldrb	r2, [r3, #1]
 800508c:	3a01      	subs	r2, #1
 800508e:	b2d2      	uxtb	r2, r2
 8005090:	705a      	strb	r2, [r3, #1]
      if (THIS_COUNTER_DEB == 0)
 8005092:	4b09      	ldr	r3, [pc, #36]	; (80050b8 <TSL_tkey_DebCalibrationStateProcess+0x80>)
 8005094:	695b      	ldr	r3, [r3, #20]
 8005096:	681b      	ldr	r3, [r3, #0]
 8005098:	785b      	ldrb	r3, [r3, #1]
 800509a:	2b00      	cmp	r3, #0
 800509c:	d108      	bne.n	80050b0 <TSL_tkey_DebCalibrationStateProcess+0x78>
        TSL_tkey_SetStateCalibration(0);
 800509e:	2000      	movs	r0, #0
 80050a0:	f7ff fdd6 	bl	8004c50 <TSL_tkey_SetStateCalibration>
}
 80050a4:	e004      	b.n	80050b0 <TSL_tkey_DebCalibrationStateProcess+0x78>
      THIS_STATEID = TSL_STATEID_RELEASE;
 80050a6:	4b04      	ldr	r3, [pc, #16]	; (80050b8 <TSL_tkey_DebCalibrationStateProcess+0x80>)
 80050a8:	695b      	ldr	r3, [r3, #20]
 80050aa:	681b      	ldr	r3, [r3, #0]
 80050ac:	2202      	movs	r2, #2
 80050ae:	701a      	strb	r2, [r3, #0]
}
 80050b0:	46c0      	nop			; (mov r8, r8)
 80050b2:	46bd      	mov	sp, r7
 80050b4:	bd80      	pop	{r7, pc}
 80050b6:	46c0      	nop			; (mov r8, r8)
 80050b8:	2000046c 	.word	0x2000046c

080050bc <TSL_tkey_CalibrationStateProcess>:
  * @brief  Calibration state processing
  * @param  None
  * @retval None
  */
void TSL_tkey_CalibrationStateProcess(void)
{
 80050bc:	b580      	push	{r7, lr}
 80050be:	b082      	sub	sp, #8
 80050c0:	af00      	add	r7, sp, #0
    THIS_COUNTER_DEB--;
    return; // Skip the sample
  }
#endif

  if (THIS_ACQ_STATUS & TSL_ACQ_STATUS_ERROR_MASK) // Acquisition error (min or max)
 80050c2:	4b4f      	ldr	r3, [pc, #316]	; (8005200 <TSL_tkey_CalibrationStateProcess+0x144>)
 80050c4:	695b      	ldr	r3, [r3, #20]
 80050c6:	689b      	ldr	r3, [r3, #8]
 80050c8:	781b      	ldrb	r3, [r3, #0]
 80050ca:	075b      	lsls	r3, r3, #29
 80050cc:	0f9b      	lsrs	r3, r3, #30
 80050ce:	b2db      	uxtb	r3, r3
 80050d0:	001a      	movs	r2, r3
 80050d2:	2302      	movs	r3, #2
 80050d4:	4013      	ands	r3, r2
 80050d6:	d019      	beq.n	800510c <TSL_tkey_CalibrationStateProcess+0x50>
  {
    THIS_COUNTER_DEB = THIS_COUNTER_DEB_ERROR;
 80050d8:	4b49      	ldr	r3, [pc, #292]	; (8005200 <TSL_tkey_CalibrationStateProcess+0x144>)
 80050da:	695b      	ldr	r3, [r3, #20]
 80050dc:	681a      	ldr	r2, [r3, #0]
 80050de:	4b48      	ldr	r3, [pc, #288]	; (8005200 <TSL_tkey_CalibrationStateProcess+0x144>)
 80050e0:	695b      	ldr	r3, [r3, #20]
 80050e2:	685b      	ldr	r3, [r3, #4]
 80050e4:	7a5b      	ldrb	r3, [r3, #9]
 80050e6:	7053      	strb	r3, [r2, #1]
    if (THIS_COUNTER_DEB == 0)
 80050e8:	4b45      	ldr	r3, [pc, #276]	; (8005200 <TSL_tkey_CalibrationStateProcess+0x144>)
 80050ea:	695b      	ldr	r3, [r3, #20]
 80050ec:	681b      	ldr	r3, [r3, #0]
 80050ee:	785b      	ldrb	r3, [r3, #1]
 80050f0:	2b00      	cmp	r3, #0
 80050f2:	d105      	bne.n	8005100 <TSL_tkey_CalibrationStateProcess+0x44>
    {
      THIS_STATEID = TSL_STATEID_ERROR;
 80050f4:	4b42      	ldr	r3, [pc, #264]	; (8005200 <TSL_tkey_CalibrationStateProcess+0x144>)
 80050f6:	695b      	ldr	r3, [r3, #20]
 80050f8:	681b      	ldr	r3, [r3, #0]
 80050fa:	220d      	movs	r2, #13
 80050fc:	701a      	strb	r2, [r3, #0]
 80050fe:	e07b      	b.n	80051f8 <TSL_tkey_CalibrationStateProcess+0x13c>
    }
    else
    {
      THIS_STATEID = TSL_STATEID_DEB_ERROR_CALIB;
 8005100:	4b3f      	ldr	r3, [pc, #252]	; (8005200 <TSL_tkey_CalibrationStateProcess+0x144>)
 8005102:	695b      	ldr	r3, [r3, #20]
 8005104:	681b      	ldr	r3, [r3, #0]
 8005106:	220e      	movs	r2, #14
 8005108:	701a      	strb	r2, [r3, #0]
 800510a:	e075      	b.n	80051f8 <TSL_tkey_CalibrationStateProcess+0x13c>
  else // Acquisition is OK or has NOISE
  {

    // Get the new measure or Calculate it
#if TSLPRM_USE_MEAS > 0
    new_meas = THIS_MEAS;
 800510c:	4b3c      	ldr	r3, [pc, #240]	; (8005200 <TSL_tkey_CalibrationStateProcess+0x144>)
 800510e:	695b      	ldr	r3, [r3, #20]
 8005110:	689a      	ldr	r2, [r3, #8]
 8005112:	1dbb      	adds	r3, r7, #6
 8005114:	8952      	ldrh	r2, [r2, #10]
 8005116:	801a      	strh	r2, [r3, #0]
#else // Calculate it
    new_meas = TSL_acq_ComputeMeas(THIS_REF, THIS_DELTA);
#endif

    // Verify the first Reference value
    if (THIS_COUNTER_DEB == (TSL_tCounter_T)TSL_Params.NbCalibSamples)
 8005118:	4b39      	ldr	r3, [pc, #228]	; (8005200 <TSL_tkey_CalibrationStateProcess+0x144>)
 800511a:	695b      	ldr	r3, [r3, #20]
 800511c:	681b      	ldr	r3, [r3, #0]
 800511e:	785a      	ldrb	r2, [r3, #1]
 8005120:	4b38      	ldr	r3, [pc, #224]	; (8005204 <TSL_tkey_CalibrationStateProcess+0x148>)
 8005122:	889b      	ldrh	r3, [r3, #4]
 8005124:	b2db      	uxtb	r3, r3
 8005126:	429a      	cmp	r2, r3
 8005128:	d117      	bne.n	800515a <TSL_tkey_CalibrationStateProcess+0x9e>
    {
      if (TSL_acq_TestFirstReferenceIsValid(THIS_CHANNEL_DATA, new_meas))
 800512a:	4b35      	ldr	r3, [pc, #212]	; (8005200 <TSL_tkey_CalibrationStateProcess+0x144>)
 800512c:	695b      	ldr	r3, [r3, #20]
 800512e:	689a      	ldr	r2, [r3, #8]
 8005130:	1dbb      	adds	r3, r7, #6
 8005132:	881b      	ldrh	r3, [r3, #0]
 8005134:	0019      	movs	r1, r3
 8005136:	0010      	movs	r0, r2
 8005138:	f7ff f91b 	bl	8004372 <TSL_acq_TestFirstReferenceIsValid>
 800513c:	1e03      	subs	r3, r0, #0
 800513e:	d006      	beq.n	800514e <TSL_tkey_CalibrationStateProcess+0x92>
      {
        THIS_REF = new_meas;
 8005140:	4b2f      	ldr	r3, [pc, #188]	; (8005200 <TSL_tkey_CalibrationStateProcess+0x144>)
 8005142:	695b      	ldr	r3, [r3, #20]
 8005144:	689b      	ldr	r3, [r3, #8]
 8005146:	1dba      	adds	r2, r7, #6
 8005148:	8812      	ldrh	r2, [r2, #0]
 800514a:	809a      	strh	r2, [r3, #4]
 800514c:	e024      	b.n	8005198 <TSL_tkey_CalibrationStateProcess+0xdc>
      }
      else
      {
        THIS_REF = 0;
 800514e:	4b2c      	ldr	r3, [pc, #176]	; (8005200 <TSL_tkey_CalibrationStateProcess+0x144>)
 8005150:	695b      	ldr	r3, [r3, #20]
 8005152:	689b      	ldr	r3, [r3, #8]
 8005154:	2200      	movs	r2, #0
 8005156:	809a      	strh	r2, [r3, #4]
        return;
 8005158:	e04e      	b.n	80051f8 <TSL_tkey_CalibrationStateProcess+0x13c>
      }
    }
    else
    {
      // Add the measure in temporary Reference
      THIS_REF += new_meas;
 800515a:	4b29      	ldr	r3, [pc, #164]	; (8005200 <TSL_tkey_CalibrationStateProcess+0x144>)
 800515c:	695b      	ldr	r3, [r3, #20]
 800515e:	689a      	ldr	r2, [r3, #8]
 8005160:	4b27      	ldr	r3, [pc, #156]	; (8005200 <TSL_tkey_CalibrationStateProcess+0x144>)
 8005162:	695b      	ldr	r3, [r3, #20]
 8005164:	689b      	ldr	r3, [r3, #8]
 8005166:	8899      	ldrh	r1, [r3, #4]
 8005168:	1dbb      	adds	r3, r7, #6
 800516a:	881b      	ldrh	r3, [r3, #0]
 800516c:	18cb      	adds	r3, r1, r3
 800516e:	b29b      	uxth	r3, r3
 8005170:	8093      	strh	r3, [r2, #4]

      // Check reference overflow
      if (THIS_REF < new_meas)
 8005172:	4b23      	ldr	r3, [pc, #140]	; (8005200 <TSL_tkey_CalibrationStateProcess+0x144>)
 8005174:	695b      	ldr	r3, [r3, #20]
 8005176:	689b      	ldr	r3, [r3, #8]
 8005178:	889b      	ldrh	r3, [r3, #4]
 800517a:	1dba      	adds	r2, r7, #6
 800517c:	8812      	ldrh	r2, [r2, #0]
 800517e:	429a      	cmp	r2, r3
 8005180:	d90a      	bls.n	8005198 <TSL_tkey_CalibrationStateProcess+0xdc>
      {
        THIS_REF = 0; // Suppress the bad reference
 8005182:	4b1f      	ldr	r3, [pc, #124]	; (8005200 <TSL_tkey_CalibrationStateProcess+0x144>)
 8005184:	695b      	ldr	r3, [r3, #20]
 8005186:	689b      	ldr	r3, [r3, #8]
 8005188:	2200      	movs	r2, #0
 800518a:	809a      	strh	r2, [r3, #4]
        THIS_STATEID = TSL_STATEID_ERROR;
 800518c:	4b1c      	ldr	r3, [pc, #112]	; (8005200 <TSL_tkey_CalibrationStateProcess+0x144>)
 800518e:	695b      	ldr	r3, [r3, #20]
 8005190:	681b      	ldr	r3, [r3, #0]
 8005192:	220d      	movs	r2, #13
 8005194:	701a      	strb	r2, [r3, #0]
        return;
 8005196:	e02f      	b.n	80051f8 <TSL_tkey_CalibrationStateProcess+0x13c>
      }
    }

    // Check that we have all the needed measurements
    if (THIS_COUNTER_DEB > 0) {THIS_COUNTER_DEB--;}
 8005198:	4b19      	ldr	r3, [pc, #100]	; (8005200 <TSL_tkey_CalibrationStateProcess+0x144>)
 800519a:	695b      	ldr	r3, [r3, #20]
 800519c:	681b      	ldr	r3, [r3, #0]
 800519e:	785b      	ldrb	r3, [r3, #1]
 80051a0:	2b00      	cmp	r3, #0
 80051a2:	d006      	beq.n	80051b2 <TSL_tkey_CalibrationStateProcess+0xf6>
 80051a4:	4b16      	ldr	r3, [pc, #88]	; (8005200 <TSL_tkey_CalibrationStateProcess+0x144>)
 80051a6:	695b      	ldr	r3, [r3, #20]
 80051a8:	681b      	ldr	r3, [r3, #0]
 80051aa:	785a      	ldrb	r2, [r3, #1]
 80051ac:	3a01      	subs	r2, #1
 80051ae:	b2d2      	uxtb	r2, r2
 80051b0:	705a      	strb	r2, [r3, #1]
    if (THIS_COUNTER_DEB == 0)
 80051b2:	4b13      	ldr	r3, [pc, #76]	; (8005200 <TSL_tkey_CalibrationStateProcess+0x144>)
 80051b4:	695b      	ldr	r3, [r3, #20]
 80051b6:	681b      	ldr	r3, [r3, #0]
 80051b8:	785b      	ldrb	r3, [r3, #1]
 80051ba:	2b00      	cmp	r3, #0
 80051bc:	d11c      	bne.n	80051f8 <TSL_tkey_CalibrationStateProcess+0x13c>
    {
      // Divide temporary Reference by the number of samples
      THIS_REF >>= CalibDiv;
 80051be:	4b10      	ldr	r3, [pc, #64]	; (8005200 <TSL_tkey_CalibrationStateProcess+0x144>)
 80051c0:	695b      	ldr	r3, [r3, #20]
 80051c2:	689a      	ldr	r2, [r3, #8]
 80051c4:	4b0e      	ldr	r3, [pc, #56]	; (8005200 <TSL_tkey_CalibrationStateProcess+0x144>)
 80051c6:	695b      	ldr	r3, [r3, #20]
 80051c8:	689b      	ldr	r3, [r3, #8]
 80051ca:	889b      	ldrh	r3, [r3, #4]
 80051cc:	0019      	movs	r1, r3
 80051ce:	4b0e      	ldr	r3, [pc, #56]	; (8005208 <TSL_tkey_CalibrationStateProcess+0x14c>)
 80051d0:	881b      	ldrh	r3, [r3, #0]
 80051d2:	4119      	asrs	r1, r3
 80051d4:	000b      	movs	r3, r1
 80051d6:	b29b      	uxth	r3, r3
 80051d8:	8093      	strh	r3, [r2, #4]
      THIS_REFREST = 0;
 80051da:	4b09      	ldr	r3, [pc, #36]	; (8005200 <TSL_tkey_CalibrationStateProcess+0x144>)
 80051dc:	695b      	ldr	r3, [r3, #20]
 80051de:	689b      	ldr	r3, [r3, #8]
 80051e0:	2200      	movs	r2, #0
 80051e2:	719a      	strb	r2, [r3, #6]
      THIS_DELTA = 0;
 80051e4:	4b06      	ldr	r3, [pc, #24]	; (8005200 <TSL_tkey_CalibrationStateProcess+0x144>)
 80051e6:	695b      	ldr	r3, [r3, #20]
 80051e8:	689b      	ldr	r3, [r3, #8]
 80051ea:	2200      	movs	r2, #0
 80051ec:	811a      	strh	r2, [r3, #8]
      THIS_STATEID = TSL_STATEID_RELEASE;
 80051ee:	4b04      	ldr	r3, [pc, #16]	; (8005200 <TSL_tkey_CalibrationStateProcess+0x144>)
 80051f0:	695b      	ldr	r3, [r3, #20]
 80051f2:	681b      	ldr	r3, [r3, #0]
 80051f4:	2202      	movs	r2, #2
 80051f6:	701a      	strb	r2, [r3, #0]
    }
  }
}
 80051f8:	46bd      	mov	sp, r7
 80051fa:	b002      	add	sp, #8
 80051fc:	bd80      	pop	{r7, pc}
 80051fe:	46c0      	nop			; (mov r8, r8)
 8005200:	2000046c 	.word	0x2000046c
 8005204:	20000018 	.word	0x20000018
 8005208:	20000046 	.word	0x20000046

0800520c <TSL_tkey_DebProxStateProcess>:
  * @brief  Debounce Proximity processing (previous state = Release)
  * @param  None
  * @retval None
  */
void TSL_tkey_DebProxStateProcess(void)
{
 800520c:	b580      	push	{r7, lr}
 800520e:	af00      	add	r7, sp, #0
  if (THIS_ACQ_STATUS & TSL_ACQ_STATUS_ERROR_MASK) // Acquisition error (min or max)
 8005210:	4b33      	ldr	r3, [pc, #204]	; (80052e0 <TSL_tkey_DebProxStateProcess+0xd4>)
 8005212:	695b      	ldr	r3, [r3, #20]
 8005214:	689b      	ldr	r3, [r3, #8]
 8005216:	781b      	ldrb	r3, [r3, #0]
 8005218:	075b      	lsls	r3, r3, #29
 800521a:	0f9b      	lsrs	r3, r3, #30
 800521c:	b2db      	uxtb	r3, r3
 800521e:	001a      	movs	r2, r3
 8005220:	2302      	movs	r3, #2
 8005222:	4013      	ands	r3, r2
 8005224:	d005      	beq.n	8005232 <TSL_tkey_DebProxStateProcess+0x26>
  {
    THIS_STATEID = TSL_STATEID_RELEASE;
 8005226:	4b2e      	ldr	r3, [pc, #184]	; (80052e0 <TSL_tkey_DebProxStateProcess+0xd4>)
 8005228:	695b      	ldr	r3, [r3, #20]
 800522a:	681b      	ldr	r3, [r3, #0]
 800522c:	2202      	movs	r2, #2
 800522e:	701a      	strb	r2, [r3, #0]
 8005230:	e053      	b.n	80052da <TSL_tkey_DebProxStateProcess+0xce>
  }
  else // Acquisition is OK or has NOISE
  {
    if TEST_DELTA(>=, THIS_DETECTIN_TH)
 8005232:	4b2b      	ldr	r3, [pc, #172]	; (80052e0 <TSL_tkey_DebProxStateProcess+0xd4>)
 8005234:	695b      	ldr	r3, [r3, #20]
 8005236:	689b      	ldr	r3, [r3, #8]
 8005238:	2208      	movs	r2, #8
 800523a:	5e9b      	ldrsh	r3, [r3, r2]
 800523c:	001a      	movs	r2, r3
 800523e:	4b28      	ldr	r3, [pc, #160]	; (80052e0 <TSL_tkey_DebProxStateProcess+0xd4>)
 8005240:	695b      	ldr	r3, [r3, #20]
 8005242:	685b      	ldr	r3, [r3, #4]
 8005244:	789b      	ldrb	r3, [r3, #2]
 8005246:	429a      	cmp	r2, r3
 8005248:	db1b      	blt.n	8005282 <TSL_tkey_DebProxStateProcess+0x76>
    {
      TEST_DELTA_NEGATIVE;
      THIS_COUNTER_DEB = THIS_COUNTER_DEB_DETECT;
 800524a:	4b25      	ldr	r3, [pc, #148]	; (80052e0 <TSL_tkey_DebProxStateProcess+0xd4>)
 800524c:	695b      	ldr	r3, [r3, #20]
 800524e:	681a      	ldr	r2, [r3, #0]
 8005250:	4b23      	ldr	r3, [pc, #140]	; (80052e0 <TSL_tkey_DebProxStateProcess+0xd4>)
 8005252:	695b      	ldr	r3, [r3, #20]
 8005254:	685b      	ldr	r3, [r3, #4]
 8005256:	79db      	ldrb	r3, [r3, #7]
 8005258:	7053      	strb	r3, [r2, #1]
      if (THIS_COUNTER_DEB == 0)
 800525a:	4b21      	ldr	r3, [pc, #132]	; (80052e0 <TSL_tkey_DebProxStateProcess+0xd4>)
 800525c:	695b      	ldr	r3, [r3, #20]
 800525e:	681b      	ldr	r3, [r3, #0]
 8005260:	785b      	ldrb	r3, [r3, #1]
 8005262:	2b00      	cmp	r3, #0
 8005264:	d107      	bne.n	8005276 <TSL_tkey_DebProxStateProcess+0x6a>
      {
        THIS_STATEID = TSL_STATEID_DETECT;
 8005266:	4b1e      	ldr	r3, [pc, #120]	; (80052e0 <TSL_tkey_DebProxStateProcess+0xd4>)
 8005268:	695b      	ldr	r3, [r3, #20]
 800526a:	681b      	ldr	r3, [r3, #0]
 800526c:	220a      	movs	r2, #10
 800526e:	701a      	strb	r2, [r3, #0]
        DTO_GET_TIME; // Take current time for DTO processing
 8005270:	f000 fbb6 	bl	80059e0 <TSL_tkey_DTOGetTime>
      }
      else
      {
        THIS_STATEID = TSL_STATEID_DEB_DETECT;
      }
      return;
 8005274:	e031      	b.n	80052da <TSL_tkey_DebProxStateProcess+0xce>
        THIS_STATEID = TSL_STATEID_DEB_DETECT;
 8005276:	4b1a      	ldr	r3, [pc, #104]	; (80052e0 <TSL_tkey_DebProxStateProcess+0xd4>)
 8005278:	695b      	ldr	r3, [r3, #20]
 800527a:	681b      	ldr	r3, [r3, #0]
 800527c:	220b      	movs	r2, #11
 800527e:	701a      	strb	r2, [r3, #0]
      return;
 8005280:	e02b      	b.n	80052da <TSL_tkey_DebProxStateProcess+0xce>
    }

    if (THIS_DELTA >= THIS_PROXIN_TH)
 8005282:	4b17      	ldr	r3, [pc, #92]	; (80052e0 <TSL_tkey_DebProxStateProcess+0xd4>)
 8005284:	695b      	ldr	r3, [r3, #20]
 8005286:	689b      	ldr	r3, [r3, #8]
 8005288:	2208      	movs	r2, #8
 800528a:	5e9b      	ldrsh	r3, [r3, r2]
 800528c:	001a      	movs	r2, r3
 800528e:	4b14      	ldr	r3, [pc, #80]	; (80052e0 <TSL_tkey_DebProxStateProcess+0xd4>)
 8005290:	695b      	ldr	r3, [r3, #20]
 8005292:	685b      	ldr	r3, [r3, #4]
 8005294:	781b      	ldrb	r3, [r3, #0]
 8005296:	429a      	cmp	r2, r3
 8005298:	db1a      	blt.n	80052d0 <TSL_tkey_DebProxStateProcess+0xc4>
    {
      if (THIS_COUNTER_DEB > 0) {THIS_COUNTER_DEB--;}
 800529a:	4b11      	ldr	r3, [pc, #68]	; (80052e0 <TSL_tkey_DebProxStateProcess+0xd4>)
 800529c:	695b      	ldr	r3, [r3, #20]
 800529e:	681b      	ldr	r3, [r3, #0]
 80052a0:	785b      	ldrb	r3, [r3, #1]
 80052a2:	2b00      	cmp	r3, #0
 80052a4:	d006      	beq.n	80052b4 <TSL_tkey_DebProxStateProcess+0xa8>
 80052a6:	4b0e      	ldr	r3, [pc, #56]	; (80052e0 <TSL_tkey_DebProxStateProcess+0xd4>)
 80052a8:	695b      	ldr	r3, [r3, #20]
 80052aa:	681b      	ldr	r3, [r3, #0]
 80052ac:	785a      	ldrb	r2, [r3, #1]
 80052ae:	3a01      	subs	r2, #1
 80052b0:	b2d2      	uxtb	r2, r2
 80052b2:	705a      	strb	r2, [r3, #1]
      if (THIS_COUNTER_DEB == 0)
 80052b4:	4b0a      	ldr	r3, [pc, #40]	; (80052e0 <TSL_tkey_DebProxStateProcess+0xd4>)
 80052b6:	695b      	ldr	r3, [r3, #20]
 80052b8:	681b      	ldr	r3, [r3, #0]
 80052ba:	785b      	ldrb	r3, [r3, #1]
 80052bc:	2b00      	cmp	r3, #0
 80052be:	d10c      	bne.n	80052da <TSL_tkey_DebProxStateProcess+0xce>
      {
        THIS_STATEID = TSL_STATEID_PROX;
 80052c0:	4b07      	ldr	r3, [pc, #28]	; (80052e0 <TSL_tkey_DebProxStateProcess+0xd4>)
 80052c2:	695b      	ldr	r3, [r3, #20]
 80052c4:	681b      	ldr	r3, [r3, #0]
 80052c6:	2206      	movs	r2, #6
 80052c8:	701a      	strb	r2, [r3, #0]
        DTO_GET_TIME; // Take current time for DTO processing
 80052ca:	f000 fb89 	bl	80059e0 <TSL_tkey_DTOGetTime>
 80052ce:	e004      	b.n	80052da <TSL_tkey_DebProxStateProcess+0xce>
      }
      // else stay in Debounce Proximity
    }
    else
    {
      THIS_STATEID = TSL_STATEID_RELEASE;
 80052d0:	4b03      	ldr	r3, [pc, #12]	; (80052e0 <TSL_tkey_DebProxStateProcess+0xd4>)
 80052d2:	695b      	ldr	r3, [r3, #20]
 80052d4:	681b      	ldr	r3, [r3, #0]
 80052d6:	2202      	movs	r2, #2
 80052d8:	701a      	strb	r2, [r3, #0]
    }
  }
}
 80052da:	46bd      	mov	sp, r7
 80052dc:	bd80      	pop	{r7, pc}
 80052de:	46c0      	nop			; (mov r8, r8)
 80052e0:	2000046c 	.word	0x2000046c

080052e4 <TSL_tkey_DebProxDetectStateProcess>:
  * @brief  Debounce Proximity processing (previous state = Detect)
  * @param  None
  * @retval None
  */
void TSL_tkey_DebProxDetectStateProcess(void)
{
 80052e4:	b580      	push	{r7, lr}
 80052e6:	af00      	add	r7, sp, #0
  if (THIS_ACQ_STATUS & TSL_ACQ_STATUS_ERROR_MASK) // Acquisition error (min or max)
 80052e8:	4b32      	ldr	r3, [pc, #200]	; (80053b4 <TSL_tkey_DebProxDetectStateProcess+0xd0>)
 80052ea:	695b      	ldr	r3, [r3, #20]
 80052ec:	689b      	ldr	r3, [r3, #8]
 80052ee:	781b      	ldrb	r3, [r3, #0]
 80052f0:	075b      	lsls	r3, r3, #29
 80052f2:	0f9b      	lsrs	r3, r3, #30
 80052f4:	b2db      	uxtb	r3, r3
 80052f6:	001a      	movs	r2, r3
 80052f8:	2302      	movs	r3, #2
 80052fa:	4013      	ands	r3, r2
 80052fc:	d005      	beq.n	800530a <TSL_tkey_DebProxDetectStateProcess+0x26>
  {
    THIS_STATEID = TSL_STATEID_DETECT;
 80052fe:	4b2d      	ldr	r3, [pc, #180]	; (80053b4 <TSL_tkey_DebProxDetectStateProcess+0xd0>)
 8005300:	695b      	ldr	r3, [r3, #20]
 8005302:	681b      	ldr	r3, [r3, #0]
 8005304:	220a      	movs	r2, #10
 8005306:	701a      	strb	r2, [r3, #0]
 8005308:	e051      	b.n	80053ae <TSL_tkey_DebProxDetectStateProcess+0xca>
  }
  else // Acquisition is OK or has NOISE
  {
    if TEST_DELTA(>, THIS_DETECTOUT_TH)
 800530a:	4b2a      	ldr	r3, [pc, #168]	; (80053b4 <TSL_tkey_DebProxDetectStateProcess+0xd0>)
 800530c:	695b      	ldr	r3, [r3, #20]
 800530e:	689b      	ldr	r3, [r3, #8]
 8005310:	2208      	movs	r2, #8
 8005312:	5e9b      	ldrsh	r3, [r3, r2]
 8005314:	001a      	movs	r2, r3
 8005316:	4b27      	ldr	r3, [pc, #156]	; (80053b4 <TSL_tkey_DebProxDetectStateProcess+0xd0>)
 8005318:	695b      	ldr	r3, [r3, #20]
 800531a:	685b      	ldr	r3, [r3, #4]
 800531c:	78db      	ldrb	r3, [r3, #3]
 800531e:	429a      	cmp	r2, r3
 8005320:	dd05      	ble.n	800532e <TSL_tkey_DebProxDetectStateProcess+0x4a>
    {
      TEST_DELTA_NEGATIVE;
      THIS_STATEID = TSL_STATEID_DETECT;
 8005322:	4b24      	ldr	r3, [pc, #144]	; (80053b4 <TSL_tkey_DebProxDetectStateProcess+0xd0>)
 8005324:	695b      	ldr	r3, [r3, #20]
 8005326:	681b      	ldr	r3, [r3, #0]
 8005328:	220a      	movs	r2, #10
 800532a:	701a      	strb	r2, [r3, #0]
      return;
 800532c:	e03f      	b.n	80053ae <TSL_tkey_DebProxDetectStateProcess+0xca>
    }

    if (THIS_DELTA > THIS_PROXOUT_TH)
 800532e:	4b21      	ldr	r3, [pc, #132]	; (80053b4 <TSL_tkey_DebProxDetectStateProcess+0xd0>)
 8005330:	695b      	ldr	r3, [r3, #20]
 8005332:	689b      	ldr	r3, [r3, #8]
 8005334:	2208      	movs	r2, #8
 8005336:	5e9b      	ldrsh	r3, [r3, r2]
 8005338:	001a      	movs	r2, r3
 800533a:	4b1e      	ldr	r3, [pc, #120]	; (80053b4 <TSL_tkey_DebProxDetectStateProcess+0xd0>)
 800533c:	695b      	ldr	r3, [r3, #20]
 800533e:	685b      	ldr	r3, [r3, #4]
 8005340:	785b      	ldrb	r3, [r3, #1]
 8005342:	429a      	cmp	r2, r3
 8005344:	dd1a      	ble.n	800537c <TSL_tkey_DebProxDetectStateProcess+0x98>
    {
      if (THIS_COUNTER_DEB > 0) {THIS_COUNTER_DEB--;}
 8005346:	4b1b      	ldr	r3, [pc, #108]	; (80053b4 <TSL_tkey_DebProxDetectStateProcess+0xd0>)
 8005348:	695b      	ldr	r3, [r3, #20]
 800534a:	681b      	ldr	r3, [r3, #0]
 800534c:	785b      	ldrb	r3, [r3, #1]
 800534e:	2b00      	cmp	r3, #0
 8005350:	d006      	beq.n	8005360 <TSL_tkey_DebProxDetectStateProcess+0x7c>
 8005352:	4b18      	ldr	r3, [pc, #96]	; (80053b4 <TSL_tkey_DebProxDetectStateProcess+0xd0>)
 8005354:	695b      	ldr	r3, [r3, #20]
 8005356:	681b      	ldr	r3, [r3, #0]
 8005358:	785a      	ldrb	r2, [r3, #1]
 800535a:	3a01      	subs	r2, #1
 800535c:	b2d2      	uxtb	r2, r2
 800535e:	705a      	strb	r2, [r3, #1]
      if (THIS_COUNTER_DEB == 0)
 8005360:	4b14      	ldr	r3, [pc, #80]	; (80053b4 <TSL_tkey_DebProxDetectStateProcess+0xd0>)
 8005362:	695b      	ldr	r3, [r3, #20]
 8005364:	681b      	ldr	r3, [r3, #0]
 8005366:	785b      	ldrb	r3, [r3, #1]
 8005368:	2b00      	cmp	r3, #0
 800536a:	d120      	bne.n	80053ae <TSL_tkey_DebProxDetectStateProcess+0xca>
      {
        THIS_STATEID = TSL_STATEID_PROX;
 800536c:	4b11      	ldr	r3, [pc, #68]	; (80053b4 <TSL_tkey_DebProxDetectStateProcess+0xd0>)
 800536e:	695b      	ldr	r3, [r3, #20]
 8005370:	681b      	ldr	r3, [r3, #0]
 8005372:	2206      	movs	r2, #6
 8005374:	701a      	strb	r2, [r3, #0]
        DTO_GET_TIME; // Take current time for DTO processing
 8005376:	f000 fb33 	bl	80059e0 <TSL_tkey_DTOGetTime>
 800537a:	e018      	b.n	80053ae <TSL_tkey_DebProxDetectStateProcess+0xca>
      }
      // else stay in Debounce Proximity
    }
    else
    {
      THIS_COUNTER_DEB = THIS_COUNTER_DEB_RELEASE;
 800537c:	4b0d      	ldr	r3, [pc, #52]	; (80053b4 <TSL_tkey_DebProxDetectStateProcess+0xd0>)
 800537e:	695b      	ldr	r3, [r3, #20]
 8005380:	681a      	ldr	r2, [r3, #0]
 8005382:	4b0c      	ldr	r3, [pc, #48]	; (80053b4 <TSL_tkey_DebProxDetectStateProcess+0xd0>)
 8005384:	695b      	ldr	r3, [r3, #20]
 8005386:	685b      	ldr	r3, [r3, #4]
 8005388:	7a1b      	ldrb	r3, [r3, #8]
 800538a:	7053      	strb	r3, [r2, #1]
      if (THIS_COUNTER_DEB == 0)
 800538c:	4b09      	ldr	r3, [pc, #36]	; (80053b4 <TSL_tkey_DebProxDetectStateProcess+0xd0>)
 800538e:	695b      	ldr	r3, [r3, #20]
 8005390:	681b      	ldr	r3, [r3, #0]
 8005392:	785b      	ldrb	r3, [r3, #1]
 8005394:	2b00      	cmp	r3, #0
 8005396:	d105      	bne.n	80053a4 <TSL_tkey_DebProxDetectStateProcess+0xc0>
      {
        THIS_STATEID = TSL_STATEID_RELEASE;
 8005398:	4b06      	ldr	r3, [pc, #24]	; (80053b4 <TSL_tkey_DebProxDetectStateProcess+0xd0>)
 800539a:	695b      	ldr	r3, [r3, #20]
 800539c:	681b      	ldr	r3, [r3, #0]
 800539e:	2202      	movs	r2, #2
 80053a0:	701a      	strb	r2, [r3, #0]
 80053a2:	e004      	b.n	80053ae <TSL_tkey_DebProxDetectStateProcess+0xca>
      }
      else
      {
        THIS_STATEID = TSL_STATEID_DEB_RELEASE_DETECT;
 80053a4:	4b03      	ldr	r3, [pc, #12]	; (80053b4 <TSL_tkey_DebProxDetectStateProcess+0xd0>)
 80053a6:	695b      	ldr	r3, [r3, #20]
 80053a8:	681b      	ldr	r3, [r3, #0]
 80053aa:	2204      	movs	r2, #4
 80053ac:	701a      	strb	r2, [r3, #0]
      }
    }
  }
}
 80053ae:	46bd      	mov	sp, r7
 80053b0:	bd80      	pop	{r7, pc}
 80053b2:	46c0      	nop			; (mov r8, r8)
 80053b4:	2000046c 	.word	0x2000046c

080053b8 <TSL_tkey_DebProxTouchStateProcess>:
  * @brief  Debounce Proximity processing (previous state = Touch)
  * @param  None
  * @retval None
  */
void TSL_tkey_DebProxTouchStateProcess(void)
{
 80053b8:	b580      	push	{r7, lr}
 80053ba:	af00      	add	r7, sp, #0
  if (THIS_ACQ_STATUS & TSL_ACQ_STATUS_ERROR_MASK) // Acquisition error (min or max)
 80053bc:	4b32      	ldr	r3, [pc, #200]	; (8005488 <TSL_tkey_DebProxTouchStateProcess+0xd0>)
 80053be:	695b      	ldr	r3, [r3, #20]
 80053c0:	689b      	ldr	r3, [r3, #8]
 80053c2:	781b      	ldrb	r3, [r3, #0]
 80053c4:	075b      	lsls	r3, r3, #29
 80053c6:	0f9b      	lsrs	r3, r3, #30
 80053c8:	b2db      	uxtb	r3, r3
 80053ca:	001a      	movs	r2, r3
 80053cc:	2302      	movs	r3, #2
 80053ce:	4013      	ands	r3, r2
 80053d0:	d005      	beq.n	80053de <TSL_tkey_DebProxTouchStateProcess+0x26>
  {
    THIS_STATEID = TSL_STATEID_TOUCH;
 80053d2:	4b2d      	ldr	r3, [pc, #180]	; (8005488 <TSL_tkey_DebProxTouchStateProcess+0xd0>)
 80053d4:	695b      	ldr	r3, [r3, #20]
 80053d6:	681b      	ldr	r3, [r3, #0]
 80053d8:	220c      	movs	r2, #12
 80053da:	701a      	strb	r2, [r3, #0]
 80053dc:	e051      	b.n	8005482 <TSL_tkey_DebProxTouchStateProcess+0xca>
  }
  else // Acquisition is OK or has NOISE
  {
    if TEST_DELTA(>, THIS_DETECTOUT_TH)
 80053de:	4b2a      	ldr	r3, [pc, #168]	; (8005488 <TSL_tkey_DebProxTouchStateProcess+0xd0>)
 80053e0:	695b      	ldr	r3, [r3, #20]
 80053e2:	689b      	ldr	r3, [r3, #8]
 80053e4:	2208      	movs	r2, #8
 80053e6:	5e9b      	ldrsh	r3, [r3, r2]
 80053e8:	001a      	movs	r2, r3
 80053ea:	4b27      	ldr	r3, [pc, #156]	; (8005488 <TSL_tkey_DebProxTouchStateProcess+0xd0>)
 80053ec:	695b      	ldr	r3, [r3, #20]
 80053ee:	685b      	ldr	r3, [r3, #4]
 80053f0:	78db      	ldrb	r3, [r3, #3]
 80053f2:	429a      	cmp	r2, r3
 80053f4:	dd05      	ble.n	8005402 <TSL_tkey_DebProxTouchStateProcess+0x4a>
    {
      TEST_DELTA_NEGATIVE;
      THIS_STATEID = TSL_STATEID_TOUCH;
 80053f6:	4b24      	ldr	r3, [pc, #144]	; (8005488 <TSL_tkey_DebProxTouchStateProcess+0xd0>)
 80053f8:	695b      	ldr	r3, [r3, #20]
 80053fa:	681b      	ldr	r3, [r3, #0]
 80053fc:	220c      	movs	r2, #12
 80053fe:	701a      	strb	r2, [r3, #0]
      return;
 8005400:	e03f      	b.n	8005482 <TSL_tkey_DebProxTouchStateProcess+0xca>
    }

    if (THIS_DELTA > THIS_PROXOUT_TH)
 8005402:	4b21      	ldr	r3, [pc, #132]	; (8005488 <TSL_tkey_DebProxTouchStateProcess+0xd0>)
 8005404:	695b      	ldr	r3, [r3, #20]
 8005406:	689b      	ldr	r3, [r3, #8]
 8005408:	2208      	movs	r2, #8
 800540a:	5e9b      	ldrsh	r3, [r3, r2]
 800540c:	001a      	movs	r2, r3
 800540e:	4b1e      	ldr	r3, [pc, #120]	; (8005488 <TSL_tkey_DebProxTouchStateProcess+0xd0>)
 8005410:	695b      	ldr	r3, [r3, #20]
 8005412:	685b      	ldr	r3, [r3, #4]
 8005414:	785b      	ldrb	r3, [r3, #1]
 8005416:	429a      	cmp	r2, r3
 8005418:	dd1a      	ble.n	8005450 <TSL_tkey_DebProxTouchStateProcess+0x98>
    {
      if (THIS_COUNTER_DEB > 0) {THIS_COUNTER_DEB--;}
 800541a:	4b1b      	ldr	r3, [pc, #108]	; (8005488 <TSL_tkey_DebProxTouchStateProcess+0xd0>)
 800541c:	695b      	ldr	r3, [r3, #20]
 800541e:	681b      	ldr	r3, [r3, #0]
 8005420:	785b      	ldrb	r3, [r3, #1]
 8005422:	2b00      	cmp	r3, #0
 8005424:	d006      	beq.n	8005434 <TSL_tkey_DebProxTouchStateProcess+0x7c>
 8005426:	4b18      	ldr	r3, [pc, #96]	; (8005488 <TSL_tkey_DebProxTouchStateProcess+0xd0>)
 8005428:	695b      	ldr	r3, [r3, #20]
 800542a:	681b      	ldr	r3, [r3, #0]
 800542c:	785a      	ldrb	r2, [r3, #1]
 800542e:	3a01      	subs	r2, #1
 8005430:	b2d2      	uxtb	r2, r2
 8005432:	705a      	strb	r2, [r3, #1]
      if (THIS_COUNTER_DEB == 0)
 8005434:	4b14      	ldr	r3, [pc, #80]	; (8005488 <TSL_tkey_DebProxTouchStateProcess+0xd0>)
 8005436:	695b      	ldr	r3, [r3, #20]
 8005438:	681b      	ldr	r3, [r3, #0]
 800543a:	785b      	ldrb	r3, [r3, #1]
 800543c:	2b00      	cmp	r3, #0
 800543e:	d120      	bne.n	8005482 <TSL_tkey_DebProxTouchStateProcess+0xca>
      {
        THIS_STATEID = TSL_STATEID_PROX;
 8005440:	4b11      	ldr	r3, [pc, #68]	; (8005488 <TSL_tkey_DebProxTouchStateProcess+0xd0>)
 8005442:	695b      	ldr	r3, [r3, #20]
 8005444:	681b      	ldr	r3, [r3, #0]
 8005446:	2206      	movs	r2, #6
 8005448:	701a      	strb	r2, [r3, #0]
        DTO_GET_TIME; // Take current time for DTO processing
 800544a:	f000 fac9 	bl	80059e0 <TSL_tkey_DTOGetTime>
 800544e:	e018      	b.n	8005482 <TSL_tkey_DebProxTouchStateProcess+0xca>
      }
      // else stay in Debounce Proximity
    }
    else
    {
      THIS_COUNTER_DEB = THIS_COUNTER_DEB_RELEASE;
 8005450:	4b0d      	ldr	r3, [pc, #52]	; (8005488 <TSL_tkey_DebProxTouchStateProcess+0xd0>)
 8005452:	695b      	ldr	r3, [r3, #20]
 8005454:	681a      	ldr	r2, [r3, #0]
 8005456:	4b0c      	ldr	r3, [pc, #48]	; (8005488 <TSL_tkey_DebProxTouchStateProcess+0xd0>)
 8005458:	695b      	ldr	r3, [r3, #20]
 800545a:	685b      	ldr	r3, [r3, #4]
 800545c:	7a1b      	ldrb	r3, [r3, #8]
 800545e:	7053      	strb	r3, [r2, #1]
      if (THIS_COUNTER_DEB == 0)
 8005460:	4b09      	ldr	r3, [pc, #36]	; (8005488 <TSL_tkey_DebProxTouchStateProcess+0xd0>)
 8005462:	695b      	ldr	r3, [r3, #20]
 8005464:	681b      	ldr	r3, [r3, #0]
 8005466:	785b      	ldrb	r3, [r3, #1]
 8005468:	2b00      	cmp	r3, #0
 800546a:	d105      	bne.n	8005478 <TSL_tkey_DebProxTouchStateProcess+0xc0>
      {
        THIS_STATEID = TSL_STATEID_RELEASE;
 800546c:	4b06      	ldr	r3, [pc, #24]	; (8005488 <TSL_tkey_DebProxTouchStateProcess+0xd0>)
 800546e:	695b      	ldr	r3, [r3, #20]
 8005470:	681b      	ldr	r3, [r3, #0]
 8005472:	2202      	movs	r2, #2
 8005474:	701a      	strb	r2, [r3, #0]
 8005476:	e004      	b.n	8005482 <TSL_tkey_DebProxTouchStateProcess+0xca>
      }
      else
      {
        THIS_STATEID = TSL_STATEID_DEB_RELEASE_TOUCH;
 8005478:	4b03      	ldr	r3, [pc, #12]	; (8005488 <TSL_tkey_DebProxTouchStateProcess+0xd0>)
 800547a:	695b      	ldr	r3, [r3, #20]
 800547c:	681b      	ldr	r3, [r3, #0]
 800547e:	2205      	movs	r2, #5
 8005480:	701a      	strb	r2, [r3, #0]
      }
    }
  }
}
 8005482:	46bd      	mov	sp, r7
 8005484:	bd80      	pop	{r7, pc}
 8005486:	46c0      	nop			; (mov r8, r8)
 8005488:	2000046c 	.word	0x2000046c

0800548c <TSL_tkey_ProxStateProcess>:
  * @brief  Proximity state processing
  * @param  None
  * @retval None
  */
void TSL_tkey_ProxStateProcess(void)
{
 800548c:	b580      	push	{r7, lr}
 800548e:	b082      	sub	sp, #8
 8005490:	af00      	add	r7, sp, #0
#if TSLPRM_DTO > 0
  TSL_tTick_sec_T tick_detected;
#endif

  if (THIS_ACQ_STATUS & TSL_ACQ_STATUS_ERROR_MASK) // Acquisition error (min or max)
 8005492:	4b4a      	ldr	r3, [pc, #296]	; (80055bc <TSL_tkey_ProxStateProcess+0x130>)
 8005494:	695b      	ldr	r3, [r3, #20]
 8005496:	689b      	ldr	r3, [r3, #8]
 8005498:	781b      	ldrb	r3, [r3, #0]
 800549a:	075b      	lsls	r3, r3, #29
 800549c:	0f9b      	lsrs	r3, r3, #30
 800549e:	b2db      	uxtb	r3, r3
 80054a0:	001a      	movs	r2, r3
 80054a2:	2302      	movs	r3, #2
 80054a4:	4013      	ands	r3, r2
 80054a6:	d019      	beq.n	80054dc <TSL_tkey_ProxStateProcess+0x50>
  {
    THIS_COUNTER_DEB = THIS_COUNTER_DEB_ERROR;
 80054a8:	4b44      	ldr	r3, [pc, #272]	; (80055bc <TSL_tkey_ProxStateProcess+0x130>)
 80054aa:	695b      	ldr	r3, [r3, #20]
 80054ac:	681a      	ldr	r2, [r3, #0]
 80054ae:	4b43      	ldr	r3, [pc, #268]	; (80055bc <TSL_tkey_ProxStateProcess+0x130>)
 80054b0:	695b      	ldr	r3, [r3, #20]
 80054b2:	685b      	ldr	r3, [r3, #4]
 80054b4:	7a5b      	ldrb	r3, [r3, #9]
 80054b6:	7053      	strb	r3, [r2, #1]
    if (THIS_COUNTER_DEB == 0)
 80054b8:	4b40      	ldr	r3, [pc, #256]	; (80055bc <TSL_tkey_ProxStateProcess+0x130>)
 80054ba:	695b      	ldr	r3, [r3, #20]
 80054bc:	681b      	ldr	r3, [r3, #0]
 80054be:	785b      	ldrb	r3, [r3, #1]
 80054c0:	2b00      	cmp	r3, #0
 80054c2:	d105      	bne.n	80054d0 <TSL_tkey_ProxStateProcess+0x44>
    {
      THIS_STATEID = TSL_STATEID_ERROR;
 80054c4:	4b3d      	ldr	r3, [pc, #244]	; (80055bc <TSL_tkey_ProxStateProcess+0x130>)
 80054c6:	695b      	ldr	r3, [r3, #20]
 80054c8:	681b      	ldr	r3, [r3, #0]
 80054ca:	220d      	movs	r2, #13
 80054cc:	701a      	strb	r2, [r3, #0]
 80054ce:	e071      	b.n	80055b4 <TSL_tkey_ProxStateProcess+0x128>
    }
    else
    {
      THIS_STATEID = TSL_STATEID_DEB_ERROR_PROX;
 80054d0:	4b3a      	ldr	r3, [pc, #232]	; (80055bc <TSL_tkey_ProxStateProcess+0x130>)
 80054d2:	695b      	ldr	r3, [r3, #20]
 80054d4:	681b      	ldr	r3, [r3, #0]
 80054d6:	2210      	movs	r2, #16
 80054d8:	701a      	strb	r2, [r3, #0]
 80054da:	e06b      	b.n	80055b4 <TSL_tkey_ProxStateProcess+0x128>
    }
  }
  else // Acquisition is OK or has NOISE
  {
    if TEST_DELTA(>=, THIS_DETECTIN_TH)
 80054dc:	4b37      	ldr	r3, [pc, #220]	; (80055bc <TSL_tkey_ProxStateProcess+0x130>)
 80054de:	695b      	ldr	r3, [r3, #20]
 80054e0:	689b      	ldr	r3, [r3, #8]
 80054e2:	2208      	movs	r2, #8
 80054e4:	5e9b      	ldrsh	r3, [r3, r2]
 80054e6:	001a      	movs	r2, r3
 80054e8:	4b34      	ldr	r3, [pc, #208]	; (80055bc <TSL_tkey_ProxStateProcess+0x130>)
 80054ea:	695b      	ldr	r3, [r3, #20]
 80054ec:	685b      	ldr	r3, [r3, #4]
 80054ee:	789b      	ldrb	r3, [r3, #2]
 80054f0:	429a      	cmp	r2, r3
 80054f2:	db1b      	blt.n	800552c <TSL_tkey_ProxStateProcess+0xa0>
    {
      TEST_DELTA_NEGATIVE;
      THIS_COUNTER_DEB = THIS_COUNTER_DEB_DETECT;
 80054f4:	4b31      	ldr	r3, [pc, #196]	; (80055bc <TSL_tkey_ProxStateProcess+0x130>)
 80054f6:	695b      	ldr	r3, [r3, #20]
 80054f8:	681a      	ldr	r2, [r3, #0]
 80054fa:	4b30      	ldr	r3, [pc, #192]	; (80055bc <TSL_tkey_ProxStateProcess+0x130>)
 80054fc:	695b      	ldr	r3, [r3, #20]
 80054fe:	685b      	ldr	r3, [r3, #4]
 8005500:	79db      	ldrb	r3, [r3, #7]
 8005502:	7053      	strb	r3, [r2, #1]
      if (THIS_COUNTER_DEB == 0)
 8005504:	4b2d      	ldr	r3, [pc, #180]	; (80055bc <TSL_tkey_ProxStateProcess+0x130>)
 8005506:	695b      	ldr	r3, [r3, #20]
 8005508:	681b      	ldr	r3, [r3, #0]
 800550a:	785b      	ldrb	r3, [r3, #1]
 800550c:	2b00      	cmp	r3, #0
 800550e:	d107      	bne.n	8005520 <TSL_tkey_ProxStateProcess+0x94>
      {
        THIS_STATEID = TSL_STATEID_DETECT;
 8005510:	4b2a      	ldr	r3, [pc, #168]	; (80055bc <TSL_tkey_ProxStateProcess+0x130>)
 8005512:	695b      	ldr	r3, [r3, #20]
 8005514:	681b      	ldr	r3, [r3, #0]
 8005516:	220a      	movs	r2, #10
 8005518:	701a      	strb	r2, [r3, #0]
        DTO_GET_TIME; // Take current time for DTO processing
 800551a:	f000 fa61 	bl	80059e0 <TSL_tkey_DTOGetTime>
      }
      else
      {
        THIS_STATEID = TSL_STATEID_DEB_DETECT;
      }
      return;
 800551e:	e049      	b.n	80055b4 <TSL_tkey_ProxStateProcess+0x128>
        THIS_STATEID = TSL_STATEID_DEB_DETECT;
 8005520:	4b26      	ldr	r3, [pc, #152]	; (80055bc <TSL_tkey_ProxStateProcess+0x130>)
 8005522:	695b      	ldr	r3, [r3, #20]
 8005524:	681b      	ldr	r3, [r3, #0]
 8005526:	220b      	movs	r2, #11
 8005528:	701a      	strb	r2, [r3, #0]
      return;
 800552a:	e043      	b.n	80055b4 <TSL_tkey_ProxStateProcess+0x128>
    }

    if (THIS_DELTA <= THIS_PROXOUT_TH)
 800552c:	4b23      	ldr	r3, [pc, #140]	; (80055bc <TSL_tkey_ProxStateProcess+0x130>)
 800552e:	695b      	ldr	r3, [r3, #20]
 8005530:	689b      	ldr	r3, [r3, #8]
 8005532:	2208      	movs	r2, #8
 8005534:	5e9b      	ldrsh	r3, [r3, r2]
 8005536:	001a      	movs	r2, r3
 8005538:	4b20      	ldr	r3, [pc, #128]	; (80055bc <TSL_tkey_ProxStateProcess+0x130>)
 800553a:	695b      	ldr	r3, [r3, #20]
 800553c:	685b      	ldr	r3, [r3, #4]
 800553e:	785b      	ldrb	r3, [r3, #1]
 8005540:	429a      	cmp	r2, r3
 8005542:	dc19      	bgt.n	8005578 <TSL_tkey_ProxStateProcess+0xec>
    {
      THIS_COUNTER_DEB = THIS_COUNTER_DEB_RELEASE;
 8005544:	4b1d      	ldr	r3, [pc, #116]	; (80055bc <TSL_tkey_ProxStateProcess+0x130>)
 8005546:	695b      	ldr	r3, [r3, #20]
 8005548:	681a      	ldr	r2, [r3, #0]
 800554a:	4b1c      	ldr	r3, [pc, #112]	; (80055bc <TSL_tkey_ProxStateProcess+0x130>)
 800554c:	695b      	ldr	r3, [r3, #20]
 800554e:	685b      	ldr	r3, [r3, #4]
 8005550:	7a1b      	ldrb	r3, [r3, #8]
 8005552:	7053      	strb	r3, [r2, #1]
      if (THIS_COUNTER_DEB == 0)
 8005554:	4b19      	ldr	r3, [pc, #100]	; (80055bc <TSL_tkey_ProxStateProcess+0x130>)
 8005556:	695b      	ldr	r3, [r3, #20]
 8005558:	681b      	ldr	r3, [r3, #0]
 800555a:	785b      	ldrb	r3, [r3, #1]
 800555c:	2b00      	cmp	r3, #0
 800555e:	d105      	bne.n	800556c <TSL_tkey_ProxStateProcess+0xe0>
      {
        THIS_STATEID = TSL_STATEID_RELEASE;
 8005560:	4b16      	ldr	r3, [pc, #88]	; (80055bc <TSL_tkey_ProxStateProcess+0x130>)
 8005562:	695b      	ldr	r3, [r3, #20]
 8005564:	681b      	ldr	r3, [r3, #0]
 8005566:	2202      	movs	r2, #2
 8005568:	701a      	strb	r2, [r3, #0]
      }
      else
      {
        THIS_STATEID = TSL_STATEID_DEB_RELEASE_PROX;
      }
      return;
 800556a:	e023      	b.n	80055b4 <TSL_tkey_ProxStateProcess+0x128>
        THIS_STATEID = TSL_STATEID_DEB_RELEASE_PROX;
 800556c:	4b13      	ldr	r3, [pc, #76]	; (80055bc <TSL_tkey_ProxStateProcess+0x130>)
 800556e:	695b      	ldr	r3, [r3, #20]
 8005570:	681b      	ldr	r3, [r3, #0]
 8005572:	2203      	movs	r2, #3
 8005574:	701a      	strb	r2, [r3, #0]
      return;
 8005576:	e01d      	b.n	80055b4 <TSL_tkey_ProxStateProcess+0x128>
    // Stay in Proximity state
#if TSLPRM_DTO > 0
    //------------------------------------
    // Detection Time Out (DTO) processing
    //------------------------------------
    if ((TSL_Params.DTO > 1) && (TSL_Params.DTO < 64))
 8005578:	4b11      	ldr	r3, [pc, #68]	; (80055c0 <TSL_tkey_ProxStateProcess+0x134>)
 800557a:	799b      	ldrb	r3, [r3, #6]
 800557c:	2b01      	cmp	r3, #1
 800557e:	d919      	bls.n	80055b4 <TSL_tkey_ProxStateProcess+0x128>
 8005580:	4b0f      	ldr	r3, [pc, #60]	; (80055c0 <TSL_tkey_ProxStateProcess+0x134>)
 8005582:	799b      	ldrb	r3, [r3, #6]
 8005584:	2b3f      	cmp	r3, #63	; 0x3f
 8005586:	d815      	bhi.n	80055b4 <TSL_tkey_ProxStateProcess+0x128>
    {
      tick_detected = THIS_COUNTER_DTO; // Get the detected time previously saved
 8005588:	4b0c      	ldr	r3, [pc, #48]	; (80055bc <TSL_tkey_ProxStateProcess+0x130>)
 800558a:	695b      	ldr	r3, [r3, #20]
 800558c:	681b      	ldr	r3, [r3, #0]
 800558e:	789b      	ldrb	r3, [r3, #2]
 8005590:	069b      	lsls	r3, r3, #26
 8005592:	0e9b      	lsrs	r3, r3, #26
 8005594:	b2db      	uxtb	r3, r3
 8005596:	001a      	movs	r2, r3
 8005598:	1dfb      	adds	r3, r7, #7
 800559a:	701a      	strb	r2, [r3, #0]
      // Enter in calibration state if the DTO duration has elapsed
      if (TSL_tim_CheckDelay_sec(TSL_Params.DTO, &tick_detected) == TSL_STATUS_OK)
 800559c:	4b08      	ldr	r3, [pc, #32]	; (80055c0 <TSL_tkey_ProxStateProcess+0x134>)
 800559e:	799b      	ldrb	r3, [r3, #6]
 80055a0:	1dfa      	adds	r2, r7, #7
 80055a2:	0011      	movs	r1, r2
 80055a4:	0018      	movs	r0, r3
 80055a6:	f7ff fa69 	bl	8004a7c <TSL_tim_CheckDelay_sec>
 80055aa:	1e03      	subs	r3, r0, #0
 80055ac:	d102      	bne.n	80055b4 <TSL_tkey_ProxStateProcess+0x128>
      {
        TSL_tkey_SetStateCalibration(0);
 80055ae:	2000      	movs	r0, #0
 80055b0:	f7ff fb4e 	bl	8004c50 <TSL_tkey_SetStateCalibration>
      }
    }
#endif

  }
}
 80055b4:	46bd      	mov	sp, r7
 80055b6:	b002      	add	sp, #8
 80055b8:	bd80      	pop	{r7, pc}
 80055ba:	46c0      	nop			; (mov r8, r8)
 80055bc:	2000046c 	.word	0x2000046c
 80055c0:	20000018 	.word	0x20000018

080055c4 <TSL_tkey_DebDetectStateProcess>:
  * @brief  Debounce Detect processing (previous state = Release or Proximity)
  * @param  None
  * @retval None
  */
void TSL_tkey_DebDetectStateProcess(void)
{
 80055c4:	b580      	push	{r7, lr}
 80055c6:	af00      	add	r7, sp, #0
  if (THIS_ACQ_STATUS & TSL_ACQ_STATUS_ERROR_MASK) // Acquisition error (min or max)
 80055c8:	4b33      	ldr	r3, [pc, #204]	; (8005698 <TSL_tkey_DebDetectStateProcess+0xd4>)
 80055ca:	695b      	ldr	r3, [r3, #20]
 80055cc:	689b      	ldr	r3, [r3, #8]
 80055ce:	781b      	ldrb	r3, [r3, #0]
 80055d0:	075b      	lsls	r3, r3, #29
 80055d2:	0f9b      	lsrs	r3, r3, #30
 80055d4:	b2db      	uxtb	r3, r3
 80055d6:	001a      	movs	r2, r3
 80055d8:	2302      	movs	r3, #2
 80055da:	4013      	ands	r3, r2
 80055dc:	d005      	beq.n	80055ea <TSL_tkey_DebDetectStateProcess+0x26>
  {
    THIS_STATEID = TSL_STATEID_RELEASE;
 80055de:	4b2e      	ldr	r3, [pc, #184]	; (8005698 <TSL_tkey_DebDetectStateProcess+0xd4>)
 80055e0:	695b      	ldr	r3, [r3, #20]
 80055e2:	681b      	ldr	r3, [r3, #0]
 80055e4:	2202      	movs	r2, #2
 80055e6:	701a      	strb	r2, [r3, #0]
#else
      THIS_STATEID = TSL_STATEID_RELEASE;
#endif
    }
  }
}
 80055e8:	e053      	b.n	8005692 <TSL_tkey_DebDetectStateProcess+0xce>
    if TEST_DELTA(>=, THIS_DETECTIN_TH)
 80055ea:	4b2b      	ldr	r3, [pc, #172]	; (8005698 <TSL_tkey_DebDetectStateProcess+0xd4>)
 80055ec:	695b      	ldr	r3, [r3, #20]
 80055ee:	689b      	ldr	r3, [r3, #8]
 80055f0:	2208      	movs	r2, #8
 80055f2:	5e9b      	ldrsh	r3, [r3, r2]
 80055f4:	001a      	movs	r2, r3
 80055f6:	4b28      	ldr	r3, [pc, #160]	; (8005698 <TSL_tkey_DebDetectStateProcess+0xd4>)
 80055f8:	695b      	ldr	r3, [r3, #20]
 80055fa:	685b      	ldr	r3, [r3, #4]
 80055fc:	789b      	ldrb	r3, [r3, #2]
 80055fe:	429a      	cmp	r2, r3
 8005600:	db1a      	blt.n	8005638 <TSL_tkey_DebDetectStateProcess+0x74>
      if (THIS_COUNTER_DEB > 0) {THIS_COUNTER_DEB--;}
 8005602:	4b25      	ldr	r3, [pc, #148]	; (8005698 <TSL_tkey_DebDetectStateProcess+0xd4>)
 8005604:	695b      	ldr	r3, [r3, #20]
 8005606:	681b      	ldr	r3, [r3, #0]
 8005608:	785b      	ldrb	r3, [r3, #1]
 800560a:	2b00      	cmp	r3, #0
 800560c:	d006      	beq.n	800561c <TSL_tkey_DebDetectStateProcess+0x58>
 800560e:	4b22      	ldr	r3, [pc, #136]	; (8005698 <TSL_tkey_DebDetectStateProcess+0xd4>)
 8005610:	695b      	ldr	r3, [r3, #20]
 8005612:	681b      	ldr	r3, [r3, #0]
 8005614:	785a      	ldrb	r2, [r3, #1]
 8005616:	3a01      	subs	r2, #1
 8005618:	b2d2      	uxtb	r2, r2
 800561a:	705a      	strb	r2, [r3, #1]
      if (THIS_COUNTER_DEB == 0)
 800561c:	4b1e      	ldr	r3, [pc, #120]	; (8005698 <TSL_tkey_DebDetectStateProcess+0xd4>)
 800561e:	695b      	ldr	r3, [r3, #20]
 8005620:	681b      	ldr	r3, [r3, #0]
 8005622:	785b      	ldrb	r3, [r3, #1]
 8005624:	2b00      	cmp	r3, #0
 8005626:	d134      	bne.n	8005692 <TSL_tkey_DebDetectStateProcess+0xce>
        THIS_STATEID = TSL_STATEID_DETECT;
 8005628:	4b1b      	ldr	r3, [pc, #108]	; (8005698 <TSL_tkey_DebDetectStateProcess+0xd4>)
 800562a:	695b      	ldr	r3, [r3, #20]
 800562c:	681b      	ldr	r3, [r3, #0]
 800562e:	220a      	movs	r2, #10
 8005630:	701a      	strb	r2, [r3, #0]
        DTO_GET_TIME; // Take current time for DTO processing
 8005632:	f000 f9d5 	bl	80059e0 <TSL_tkey_DTOGetTime>
}
 8005636:	e02c      	b.n	8005692 <TSL_tkey_DebDetectStateProcess+0xce>
      if (THIS_DELTA >= THIS_PROXIN_TH)
 8005638:	4b17      	ldr	r3, [pc, #92]	; (8005698 <TSL_tkey_DebDetectStateProcess+0xd4>)
 800563a:	695b      	ldr	r3, [r3, #20]
 800563c:	689b      	ldr	r3, [r3, #8]
 800563e:	2208      	movs	r2, #8
 8005640:	5e9b      	ldrsh	r3, [r3, r2]
 8005642:	001a      	movs	r2, r3
 8005644:	4b14      	ldr	r3, [pc, #80]	; (8005698 <TSL_tkey_DebDetectStateProcess+0xd4>)
 8005646:	695b      	ldr	r3, [r3, #20]
 8005648:	685b      	ldr	r3, [r3, #4]
 800564a:	781b      	ldrb	r3, [r3, #0]
 800564c:	429a      	cmp	r2, r3
 800564e:	db1b      	blt.n	8005688 <TSL_tkey_DebDetectStateProcess+0xc4>
        THIS_COUNTER_DEB = THIS_COUNTER_DEB_PROX;
 8005650:	4b11      	ldr	r3, [pc, #68]	; (8005698 <TSL_tkey_DebDetectStateProcess+0xd4>)
 8005652:	695b      	ldr	r3, [r3, #20]
 8005654:	681a      	ldr	r2, [r3, #0]
 8005656:	4b10      	ldr	r3, [pc, #64]	; (8005698 <TSL_tkey_DebDetectStateProcess+0xd4>)
 8005658:	695b      	ldr	r3, [r3, #20]
 800565a:	685b      	ldr	r3, [r3, #4]
 800565c:	799b      	ldrb	r3, [r3, #6]
 800565e:	7053      	strb	r3, [r2, #1]
        if (THIS_COUNTER_DEB == 0)
 8005660:	4b0d      	ldr	r3, [pc, #52]	; (8005698 <TSL_tkey_DebDetectStateProcess+0xd4>)
 8005662:	695b      	ldr	r3, [r3, #20]
 8005664:	681b      	ldr	r3, [r3, #0]
 8005666:	785b      	ldrb	r3, [r3, #1]
 8005668:	2b00      	cmp	r3, #0
 800566a:	d107      	bne.n	800567c <TSL_tkey_DebDetectStateProcess+0xb8>
          THIS_STATEID = TSL_STATEID_PROX;
 800566c:	4b0a      	ldr	r3, [pc, #40]	; (8005698 <TSL_tkey_DebDetectStateProcess+0xd4>)
 800566e:	695b      	ldr	r3, [r3, #20]
 8005670:	681b      	ldr	r3, [r3, #0]
 8005672:	2206      	movs	r2, #6
 8005674:	701a      	strb	r2, [r3, #0]
          DTO_GET_TIME; // Take current time for DTO processing
 8005676:	f000 f9b3 	bl	80059e0 <TSL_tkey_DTOGetTime>
}
 800567a:	e00a      	b.n	8005692 <TSL_tkey_DebDetectStateProcess+0xce>
          THIS_STATEID = TSL_STATEID_DEB_PROX;
 800567c:	4b06      	ldr	r3, [pc, #24]	; (8005698 <TSL_tkey_DebDetectStateProcess+0xd4>)
 800567e:	695b      	ldr	r3, [r3, #20]
 8005680:	681b      	ldr	r3, [r3, #0]
 8005682:	2207      	movs	r2, #7
 8005684:	701a      	strb	r2, [r3, #0]
}
 8005686:	e004      	b.n	8005692 <TSL_tkey_DebDetectStateProcess+0xce>
        THIS_STATEID = TSL_STATEID_RELEASE;
 8005688:	4b03      	ldr	r3, [pc, #12]	; (8005698 <TSL_tkey_DebDetectStateProcess+0xd4>)
 800568a:	695b      	ldr	r3, [r3, #20]
 800568c:	681b      	ldr	r3, [r3, #0]
 800568e:	2202      	movs	r2, #2
 8005690:	701a      	strb	r2, [r3, #0]
}
 8005692:	46c0      	nop			; (mov r8, r8)
 8005694:	46bd      	mov	sp, r7
 8005696:	bd80      	pop	{r7, pc}
 8005698:	2000046c 	.word	0x2000046c

0800569c <TSL_tkey_DetectStateProcess>:
  * @brief  Detect state processing
  * @param  None
  * @retval None
  */
void TSL_tkey_DetectStateProcess(void)
{
 800569c:	b580      	push	{r7, lr}
 800569e:	b082      	sub	sp, #8
 80056a0:	af00      	add	r7, sp, #0
#if TSLPRM_DTO > 0
  TSL_tTick_sec_T tick_detected;
#endif

  if (THIS_ACQ_STATUS & TSL_ACQ_STATUS_ERROR_MASK) // Acquisition error (min or max)
 80056a2:	4b4b      	ldr	r3, [pc, #300]	; (80057d0 <TSL_tkey_DetectStateProcess+0x134>)
 80056a4:	695b      	ldr	r3, [r3, #20]
 80056a6:	689b      	ldr	r3, [r3, #8]
 80056a8:	781b      	ldrb	r3, [r3, #0]
 80056aa:	075b      	lsls	r3, r3, #29
 80056ac:	0f9b      	lsrs	r3, r3, #30
 80056ae:	b2db      	uxtb	r3, r3
 80056b0:	001a      	movs	r2, r3
 80056b2:	2302      	movs	r3, #2
 80056b4:	4013      	ands	r3, r2
 80056b6:	d019      	beq.n	80056ec <TSL_tkey_DetectStateProcess+0x50>
  {
    THIS_COUNTER_DEB = THIS_COUNTER_DEB_ERROR;
 80056b8:	4b45      	ldr	r3, [pc, #276]	; (80057d0 <TSL_tkey_DetectStateProcess+0x134>)
 80056ba:	695b      	ldr	r3, [r3, #20]
 80056bc:	681a      	ldr	r2, [r3, #0]
 80056be:	4b44      	ldr	r3, [pc, #272]	; (80057d0 <TSL_tkey_DetectStateProcess+0x134>)
 80056c0:	695b      	ldr	r3, [r3, #20]
 80056c2:	685b      	ldr	r3, [r3, #4]
 80056c4:	7a5b      	ldrb	r3, [r3, #9]
 80056c6:	7053      	strb	r3, [r2, #1]
    if (THIS_COUNTER_DEB == 0)
 80056c8:	4b41      	ldr	r3, [pc, #260]	; (80057d0 <TSL_tkey_DetectStateProcess+0x134>)
 80056ca:	695b      	ldr	r3, [r3, #20]
 80056cc:	681b      	ldr	r3, [r3, #0]
 80056ce:	785b      	ldrb	r3, [r3, #1]
 80056d0:	2b00      	cmp	r3, #0
 80056d2:	d105      	bne.n	80056e0 <TSL_tkey_DetectStateProcess+0x44>
    {
      THIS_STATEID = TSL_STATEID_ERROR;
 80056d4:	4b3e      	ldr	r3, [pc, #248]	; (80057d0 <TSL_tkey_DetectStateProcess+0x134>)
 80056d6:	695b      	ldr	r3, [r3, #20]
 80056d8:	681b      	ldr	r3, [r3, #0]
 80056da:	220d      	movs	r2, #13
 80056dc:	701a      	strb	r2, [r3, #0]
 80056de:	e073      	b.n	80057c8 <TSL_tkey_DetectStateProcess+0x12c>
    }
    else
    {
      THIS_STATEID = TSL_STATEID_DEB_ERROR_DETECT;
 80056e0:	4b3b      	ldr	r3, [pc, #236]	; (80057d0 <TSL_tkey_DetectStateProcess+0x134>)
 80056e2:	695b      	ldr	r3, [r3, #20]
 80056e4:	681b      	ldr	r3, [r3, #0]
 80056e6:	2211      	movs	r2, #17
 80056e8:	701a      	strb	r2, [r3, #0]
 80056ea:	e06d      	b.n	80057c8 <TSL_tkey_DetectStateProcess+0x12c>
    }
  }
  else // Acquisition is OK or has NOISE
  {
    if TEST_DELTA(>, THIS_DETECTOUT_TH)
 80056ec:	4b38      	ldr	r3, [pc, #224]	; (80057d0 <TSL_tkey_DetectStateProcess+0x134>)
 80056ee:	695b      	ldr	r3, [r3, #20]
 80056f0:	689b      	ldr	r3, [r3, #8]
 80056f2:	2208      	movs	r2, #8
 80056f4:	5e9b      	ldrsh	r3, [r3, r2]
 80056f6:	001a      	movs	r2, r3
 80056f8:	4b35      	ldr	r3, [pc, #212]	; (80057d0 <TSL_tkey_DetectStateProcess+0x134>)
 80056fa:	695b      	ldr	r3, [r3, #20]
 80056fc:	685b      	ldr	r3, [r3, #4]
 80056fe:	78db      	ldrb	r3, [r3, #3]
 8005700:	429a      	cmp	r2, r3
 8005702:	dd1e      	ble.n	8005742 <TSL_tkey_DetectStateProcess+0xa6>
      TEST_DELTA_NEGATIVE;
#if TSLPRM_DTO > 0
      //------------------------------------
      // Detection Time Out (DTO) processing
      //------------------------------------
      if ((TSL_Params.DTO > 1) && (TSL_Params.DTO < 64))
 8005704:	4b33      	ldr	r3, [pc, #204]	; (80057d4 <TSL_tkey_DetectStateProcess+0x138>)
 8005706:	799b      	ldrb	r3, [r3, #6]
 8005708:	2b01      	cmp	r3, #1
 800570a:	d95c      	bls.n	80057c6 <TSL_tkey_DetectStateProcess+0x12a>
 800570c:	4b31      	ldr	r3, [pc, #196]	; (80057d4 <TSL_tkey_DetectStateProcess+0x138>)
 800570e:	799b      	ldrb	r3, [r3, #6]
 8005710:	2b3f      	cmp	r3, #63	; 0x3f
 8005712:	d858      	bhi.n	80057c6 <TSL_tkey_DetectStateProcess+0x12a>
      {
        tick_detected = THIS_COUNTER_DTO; // Get the detected time previously saved
 8005714:	4b2e      	ldr	r3, [pc, #184]	; (80057d0 <TSL_tkey_DetectStateProcess+0x134>)
 8005716:	695b      	ldr	r3, [r3, #20]
 8005718:	681b      	ldr	r3, [r3, #0]
 800571a:	789b      	ldrb	r3, [r3, #2]
 800571c:	069b      	lsls	r3, r3, #26
 800571e:	0e9b      	lsrs	r3, r3, #26
 8005720:	b2db      	uxtb	r3, r3
 8005722:	001a      	movs	r2, r3
 8005724:	1dfb      	adds	r3, r7, #7
 8005726:	701a      	strb	r2, [r3, #0]
        // Enter in calibration state if the DTO duration has elapsed
        if (TSL_tim_CheckDelay_sec(TSL_Params.DTO, &tick_detected) == TSL_STATUS_OK)
 8005728:	4b2a      	ldr	r3, [pc, #168]	; (80057d4 <TSL_tkey_DetectStateProcess+0x138>)
 800572a:	799b      	ldrb	r3, [r3, #6]
 800572c:	1dfa      	adds	r2, r7, #7
 800572e:	0011      	movs	r1, r2
 8005730:	0018      	movs	r0, r3
 8005732:	f7ff f9a3 	bl	8004a7c <TSL_tim_CheckDelay_sec>
 8005736:	1e03      	subs	r3, r0, #0
 8005738:	d145      	bne.n	80057c6 <TSL_tkey_DetectStateProcess+0x12a>
        {
          TSL_tkey_SetStateCalibration(0);
 800573a:	2000      	movs	r0, #0
 800573c:	f7ff fa88 	bl	8004c50 <TSL_tkey_SetStateCalibration>
        }
      }
#endif
      return; // Normal operation, stay in Detect state
 8005740:	e041      	b.n	80057c6 <TSL_tkey_DetectStateProcess+0x12a>
    }

#if TSLPRM_USE_PROX > 0
    if (THIS_DELTA > THIS_PROXOUT_TH)
 8005742:	4b23      	ldr	r3, [pc, #140]	; (80057d0 <TSL_tkey_DetectStateProcess+0x134>)
 8005744:	695b      	ldr	r3, [r3, #20]
 8005746:	689b      	ldr	r3, [r3, #8]
 8005748:	2208      	movs	r2, #8
 800574a:	5e9b      	ldrsh	r3, [r3, r2]
 800574c:	001a      	movs	r2, r3
 800574e:	4b20      	ldr	r3, [pc, #128]	; (80057d0 <TSL_tkey_DetectStateProcess+0x134>)
 8005750:	695b      	ldr	r3, [r3, #20]
 8005752:	685b      	ldr	r3, [r3, #4]
 8005754:	785b      	ldrb	r3, [r3, #1]
 8005756:	429a      	cmp	r2, r3
 8005758:	dd1b      	ble.n	8005792 <TSL_tkey_DetectStateProcess+0xf6>
    {
      THIS_COUNTER_DEB = THIS_COUNTER_DEB_PROX;
 800575a:	4b1d      	ldr	r3, [pc, #116]	; (80057d0 <TSL_tkey_DetectStateProcess+0x134>)
 800575c:	695b      	ldr	r3, [r3, #20]
 800575e:	681a      	ldr	r2, [r3, #0]
 8005760:	4b1b      	ldr	r3, [pc, #108]	; (80057d0 <TSL_tkey_DetectStateProcess+0x134>)
 8005762:	695b      	ldr	r3, [r3, #20]
 8005764:	685b      	ldr	r3, [r3, #4]
 8005766:	799b      	ldrb	r3, [r3, #6]
 8005768:	7053      	strb	r3, [r2, #1]
      if (THIS_COUNTER_DEB == 0)
 800576a:	4b19      	ldr	r3, [pc, #100]	; (80057d0 <TSL_tkey_DetectStateProcess+0x134>)
 800576c:	695b      	ldr	r3, [r3, #20]
 800576e:	681b      	ldr	r3, [r3, #0]
 8005770:	785b      	ldrb	r3, [r3, #1]
 8005772:	2b00      	cmp	r3, #0
 8005774:	d107      	bne.n	8005786 <TSL_tkey_DetectStateProcess+0xea>
      {
        THIS_STATEID = TSL_STATEID_PROX;
 8005776:	4b16      	ldr	r3, [pc, #88]	; (80057d0 <TSL_tkey_DetectStateProcess+0x134>)
 8005778:	695b      	ldr	r3, [r3, #20]
 800577a:	681b      	ldr	r3, [r3, #0]
 800577c:	2206      	movs	r2, #6
 800577e:	701a      	strb	r2, [r3, #0]
        DTO_GET_TIME; // Take current time for DTO processing
 8005780:	f000 f92e 	bl	80059e0 <TSL_tkey_DTOGetTime>
      }
      else
      {
        THIS_STATEID = TSL_STATEID_DEB_PROX_DETECT;
      }
      return;
 8005784:	e020      	b.n	80057c8 <TSL_tkey_DetectStateProcess+0x12c>
        THIS_STATEID = TSL_STATEID_DEB_PROX_DETECT;
 8005786:	4b12      	ldr	r3, [pc, #72]	; (80057d0 <TSL_tkey_DetectStateProcess+0x134>)
 8005788:	695b      	ldr	r3, [r3, #20]
 800578a:	681b      	ldr	r3, [r3, #0]
 800578c:	2208      	movs	r2, #8
 800578e:	701a      	strb	r2, [r3, #0]
      return;
 8005790:	e01a      	b.n	80057c8 <TSL_tkey_DetectStateProcess+0x12c>
    }
#endif

    THIS_COUNTER_DEB = THIS_COUNTER_DEB_RELEASE;
 8005792:	4b0f      	ldr	r3, [pc, #60]	; (80057d0 <TSL_tkey_DetectStateProcess+0x134>)
 8005794:	695b      	ldr	r3, [r3, #20]
 8005796:	681a      	ldr	r2, [r3, #0]
 8005798:	4b0d      	ldr	r3, [pc, #52]	; (80057d0 <TSL_tkey_DetectStateProcess+0x134>)
 800579a:	695b      	ldr	r3, [r3, #20]
 800579c:	685b      	ldr	r3, [r3, #4]
 800579e:	7a1b      	ldrb	r3, [r3, #8]
 80057a0:	7053      	strb	r3, [r2, #1]
    if (THIS_COUNTER_DEB == 0)
 80057a2:	4b0b      	ldr	r3, [pc, #44]	; (80057d0 <TSL_tkey_DetectStateProcess+0x134>)
 80057a4:	695b      	ldr	r3, [r3, #20]
 80057a6:	681b      	ldr	r3, [r3, #0]
 80057a8:	785b      	ldrb	r3, [r3, #1]
 80057aa:	2b00      	cmp	r3, #0
 80057ac:	d105      	bne.n	80057ba <TSL_tkey_DetectStateProcess+0x11e>
    {
      THIS_STATEID = TSL_STATEID_RELEASE;
 80057ae:	4b08      	ldr	r3, [pc, #32]	; (80057d0 <TSL_tkey_DetectStateProcess+0x134>)
 80057b0:	695b      	ldr	r3, [r3, #20]
 80057b2:	681b      	ldr	r3, [r3, #0]
 80057b4:	2202      	movs	r2, #2
 80057b6:	701a      	strb	r2, [r3, #0]
 80057b8:	e006      	b.n	80057c8 <TSL_tkey_DetectStateProcess+0x12c>
    }
    else
    {
      THIS_STATEID = TSL_STATEID_DEB_RELEASE_DETECT;
 80057ba:	4b05      	ldr	r3, [pc, #20]	; (80057d0 <TSL_tkey_DetectStateProcess+0x134>)
 80057bc:	695b      	ldr	r3, [r3, #20]
 80057be:	681b      	ldr	r3, [r3, #0]
 80057c0:	2204      	movs	r2, #4
 80057c2:	701a      	strb	r2, [r3, #0]
 80057c4:	e000      	b.n	80057c8 <TSL_tkey_DetectStateProcess+0x12c>
      return; // Normal operation, stay in Detect state
 80057c6:	46c0      	nop			; (mov r8, r8)
    }

  }
}
 80057c8:	46bd      	mov	sp, r7
 80057ca:	b002      	add	sp, #8
 80057cc:	bd80      	pop	{r7, pc}
 80057ce:	46c0      	nop			; (mov r8, r8)
 80057d0:	2000046c 	.word	0x2000046c
 80057d4:	20000018 	.word	0x20000018

080057d8 <TSL_tkey_TouchStateProcess>:
  * Same as Detect state
  * @param  None
  * @retval None
  */
void TSL_tkey_TouchStateProcess(void)
{
 80057d8:	b580      	push	{r7, lr}
 80057da:	b082      	sub	sp, #8
 80057dc:	af00      	add	r7, sp, #0
#if TSLPRM_DTO > 0
  TSL_tTick_sec_T tick_detected;
#endif

  if (THIS_ACQ_STATUS & TSL_ACQ_STATUS_ERROR_MASK) // Acquisition error (min or max)
 80057de:	4b4b      	ldr	r3, [pc, #300]	; (800590c <TSL_tkey_TouchStateProcess+0x134>)
 80057e0:	695b      	ldr	r3, [r3, #20]
 80057e2:	689b      	ldr	r3, [r3, #8]
 80057e4:	781b      	ldrb	r3, [r3, #0]
 80057e6:	075b      	lsls	r3, r3, #29
 80057e8:	0f9b      	lsrs	r3, r3, #30
 80057ea:	b2db      	uxtb	r3, r3
 80057ec:	001a      	movs	r2, r3
 80057ee:	2302      	movs	r3, #2
 80057f0:	4013      	ands	r3, r2
 80057f2:	d019      	beq.n	8005828 <TSL_tkey_TouchStateProcess+0x50>
  {
    THIS_COUNTER_DEB = THIS_COUNTER_DEB_ERROR;
 80057f4:	4b45      	ldr	r3, [pc, #276]	; (800590c <TSL_tkey_TouchStateProcess+0x134>)
 80057f6:	695b      	ldr	r3, [r3, #20]
 80057f8:	681a      	ldr	r2, [r3, #0]
 80057fa:	4b44      	ldr	r3, [pc, #272]	; (800590c <TSL_tkey_TouchStateProcess+0x134>)
 80057fc:	695b      	ldr	r3, [r3, #20]
 80057fe:	685b      	ldr	r3, [r3, #4]
 8005800:	7a5b      	ldrb	r3, [r3, #9]
 8005802:	7053      	strb	r3, [r2, #1]
    if (THIS_COUNTER_DEB == 0)
 8005804:	4b41      	ldr	r3, [pc, #260]	; (800590c <TSL_tkey_TouchStateProcess+0x134>)
 8005806:	695b      	ldr	r3, [r3, #20]
 8005808:	681b      	ldr	r3, [r3, #0]
 800580a:	785b      	ldrb	r3, [r3, #1]
 800580c:	2b00      	cmp	r3, #0
 800580e:	d105      	bne.n	800581c <TSL_tkey_TouchStateProcess+0x44>
    {
      THIS_STATEID = TSL_STATEID_ERROR;
 8005810:	4b3e      	ldr	r3, [pc, #248]	; (800590c <TSL_tkey_TouchStateProcess+0x134>)
 8005812:	695b      	ldr	r3, [r3, #20]
 8005814:	681b      	ldr	r3, [r3, #0]
 8005816:	220d      	movs	r2, #13
 8005818:	701a      	strb	r2, [r3, #0]
 800581a:	e073      	b.n	8005904 <TSL_tkey_TouchStateProcess+0x12c>
    }
    else
    {
      THIS_STATEID = TSL_STATEID_DEB_ERROR_TOUCH;
 800581c:	4b3b      	ldr	r3, [pc, #236]	; (800590c <TSL_tkey_TouchStateProcess+0x134>)
 800581e:	695b      	ldr	r3, [r3, #20]
 8005820:	681b      	ldr	r3, [r3, #0]
 8005822:	2212      	movs	r2, #18
 8005824:	701a      	strb	r2, [r3, #0]
 8005826:	e06d      	b.n	8005904 <TSL_tkey_TouchStateProcess+0x12c>
    }
  }
  else // Acquisition is OK or has NOISE
  {
    if TEST_DELTA(>, THIS_DETECTOUT_TH)
 8005828:	4b38      	ldr	r3, [pc, #224]	; (800590c <TSL_tkey_TouchStateProcess+0x134>)
 800582a:	695b      	ldr	r3, [r3, #20]
 800582c:	689b      	ldr	r3, [r3, #8]
 800582e:	2208      	movs	r2, #8
 8005830:	5e9b      	ldrsh	r3, [r3, r2]
 8005832:	001a      	movs	r2, r3
 8005834:	4b35      	ldr	r3, [pc, #212]	; (800590c <TSL_tkey_TouchStateProcess+0x134>)
 8005836:	695b      	ldr	r3, [r3, #20]
 8005838:	685b      	ldr	r3, [r3, #4]
 800583a:	78db      	ldrb	r3, [r3, #3]
 800583c:	429a      	cmp	r2, r3
 800583e:	dd1e      	ble.n	800587e <TSL_tkey_TouchStateProcess+0xa6>
      TEST_DELTA_NEGATIVE;
#if TSLPRM_DTO > 0
      //------------------------------------
      // Detection Time Out (DTO) processing
      //------------------------------------
      if ((TSL_Params.DTO > 1) && (TSL_Params.DTO < 64))
 8005840:	4b33      	ldr	r3, [pc, #204]	; (8005910 <TSL_tkey_TouchStateProcess+0x138>)
 8005842:	799b      	ldrb	r3, [r3, #6]
 8005844:	2b01      	cmp	r3, #1
 8005846:	d95c      	bls.n	8005902 <TSL_tkey_TouchStateProcess+0x12a>
 8005848:	4b31      	ldr	r3, [pc, #196]	; (8005910 <TSL_tkey_TouchStateProcess+0x138>)
 800584a:	799b      	ldrb	r3, [r3, #6]
 800584c:	2b3f      	cmp	r3, #63	; 0x3f
 800584e:	d858      	bhi.n	8005902 <TSL_tkey_TouchStateProcess+0x12a>
      {
        tick_detected = THIS_COUNTER_DTO; // Get the detected time previously saved
 8005850:	4b2e      	ldr	r3, [pc, #184]	; (800590c <TSL_tkey_TouchStateProcess+0x134>)
 8005852:	695b      	ldr	r3, [r3, #20]
 8005854:	681b      	ldr	r3, [r3, #0]
 8005856:	789b      	ldrb	r3, [r3, #2]
 8005858:	069b      	lsls	r3, r3, #26
 800585a:	0e9b      	lsrs	r3, r3, #26
 800585c:	b2db      	uxtb	r3, r3
 800585e:	001a      	movs	r2, r3
 8005860:	1dfb      	adds	r3, r7, #7
 8005862:	701a      	strb	r2, [r3, #0]
        // Enter in calibration state if the DTO duration has elapsed
        if (TSL_tim_CheckDelay_sec(TSL_Params.DTO, &tick_detected) == TSL_STATUS_OK)
 8005864:	4b2a      	ldr	r3, [pc, #168]	; (8005910 <TSL_tkey_TouchStateProcess+0x138>)
 8005866:	799b      	ldrb	r3, [r3, #6]
 8005868:	1dfa      	adds	r2, r7, #7
 800586a:	0011      	movs	r1, r2
 800586c:	0018      	movs	r0, r3
 800586e:	f7ff f905 	bl	8004a7c <TSL_tim_CheckDelay_sec>
 8005872:	1e03      	subs	r3, r0, #0
 8005874:	d145      	bne.n	8005902 <TSL_tkey_TouchStateProcess+0x12a>
        {
          TSL_tkey_SetStateCalibration(0);
 8005876:	2000      	movs	r0, #0
 8005878:	f7ff f9ea 	bl	8004c50 <TSL_tkey_SetStateCalibration>
        }
      }
#endif
      return; // Normal operation, stay in Touch state
 800587c:	e041      	b.n	8005902 <TSL_tkey_TouchStateProcess+0x12a>
    }

#if TSLPRM_USE_PROX > 0
    if (THIS_DELTA > THIS_PROXOUT_TH)
 800587e:	4b23      	ldr	r3, [pc, #140]	; (800590c <TSL_tkey_TouchStateProcess+0x134>)
 8005880:	695b      	ldr	r3, [r3, #20]
 8005882:	689b      	ldr	r3, [r3, #8]
 8005884:	2208      	movs	r2, #8
 8005886:	5e9b      	ldrsh	r3, [r3, r2]
 8005888:	001a      	movs	r2, r3
 800588a:	4b20      	ldr	r3, [pc, #128]	; (800590c <TSL_tkey_TouchStateProcess+0x134>)
 800588c:	695b      	ldr	r3, [r3, #20]
 800588e:	685b      	ldr	r3, [r3, #4]
 8005890:	785b      	ldrb	r3, [r3, #1]
 8005892:	429a      	cmp	r2, r3
 8005894:	dd1b      	ble.n	80058ce <TSL_tkey_TouchStateProcess+0xf6>
    {
      THIS_COUNTER_DEB = THIS_COUNTER_DEB_PROX;
 8005896:	4b1d      	ldr	r3, [pc, #116]	; (800590c <TSL_tkey_TouchStateProcess+0x134>)
 8005898:	695b      	ldr	r3, [r3, #20]
 800589a:	681a      	ldr	r2, [r3, #0]
 800589c:	4b1b      	ldr	r3, [pc, #108]	; (800590c <TSL_tkey_TouchStateProcess+0x134>)
 800589e:	695b      	ldr	r3, [r3, #20]
 80058a0:	685b      	ldr	r3, [r3, #4]
 80058a2:	799b      	ldrb	r3, [r3, #6]
 80058a4:	7053      	strb	r3, [r2, #1]
      if (THIS_COUNTER_DEB == 0)
 80058a6:	4b19      	ldr	r3, [pc, #100]	; (800590c <TSL_tkey_TouchStateProcess+0x134>)
 80058a8:	695b      	ldr	r3, [r3, #20]
 80058aa:	681b      	ldr	r3, [r3, #0]
 80058ac:	785b      	ldrb	r3, [r3, #1]
 80058ae:	2b00      	cmp	r3, #0
 80058b0:	d107      	bne.n	80058c2 <TSL_tkey_TouchStateProcess+0xea>
      {
        THIS_STATEID = TSL_STATEID_PROX;
 80058b2:	4b16      	ldr	r3, [pc, #88]	; (800590c <TSL_tkey_TouchStateProcess+0x134>)
 80058b4:	695b      	ldr	r3, [r3, #20]
 80058b6:	681b      	ldr	r3, [r3, #0]
 80058b8:	2206      	movs	r2, #6
 80058ba:	701a      	strb	r2, [r3, #0]
        DTO_GET_TIME; // Take current time for DTO processing
 80058bc:	f000 f890 	bl	80059e0 <TSL_tkey_DTOGetTime>
      }
      else
      {
        THIS_STATEID = TSL_STATEID_DEB_PROX_TOUCH;
      }
      return;
 80058c0:	e020      	b.n	8005904 <TSL_tkey_TouchStateProcess+0x12c>
        THIS_STATEID = TSL_STATEID_DEB_PROX_TOUCH;
 80058c2:	4b12      	ldr	r3, [pc, #72]	; (800590c <TSL_tkey_TouchStateProcess+0x134>)
 80058c4:	695b      	ldr	r3, [r3, #20]
 80058c6:	681b      	ldr	r3, [r3, #0]
 80058c8:	2209      	movs	r2, #9
 80058ca:	701a      	strb	r2, [r3, #0]
      return;
 80058cc:	e01a      	b.n	8005904 <TSL_tkey_TouchStateProcess+0x12c>
    }
#endif

    THIS_COUNTER_DEB = THIS_COUNTER_DEB_RELEASE;
 80058ce:	4b0f      	ldr	r3, [pc, #60]	; (800590c <TSL_tkey_TouchStateProcess+0x134>)
 80058d0:	695b      	ldr	r3, [r3, #20]
 80058d2:	681a      	ldr	r2, [r3, #0]
 80058d4:	4b0d      	ldr	r3, [pc, #52]	; (800590c <TSL_tkey_TouchStateProcess+0x134>)
 80058d6:	695b      	ldr	r3, [r3, #20]
 80058d8:	685b      	ldr	r3, [r3, #4]
 80058da:	7a1b      	ldrb	r3, [r3, #8]
 80058dc:	7053      	strb	r3, [r2, #1]
    if (THIS_COUNTER_DEB == 0)
 80058de:	4b0b      	ldr	r3, [pc, #44]	; (800590c <TSL_tkey_TouchStateProcess+0x134>)
 80058e0:	695b      	ldr	r3, [r3, #20]
 80058e2:	681b      	ldr	r3, [r3, #0]
 80058e4:	785b      	ldrb	r3, [r3, #1]
 80058e6:	2b00      	cmp	r3, #0
 80058e8:	d105      	bne.n	80058f6 <TSL_tkey_TouchStateProcess+0x11e>
    {
      THIS_STATEID = TSL_STATEID_RELEASE;
 80058ea:	4b08      	ldr	r3, [pc, #32]	; (800590c <TSL_tkey_TouchStateProcess+0x134>)
 80058ec:	695b      	ldr	r3, [r3, #20]
 80058ee:	681b      	ldr	r3, [r3, #0]
 80058f0:	2202      	movs	r2, #2
 80058f2:	701a      	strb	r2, [r3, #0]
 80058f4:	e006      	b.n	8005904 <TSL_tkey_TouchStateProcess+0x12c>
    }
    else
    {
      THIS_STATEID = TSL_STATEID_DEB_RELEASE_TOUCH;
 80058f6:	4b05      	ldr	r3, [pc, #20]	; (800590c <TSL_tkey_TouchStateProcess+0x134>)
 80058f8:	695b      	ldr	r3, [r3, #20]
 80058fa:	681b      	ldr	r3, [r3, #0]
 80058fc:	2205      	movs	r2, #5
 80058fe:	701a      	strb	r2, [r3, #0]
 8005900:	e000      	b.n	8005904 <TSL_tkey_TouchStateProcess+0x12c>
      return; // Normal operation, stay in Touch state
 8005902:	46c0      	nop			; (mov r8, r8)
    }

  }
}
 8005904:	46bd      	mov	sp, r7
 8005906:	b002      	add	sp, #8
 8005908:	bd80      	pop	{r7, pc}
 800590a:	46c0      	nop			; (mov r8, r8)
 800590c:	2000046c 	.word	0x2000046c
 8005910:	20000018 	.word	0x20000018

08005914 <TSL_tkey_DebErrorStateProcess>:
  * @brief  Debounce error state processing
  * @param  None
  * @retval None
  */
void TSL_tkey_DebErrorStateProcess(void)
{
 8005914:	b580      	push	{r7, lr}
 8005916:	b082      	sub	sp, #8
 8005918:	af00      	add	r7, sp, #0
  volatile TSL_StateMask_enum_T mask;

  if (THIS_ACQ_STATUS & TSL_ACQ_STATUS_ERROR_MASK) // Acquisition error (min or max)
 800591a:	4b30      	ldr	r3, [pc, #192]	; (80059dc <TSL_tkey_DebErrorStateProcess+0xc8>)
 800591c:	695b      	ldr	r3, [r3, #20]
 800591e:	689b      	ldr	r3, [r3, #8]
 8005920:	781b      	ldrb	r3, [r3, #0]
 8005922:	075b      	lsls	r3, r3, #29
 8005924:	0f9b      	lsrs	r3, r3, #30
 8005926:	b2db      	uxtb	r3, r3
 8005928:	001a      	movs	r2, r3
 800592a:	2302      	movs	r3, #2
 800592c:	4013      	ands	r3, r2
 800592e:	d018      	beq.n	8005962 <TSL_tkey_DebErrorStateProcess+0x4e>
  {
    if (THIS_COUNTER_DEB > 0) {THIS_COUNTER_DEB--;}
 8005930:	4b2a      	ldr	r3, [pc, #168]	; (80059dc <TSL_tkey_DebErrorStateProcess+0xc8>)
 8005932:	695b      	ldr	r3, [r3, #20]
 8005934:	681b      	ldr	r3, [r3, #0]
 8005936:	785b      	ldrb	r3, [r3, #1]
 8005938:	2b00      	cmp	r3, #0
 800593a:	d006      	beq.n	800594a <TSL_tkey_DebErrorStateProcess+0x36>
 800593c:	4b27      	ldr	r3, [pc, #156]	; (80059dc <TSL_tkey_DebErrorStateProcess+0xc8>)
 800593e:	695b      	ldr	r3, [r3, #20]
 8005940:	681b      	ldr	r3, [r3, #0]
 8005942:	785a      	ldrb	r2, [r3, #1]
 8005944:	3a01      	subs	r2, #1
 8005946:	b2d2      	uxtb	r2, r2
 8005948:	705a      	strb	r2, [r3, #1]
    if (THIS_COUNTER_DEB == 0)
 800594a:	4b24      	ldr	r3, [pc, #144]	; (80059dc <TSL_tkey_DebErrorStateProcess+0xc8>)
 800594c:	695b      	ldr	r3, [r3, #20]
 800594e:	681b      	ldr	r3, [r3, #0]
 8005950:	785b      	ldrb	r3, [r3, #1]
 8005952:	2b00      	cmp	r3, #0
 8005954:	d13d      	bne.n	80059d2 <TSL_tkey_DebErrorStateProcess+0xbe>
    {
      THIS_STATEID = TSL_STATEID_ERROR;
 8005956:	4b21      	ldr	r3, [pc, #132]	; (80059dc <TSL_tkey_DebErrorStateProcess+0xc8>)
 8005958:	695b      	ldr	r3, [r3, #20]
 800595a:	681b      	ldr	r3, [r3, #0]
 800595c:	220d      	movs	r2, #13
 800595e:	701a      	strb	r2, [r3, #0]
      default:
        TSL_tkey_SetStateCalibration(0);
        break;
    }
  }
}
 8005960:	e037      	b.n	80059d2 <TSL_tkey_DebErrorStateProcess+0xbe>
    mask = TSL_tkey_GetStateMask();
 8005962:	f7ff f9bf 	bl	8004ce4 <TSL_tkey_GetStateMask>
 8005966:	0003      	movs	r3, r0
 8005968:	001a      	movs	r2, r3
 800596a:	1dfb      	adds	r3, r7, #7
 800596c:	701a      	strb	r2, [r3, #0]
    mask &= (TSL_StateMask_enum_T)(~(TSL_STATE_DEBOUNCE_BIT_MASK | TSL_STATE_ERROR_BIT_MASK));
 800596e:	1dfb      	adds	r3, r7, #7
 8005970:	781b      	ldrb	r3, [r3, #0]
 8005972:	b2db      	uxtb	r3, r3
 8005974:	225f      	movs	r2, #95	; 0x5f
 8005976:	4013      	ands	r3, r2
 8005978:	b2da      	uxtb	r2, r3
 800597a:	1dfb      	adds	r3, r7, #7
 800597c:	701a      	strb	r2, [r3, #0]
    switch (mask)
 800597e:	1dfb      	adds	r3, r7, #7
 8005980:	781b      	ldrb	r3, [r3, #0]
 8005982:	b2db      	uxtb	r3, r3
 8005984:	2b02      	cmp	r3, #2
 8005986:	d00e      	beq.n	80059a6 <TSL_tkey_DebErrorStateProcess+0x92>
 8005988:	dc02      	bgt.n	8005990 <TSL_tkey_DebErrorStateProcess+0x7c>
 800598a:	2b01      	cmp	r3, #1
 800598c:	d005      	beq.n	800599a <TSL_tkey_DebErrorStateProcess+0x86>
 800598e:	e01c      	b.n	80059ca <TSL_tkey_DebErrorStateProcess+0xb6>
 8005990:	2b04      	cmp	r3, #4
 8005992:	d00e      	beq.n	80059b2 <TSL_tkey_DebErrorStateProcess+0x9e>
 8005994:	2b08      	cmp	r3, #8
 8005996:	d012      	beq.n	80059be <TSL_tkey_DebErrorStateProcess+0xaa>
 8005998:	e017      	b.n	80059ca <TSL_tkey_DebErrorStateProcess+0xb6>
        THIS_STATEID = TSL_STATEID_RELEASE;
 800599a:	4b10      	ldr	r3, [pc, #64]	; (80059dc <TSL_tkey_DebErrorStateProcess+0xc8>)
 800599c:	695b      	ldr	r3, [r3, #20]
 800599e:	681b      	ldr	r3, [r3, #0]
 80059a0:	2202      	movs	r2, #2
 80059a2:	701a      	strb	r2, [r3, #0]
        break;
 80059a4:	e015      	b.n	80059d2 <TSL_tkey_DebErrorStateProcess+0xbe>
        THIS_STATEID = TSL_STATEID_PROX;
 80059a6:	4b0d      	ldr	r3, [pc, #52]	; (80059dc <TSL_tkey_DebErrorStateProcess+0xc8>)
 80059a8:	695b      	ldr	r3, [r3, #20]
 80059aa:	681b      	ldr	r3, [r3, #0]
 80059ac:	2206      	movs	r2, #6
 80059ae:	701a      	strb	r2, [r3, #0]
        break;
 80059b0:	e00f      	b.n	80059d2 <TSL_tkey_DebErrorStateProcess+0xbe>
        THIS_STATEID = TSL_STATEID_DETECT;
 80059b2:	4b0a      	ldr	r3, [pc, #40]	; (80059dc <TSL_tkey_DebErrorStateProcess+0xc8>)
 80059b4:	695b      	ldr	r3, [r3, #20]
 80059b6:	681b      	ldr	r3, [r3, #0]
 80059b8:	220a      	movs	r2, #10
 80059ba:	701a      	strb	r2, [r3, #0]
        break;
 80059bc:	e009      	b.n	80059d2 <TSL_tkey_DebErrorStateProcess+0xbe>
        THIS_STATEID = TSL_STATEID_TOUCH;
 80059be:	4b07      	ldr	r3, [pc, #28]	; (80059dc <TSL_tkey_DebErrorStateProcess+0xc8>)
 80059c0:	695b      	ldr	r3, [r3, #20]
 80059c2:	681b      	ldr	r3, [r3, #0]
 80059c4:	220c      	movs	r2, #12
 80059c6:	701a      	strb	r2, [r3, #0]
        break;
 80059c8:	e003      	b.n	80059d2 <TSL_tkey_DebErrorStateProcess+0xbe>
        TSL_tkey_SetStateCalibration(0);
 80059ca:	2000      	movs	r0, #0
 80059cc:	f7ff f940 	bl	8004c50 <TSL_tkey_SetStateCalibration>
        break;
 80059d0:	46c0      	nop			; (mov r8, r8)
}
 80059d2:	46c0      	nop			; (mov r8, r8)
 80059d4:	46bd      	mov	sp, r7
 80059d6:	b002      	add	sp, #8
 80059d8:	bd80      	pop	{r7, pc}
 80059da:	46c0      	nop			; (mov r8, r8)
 80059dc:	2000046c 	.word	0x2000046c

080059e0 <TSL_tkey_DTOGetTime>:
  * @brief  Get the current time in second and affect it to the DTO counter (Private)
  * @param  None
  * @retval None
  */
void TSL_tkey_DTOGetTime(void)
{
 80059e0:	b580      	push	{r7, lr}
 80059e2:	af00      	add	r7, sp, #0
  disableInterrupts();
 80059e4:	4b10      	ldr	r3, [pc, #64]	; (8005a28 <TSL_tkey_DTOGetTime+0x48>)
 80059e6:	4a10      	ldr	r2, [pc, #64]	; (8005a28 <TSL_tkey_DTOGetTime+0x48>)
 80059e8:	6812      	ldr	r2, [r2, #0]
 80059ea:	2102      	movs	r1, #2
 80059ec:	438a      	bics	r2, r1
 80059ee:	601a      	str	r2, [r3, #0]
  THIS_COUNTER_DTO = (TSL_tCounter_T)TSL_Globals.Tick_sec;
 80059f0:	4b0e      	ldr	r3, [pc, #56]	; (8005a2c <TSL_tkey_DTOGetTime+0x4c>)
 80059f2:	695b      	ldr	r3, [r3, #20]
 80059f4:	681b      	ldr	r3, [r3, #0]
 80059f6:	4a0d      	ldr	r2, [pc, #52]	; (8005a2c <TSL_tkey_DTOGetTime+0x4c>)
 80059f8:	7892      	ldrb	r2, [r2, #2]
 80059fa:	1c11      	adds	r1, r2, #0
 80059fc:	223f      	movs	r2, #63	; 0x3f
 80059fe:	400a      	ands	r2, r1
 8005a00:	b2d2      	uxtb	r2, r2
 8005a02:	213f      	movs	r1, #63	; 0x3f
 8005a04:	400a      	ands	r2, r1
 8005a06:	0010      	movs	r0, r2
 8005a08:	789a      	ldrb	r2, [r3, #2]
 8005a0a:	213f      	movs	r1, #63	; 0x3f
 8005a0c:	438a      	bics	r2, r1
 8005a0e:	1c11      	adds	r1, r2, #0
 8005a10:	1c02      	adds	r2, r0, #0
 8005a12:	430a      	orrs	r2, r1
 8005a14:	709a      	strb	r2, [r3, #2]
  enableInterrupts();
 8005a16:	4b04      	ldr	r3, [pc, #16]	; (8005a28 <TSL_tkey_DTOGetTime+0x48>)
 8005a18:	4a03      	ldr	r2, [pc, #12]	; (8005a28 <TSL_tkey_DTOGetTime+0x48>)
 8005a1a:	6812      	ldr	r2, [r2, #0]
 8005a1c:	2102      	movs	r1, #2
 8005a1e:	430a      	orrs	r2, r1
 8005a20:	601a      	str	r2, [r3, #0]
}
 8005a22:	46c0      	nop			; (mov r8, r8)
 8005a24:	46bd      	mov	sp, r7
 8005a26:	bd80      	pop	{r7, pc}
 8005a28:	e000e010 	.word	0xe000e010
 8005a2c:	2000046c 	.word	0x2000046c

08005a30 <led_init>:
static char led_active = 0;
static enum eLedColor eColor;
static enum eLedType eType;

led_init(void)
{
 8005a30:	b580      	push	{r7, lr}
 8005a32:	b08c      	sub	sp, #48	; 0x30
 8005a34:	af00      	add	r7, sp, #0
	GPIO_InitTypeDef GPIO_InitStruct;

  // GPIO Ports Clock Enable -------------------------------------------------
  __HAL_RCC_GPIOA_CLK_ENABLE();
 8005a36:	4b52      	ldr	r3, [pc, #328]	; (8005b80 <led_init+0x150>)
 8005a38:	4a51      	ldr	r2, [pc, #324]	; (8005b80 <led_init+0x150>)
 8005a3a:	6ad2      	ldr	r2, [r2, #44]	; 0x2c
 8005a3c:	2101      	movs	r1, #1
 8005a3e:	430a      	orrs	r2, r1
 8005a40:	62da      	str	r2, [r3, #44]	; 0x2c
 8005a42:	4b4f      	ldr	r3, [pc, #316]	; (8005b80 <led_init+0x150>)
 8005a44:	6adb      	ldr	r3, [r3, #44]	; 0x2c
 8005a46:	2201      	movs	r2, #1
 8005a48:	4013      	ands	r3, r2
 8005a4a:	60bb      	str	r3, [r7, #8]
 8005a4c:	68bb      	ldr	r3, [r7, #8]
  __HAL_RCC_GPIOB_CLK_ENABLE();
 8005a4e:	4b4c      	ldr	r3, [pc, #304]	; (8005b80 <led_init+0x150>)
 8005a50:	4a4b      	ldr	r2, [pc, #300]	; (8005b80 <led_init+0x150>)
 8005a52:	6ad2      	ldr	r2, [r2, #44]	; 0x2c
 8005a54:	2102      	movs	r1, #2
 8005a56:	430a      	orrs	r2, r1
 8005a58:	62da      	str	r2, [r3, #44]	; 0x2c
 8005a5a:	4b49      	ldr	r3, [pc, #292]	; (8005b80 <led_init+0x150>)
 8005a5c:	6adb      	ldr	r3, [r3, #44]	; 0x2c
 8005a5e:	2202      	movs	r2, #2
 8005a60:	4013      	ands	r3, r2
 8005a62:	607b      	str	r3, [r7, #4]
 8005a64:	687b      	ldr	r3, [r7, #4]

  // TIM 2 -------------------------------------------------------------------
  __HAL_RCC_TIM2_CLK_ENABLE();
 8005a66:	4b46      	ldr	r3, [pc, #280]	; (8005b80 <led_init+0x150>)
 8005a68:	4a45      	ldr	r2, [pc, #276]	; (8005b80 <led_init+0x150>)
 8005a6a:	6b92      	ldr	r2, [r2, #56]	; 0x38
 8005a6c:	2101      	movs	r1, #1
 8005a6e:	430a      	orrs	r2, r1
 8005a70:	639a      	str	r2, [r3, #56]	; 0x38

  // PWM Timer init  ---------------------------------------------------------
  TIM_OC_InitTypeDef sConfigOC;

  htim2.Instance = TIM2;
 8005a72:	4b44      	ldr	r3, [pc, #272]	; (8005b84 <led_init+0x154>)
 8005a74:	2280      	movs	r2, #128	; 0x80
 8005a76:	05d2      	lsls	r2, r2, #23
 8005a78:	601a      	str	r2, [r3, #0]
  htim2.Init.Prescaler = 0;
 8005a7a:	4b42      	ldr	r3, [pc, #264]	; (8005b84 <led_init+0x154>)
 8005a7c:	2200      	movs	r2, #0
 8005a7e:	605a      	str	r2, [r3, #4]
  htim2.Init.CounterMode = TIM_COUNTERMODE_UP;
 8005a80:	4b40      	ldr	r3, [pc, #256]	; (8005b84 <led_init+0x154>)
 8005a82:	2200      	movs	r2, #0
 8005a84:	609a      	str	r2, [r3, #8]
  htim2.Init.Period = PERIOD;
 8005a86:	4b3f      	ldr	r3, [pc, #252]	; (8005b84 <led_init+0x154>)
 8005a88:	4a3f      	ldr	r2, [pc, #252]	; (8005b88 <led_init+0x158>)
 8005a8a:	60da      	str	r2, [r3, #12]
  htim2.Init.ClockDivision = TIM_CLOCKDIVISION_DIV1;
 8005a8c:	4b3d      	ldr	r3, [pc, #244]	; (8005b84 <led_init+0x154>)
 8005a8e:	2200      	movs	r2, #0
 8005a90:	611a      	str	r2, [r3, #16]
  if (HAL_TIM_Base_Init(&htim2) != HAL_OK)
 8005a92:	4b3c      	ldr	r3, [pc, #240]	; (8005b84 <led_init+0x154>)
 8005a94:	0018      	movs	r0, r3
 8005a96:	f7fd fe33 	bl	8003700 <HAL_TIM_Base_Init>
 8005a9a:	1e03      	subs	r3, r0, #0
 8005a9c:	d004      	beq.n	8005aa8 <led_init+0x78>
  {
    _Error_Handler(__FILE__, __LINE__);
 8005a9e:	4b3b      	ldr	r3, [pc, #236]	; (8005b8c <led_init+0x15c>)
 8005aa0:	2146      	movs	r1, #70	; 0x46
 8005aa2:	0018      	movs	r0, r3
 8005aa4:	f000 fb94 	bl	80061d0 <_Error_Handler>
  }

  sConfigOC.OCMode = TIM_OCMODE_PWM1;
 8005aa8:	230c      	movs	r3, #12
 8005aaa:	18fb      	adds	r3, r7, r3
 8005aac:	2260      	movs	r2, #96	; 0x60
 8005aae:	601a      	str	r2, [r3, #0]
  sConfigOC.Pulse = 0;
 8005ab0:	230c      	movs	r3, #12
 8005ab2:	18fb      	adds	r3, r7, r3
 8005ab4:	2200      	movs	r2, #0
 8005ab6:	605a      	str	r2, [r3, #4]
  sConfigOC.OCPolarity = TIM_OCPOLARITY_HIGH;
 8005ab8:	230c      	movs	r3, #12
 8005aba:	18fb      	adds	r3, r7, r3
 8005abc:	2200      	movs	r2, #0
 8005abe:	609a      	str	r2, [r3, #8]
  sConfigOC.OCFastMode = TIM_OCFAST_DISABLE;
 8005ac0:	230c      	movs	r3, #12
 8005ac2:	18fb      	adds	r3, r7, r3
 8005ac4:	2200      	movs	r2, #0
 8005ac6:	60da      	str	r2, [r3, #12]
  if (HAL_TIM_PWM_ConfigChannel(&htim2, &sConfigOC, TIM_CHANNEL_1) != HAL_OK)
 8005ac8:	230c      	movs	r3, #12
 8005aca:	18f9      	adds	r1, r7, r3
 8005acc:	4b2d      	ldr	r3, [pc, #180]	; (8005b84 <led_init+0x154>)
 8005ace:	2200      	movs	r2, #0
 8005ad0:	0018      	movs	r0, r3
 8005ad2:	f7fd fe81 	bl	80037d8 <HAL_TIM_PWM_ConfigChannel>
 8005ad6:	1e03      	subs	r3, r0, #0
 8005ad8:	d004      	beq.n	8005ae4 <led_init+0xb4>
  {
    _Error_Handler(__FILE__, __LINE__);
 8005ada:	4b2c      	ldr	r3, [pc, #176]	; (8005b8c <led_init+0x15c>)
 8005adc:	214f      	movs	r1, #79	; 0x4f
 8005ade:	0018      	movs	r0, r3
 8005ae0:	f000 fb76 	bl	80061d0 <_Error_Handler>
  }

  sConfigOC.Pulse = 0;
 8005ae4:	230c      	movs	r3, #12
 8005ae6:	18fb      	adds	r3, r7, r3
 8005ae8:	2200      	movs	r2, #0
 8005aea:	605a      	str	r2, [r3, #4]
  if (HAL_TIM_PWM_ConfigChannel(&htim2, &sConfigOC, TIM_CHANNEL_2) != HAL_OK)
 8005aec:	230c      	movs	r3, #12
 8005aee:	18f9      	adds	r1, r7, r3
 8005af0:	4b24      	ldr	r3, [pc, #144]	; (8005b84 <led_init+0x154>)
 8005af2:	2204      	movs	r2, #4
 8005af4:	0018      	movs	r0, r3
 8005af6:	f7fd fe6f 	bl	80037d8 <HAL_TIM_PWM_ConfigChannel>
 8005afa:	1e03      	subs	r3, r0, #0
 8005afc:	d004      	beq.n	8005b08 <led_init+0xd8>
  {
    _Error_Handler(__FILE__, __LINE__);
 8005afe:	4b23      	ldr	r3, [pc, #140]	; (8005b8c <led_init+0x15c>)
 8005b00:	2155      	movs	r1, #85	; 0x55
 8005b02:	0018      	movs	r0, r3
 8005b04:	f000 fb64 	bl	80061d0 <_Error_Handler>

	 /**TIM2 GPIO Configuration
	 PA15     ------> TIM2_CH1
	 PB3     ------> TIM2_CH2
	 */
	 GPIO_InitStruct.Pin = LED_RED_PA15;
 8005b08:	231c      	movs	r3, #28
 8005b0a:	18fb      	adds	r3, r7, r3
 8005b0c:	2280      	movs	r2, #128	; 0x80
 8005b0e:	0212      	lsls	r2, r2, #8
 8005b10:	601a      	str	r2, [r3, #0]
	 GPIO_InitStruct.Mode = GPIO_MODE_AF_PP;
 8005b12:	231c      	movs	r3, #28
 8005b14:	18fb      	adds	r3, r7, r3
 8005b16:	2202      	movs	r2, #2
 8005b18:	605a      	str	r2, [r3, #4]
	 GPIO_InitStruct.Pull = GPIO_PULLDOWN;
 8005b1a:	231c      	movs	r3, #28
 8005b1c:	18fb      	adds	r3, r7, r3
 8005b1e:	2202      	movs	r2, #2
 8005b20:	609a      	str	r2, [r3, #8]
	 GPIO_InitStruct.Speed = GPIO_SPEED_FREQ_VERY_HIGH;
 8005b22:	231c      	movs	r3, #28
 8005b24:	18fb      	adds	r3, r7, r3
 8005b26:	2203      	movs	r2, #3
 8005b28:	60da      	str	r2, [r3, #12]
	 GPIO_InitStruct.Alternate = GPIO_AF5_TIM2;
 8005b2a:	231c      	movs	r3, #28
 8005b2c:	18fb      	adds	r3, r7, r3
 8005b2e:	2205      	movs	r2, #5
 8005b30:	611a      	str	r2, [r3, #16]
	 HAL_GPIO_Init(GPIOA, &GPIO_InitStruct);
 8005b32:	231c      	movs	r3, #28
 8005b34:	18fa      	adds	r2, r7, r3
 8005b36:	23a0      	movs	r3, #160	; 0xa0
 8005b38:	05db      	lsls	r3, r3, #23
 8005b3a:	0011      	movs	r1, r2
 8005b3c:	0018      	movs	r0, r3
 8005b3e:	f7fc feaf 	bl	80028a0 <HAL_GPIO_Init>

	 GPIO_InitStruct.Pin = LED_GREEN_PB3;
 8005b42:	231c      	movs	r3, #28
 8005b44:	18fb      	adds	r3, r7, r3
 8005b46:	2208      	movs	r2, #8
 8005b48:	601a      	str	r2, [r3, #0]
	 GPIO_InitStruct.Mode = GPIO_MODE_AF_PP;
 8005b4a:	231c      	movs	r3, #28
 8005b4c:	18fb      	adds	r3, r7, r3
 8005b4e:	2202      	movs	r2, #2
 8005b50:	605a      	str	r2, [r3, #4]
	 GPIO_InitStruct.Pull = GPIO_PULLDOWN;
 8005b52:	231c      	movs	r3, #28
 8005b54:	18fb      	adds	r3, r7, r3
 8005b56:	2202      	movs	r2, #2
 8005b58:	609a      	str	r2, [r3, #8]
	 GPIO_InitStruct.Speed = GPIO_SPEED_FREQ_VERY_HIGH;
 8005b5a:	231c      	movs	r3, #28
 8005b5c:	18fb      	adds	r3, r7, r3
 8005b5e:	2203      	movs	r2, #3
 8005b60:	60da      	str	r2, [r3, #12]
	 GPIO_InitStruct.Alternate = GPIO_AF2_TIM2;
 8005b62:	231c      	movs	r3, #28
 8005b64:	18fb      	adds	r3, r7, r3
 8005b66:	2202      	movs	r2, #2
 8005b68:	611a      	str	r2, [r3, #16]
	 HAL_GPIO_Init(GPIOB, &GPIO_InitStruct);
 8005b6a:	231c      	movs	r3, #28
 8005b6c:	18fb      	adds	r3, r7, r3
 8005b6e:	4a08      	ldr	r2, [pc, #32]	; (8005b90 <led_init+0x160>)
 8005b70:	0019      	movs	r1, r3
 8005b72:	0010      	movs	r0, r2
 8005b74:	f7fc fe94 	bl	80028a0 <HAL_GPIO_Init>
}
 8005b78:	46c0      	nop			; (mov r8, r8)
 8005b7a:	46bd      	mov	sp, r7
 8005b7c:	b00c      	add	sp, #48	; 0x30
 8005b7e:	bd80      	pop	{r7, pc}
 8005b80:	40021000 	.word	0x40021000
 8005b84:	20000048 	.word	0x20000048
 8005b88:	00007cff 	.word	0x00007cff
 8005b8c:	08006f40 	.word	0x08006f40
 8005b90:	50000400 	.word	0x50000400

08005b94 <led_start>:


void led_start()
{
 8005b94:	b580      	push	{r7, lr}
 8005b96:	af00      	add	r7, sp, #0
	led_stop();
 8005b98:	f000 f832 	bl	8005c00 <led_stop>
	if(eColor==eRed||eColor==eOrange)
 8005b9c:	4b15      	ldr	r3, [pc, #84]	; (8005bf4 <led_start+0x60>)
 8005b9e:	781b      	ldrb	r3, [r3, #0]
 8005ba0:	2b01      	cmp	r3, #1
 8005ba2:	d003      	beq.n	8005bac <led_start+0x18>
 8005ba4:	4b13      	ldr	r3, [pc, #76]	; (8005bf4 <led_start+0x60>)
 8005ba6:	781b      	ldrb	r3, [r3, #0]
 8005ba8:	2b02      	cmp	r3, #2
 8005baa:	d10b      	bne.n	8005bc4 <led_start+0x30>
	{
		if(HAL_TIM_PWM_Start(&htim2, TIM_CHANNEL_1) != HAL_OK)
 8005bac:	4b12      	ldr	r3, [pc, #72]	; (8005bf8 <led_start+0x64>)
 8005bae:	2100      	movs	r1, #0
 8005bb0:	0018      	movs	r0, r3
 8005bb2:	f7fd fdd1 	bl	8003758 <HAL_TIM_PWM_Start>
 8005bb6:	1e03      	subs	r3, r0, #0
 8005bb8:	d004      	beq.n	8005bc4 <led_start+0x30>
		{
		  /* Starting Error */
			_Error_Handler(__FILE__, __LINE__);
 8005bba:	4b10      	ldr	r3, [pc, #64]	; (8005bfc <led_start+0x68>)
 8005bbc:	2174      	movs	r1, #116	; 0x74
 8005bbe:	0018      	movs	r0, r3
 8005bc0:	f000 fb06 	bl	80061d0 <_Error_Handler>
		}
	}

	if(eColor==eGreen||eColor==eOrange)
 8005bc4:	4b0b      	ldr	r3, [pc, #44]	; (8005bf4 <led_start+0x60>)
 8005bc6:	781b      	ldrb	r3, [r3, #0]
 8005bc8:	2b00      	cmp	r3, #0
 8005bca:	d003      	beq.n	8005bd4 <led_start+0x40>
 8005bcc:	4b09      	ldr	r3, [pc, #36]	; (8005bf4 <led_start+0x60>)
 8005bce:	781b      	ldrb	r3, [r3, #0]
 8005bd0:	2b02      	cmp	r3, #2
 8005bd2:	d10b      	bne.n	8005bec <led_start+0x58>
	{
		if(HAL_TIM_PWM_Start(&htim2, TIM_CHANNEL_2) != HAL_OK)
 8005bd4:	4b08      	ldr	r3, [pc, #32]	; (8005bf8 <led_start+0x64>)
 8005bd6:	2104      	movs	r1, #4
 8005bd8:	0018      	movs	r0, r3
 8005bda:	f7fd fdbd 	bl	8003758 <HAL_TIM_PWM_Start>
 8005bde:	1e03      	subs	r3, r0, #0
 8005be0:	d004      	beq.n	8005bec <led_start+0x58>
		{
		  /* Starting Error */
		_Error_Handler(__FILE__, __LINE__);
 8005be2:	4b06      	ldr	r3, [pc, #24]	; (8005bfc <led_start+0x68>)
 8005be4:	217d      	movs	r1, #125	; 0x7d
 8005be6:	0018      	movs	r0, r3
 8005be8:	f000 faf2 	bl	80061d0 <_Error_Handler>
		}
	}
}
 8005bec:	46c0      	nop			; (mov r8, r8)
 8005bee:	46bd      	mov	sp, r7
 8005bf0:	bd80      	pop	{r7, pc}
 8005bf2:	46c0      	nop			; (mov r8, r8)
 8005bf4:	20000081 	.word	0x20000081
 8005bf8:	20000048 	.word	0x20000048
 8005bfc:	08006f40 	.word	0x08006f40

08005c00 <led_stop>:

void led_stop()
{
 8005c00:	b580      	push	{r7, lr}
 8005c02:	af00      	add	r7, sp, #0
	if(HAL_TIM_PWM_Stop(&htim2, TIM_CHANNEL_1) != HAL_OK)
 8005c04:	4b0d      	ldr	r3, [pc, #52]	; (8005c3c <led_stop+0x3c>)
 8005c06:	2100      	movs	r1, #0
 8005c08:	0018      	movs	r0, r3
 8005c0a:	f7fd fdbf 	bl	800378c <HAL_TIM_PWM_Stop>
 8005c0e:	1e03      	subs	r3, r0, #0
 8005c10:	d004      	beq.n	8005c1c <led_stop+0x1c>
	{
	  /* Starting Error */
		_Error_Handler(__FILE__, __LINE__);
 8005c12:	4b0b      	ldr	r3, [pc, #44]	; (8005c40 <led_stop+0x40>)
 8005c14:	2187      	movs	r1, #135	; 0x87
 8005c16:	0018      	movs	r0, r3
 8005c18:	f000 fada 	bl	80061d0 <_Error_Handler>
	}

	if(HAL_TIM_PWM_Stop(&htim2, TIM_CHANNEL_2) != HAL_OK)
 8005c1c:	4b07      	ldr	r3, [pc, #28]	; (8005c3c <led_stop+0x3c>)
 8005c1e:	2104      	movs	r1, #4
 8005c20:	0018      	movs	r0, r3
 8005c22:	f7fd fdb3 	bl	800378c <HAL_TIM_PWM_Stop>
 8005c26:	1e03      	subs	r3, r0, #0
 8005c28:	d004      	beq.n	8005c34 <led_stop+0x34>
	{
	  /* Starting Error */
	_Error_Handler(__FILE__, __LINE__);
 8005c2a:	4b05      	ldr	r3, [pc, #20]	; (8005c40 <led_stop+0x40>)
 8005c2c:	218d      	movs	r1, #141	; 0x8d
 8005c2e:	0018      	movs	r0, r3
 8005c30:	f000 face 	bl	80061d0 <_Error_Handler>
	}
}
 8005c34:	46c0      	nop			; (mov r8, r8)
 8005c36:	46bd      	mov	sp, r7
 8005c38:	bd80      	pop	{r7, pc}
 8005c3a:	46c0      	nop			; (mov r8, r8)
 8005c3c:	20000048 	.word	0x20000048
 8005c40:	08006f40 	.word	0x08006f40

08005c44 <led_change_color>:

void led_change_color(uint8_t red_percent, uint8_t green_percent)
{
 8005c44:	b590      	push	{r4, r7, lr}
 8005c46:	b089      	sub	sp, #36	; 0x24
 8005c48:	af00      	add	r7, sp, #0
 8005c4a:	0002      	movs	r2, r0
 8005c4c:	1dfb      	adds	r3, r7, #7
 8005c4e:	701a      	strb	r2, [r3, #0]
 8005c50:	1dbb      	adds	r3, r7, #6
 8005c52:	1c0a      	adds	r2, r1, #0
 8005c54:	701a      	strb	r2, [r3, #0]
	TIM_OC_InitTypeDef sConfigOC;

	sConfigOC.OCMode = TIM_OCMODE_PWM1;
 8005c56:	230c      	movs	r3, #12
 8005c58:	18fb      	adds	r3, r7, r3
 8005c5a:	2260      	movs	r2, #96	; 0x60
 8005c5c:	601a      	str	r2, [r3, #0]
	sConfigOC.OCPolarity = TIM_OCPOLARITY_HIGH;
 8005c5e:	230c      	movs	r3, #12
 8005c60:	18fb      	adds	r3, r7, r3
 8005c62:	2200      	movs	r2, #0
 8005c64:	609a      	str	r2, [r3, #8]
	sConfigOC.OCFastMode = TIM_OCFAST_DISABLE;
 8005c66:	230c      	movs	r3, #12
 8005c68:	18fb      	adds	r3, r7, r3
 8005c6a:	2200      	movs	r2, #0
 8005c6c:	60da      	str	r2, [r3, #12]

	float period = PERIOD;
 8005c6e:	4b36      	ldr	r3, [pc, #216]	; (8005d48 <led_change_color+0x104>)
 8005c70:	61fb      	str	r3, [r7, #28]

	if(eColor==eRed||eColor==eOrange)
 8005c72:	4b36      	ldr	r3, [pc, #216]	; (8005d4c <led_change_color+0x108>)
 8005c74:	781b      	ldrb	r3, [r3, #0]
 8005c76:	2b01      	cmp	r3, #1
 8005c78:	d003      	beq.n	8005c82 <led_change_color+0x3e>
 8005c7a:	4b34      	ldr	r3, [pc, #208]	; (8005d4c <led_change_color+0x108>)
 8005c7c:	781b      	ldrb	r3, [r3, #0]
 8005c7e:	2b02      	cmp	r3, #2
 8005c80:	d129      	bne.n	8005cd6 <led_change_color+0x92>
	{
		// LED RED
		sConfigOC.Pulse = (period * (float) red_percent) / 100.0;
 8005c82:	1dfb      	adds	r3, r7, #7
 8005c84:	781b      	ldrb	r3, [r3, #0]
 8005c86:	0018      	movs	r0, r3
 8005c88:	f7fa fc08 	bl	800049c <__aeabi_ui2f>
 8005c8c:	1c03      	adds	r3, r0, #0
 8005c8e:	69f9      	ldr	r1, [r7, #28]
 8005c90:	1c18      	adds	r0, r3, #0
 8005c92:	f7fa fae3 	bl	800025c <__aeabi_fmul>
 8005c96:	1c03      	adds	r3, r0, #0
 8005c98:	1c18      	adds	r0, r3, #0
 8005c9a:	f7fb fac3 	bl	8001224 <__aeabi_f2d>
 8005c9e:	2200      	movs	r2, #0
 8005ca0:	4b2b      	ldr	r3, [pc, #172]	; (8005d50 <led_change_color+0x10c>)
 8005ca2:	f7fa fc41 	bl	8000528 <__aeabi_ddiv>
 8005ca6:	0003      	movs	r3, r0
 8005ca8:	000c      	movs	r4, r1
 8005caa:	0018      	movs	r0, r3
 8005cac:	0021      	movs	r1, r4
 8005cae:	f7fa fab7 	bl	8000220 <__aeabi_d2uiz>
 8005cb2:	0002      	movs	r2, r0
 8005cb4:	230c      	movs	r3, #12
 8005cb6:	18fb      	adds	r3, r7, r3
 8005cb8:	605a      	str	r2, [r3, #4]
		if (HAL_TIM_PWM_ConfigChannel(&htim2, &sConfigOC, TIM_CHANNEL_1) != HAL_OK)
 8005cba:	230c      	movs	r3, #12
 8005cbc:	18f9      	adds	r1, r7, r3
 8005cbe:	4b25      	ldr	r3, [pc, #148]	; (8005d54 <led_change_color+0x110>)
 8005cc0:	2200      	movs	r2, #0
 8005cc2:	0018      	movs	r0, r3
 8005cc4:	f7fd fd88 	bl	80037d8 <HAL_TIM_PWM_ConfigChannel>
 8005cc8:	1e03      	subs	r3, r0, #0
 8005cca:	d004      	beq.n	8005cd6 <led_change_color+0x92>
		{
			_Error_Handler(__FILE__, __LINE__);
 8005ccc:	4b22      	ldr	r3, [pc, #136]	; (8005d58 <led_change_color+0x114>)
 8005cce:	21a1      	movs	r1, #161	; 0xa1
 8005cd0:	0018      	movs	r0, r3
 8005cd2:	f000 fa7d 	bl	80061d0 <_Error_Handler>
		}
	}

	if(eColor==eGreen||eColor==eOrange)
 8005cd6:	4b1d      	ldr	r3, [pc, #116]	; (8005d4c <led_change_color+0x108>)
 8005cd8:	781b      	ldrb	r3, [r3, #0]
 8005cda:	2b00      	cmp	r3, #0
 8005cdc:	d003      	beq.n	8005ce6 <led_change_color+0xa2>
 8005cde:	4b1b      	ldr	r3, [pc, #108]	; (8005d4c <led_change_color+0x108>)
 8005ce0:	781b      	ldrb	r3, [r3, #0]
 8005ce2:	2b02      	cmp	r3, #2
 8005ce4:	d129      	bne.n	8005d3a <led_change_color+0xf6>
	{
		// LED GREEN
		sConfigOC.Pulse = (period * (float) green_percent) / 100.0;
 8005ce6:	1dbb      	adds	r3, r7, #6
 8005ce8:	781b      	ldrb	r3, [r3, #0]
 8005cea:	0018      	movs	r0, r3
 8005cec:	f7fa fbd6 	bl	800049c <__aeabi_ui2f>
 8005cf0:	1c03      	adds	r3, r0, #0
 8005cf2:	69f9      	ldr	r1, [r7, #28]
 8005cf4:	1c18      	adds	r0, r3, #0
 8005cf6:	f7fa fab1 	bl	800025c <__aeabi_fmul>
 8005cfa:	1c03      	adds	r3, r0, #0
 8005cfc:	1c18      	adds	r0, r3, #0
 8005cfe:	f7fb fa91 	bl	8001224 <__aeabi_f2d>
 8005d02:	2200      	movs	r2, #0
 8005d04:	4b12      	ldr	r3, [pc, #72]	; (8005d50 <led_change_color+0x10c>)
 8005d06:	f7fa fc0f 	bl	8000528 <__aeabi_ddiv>
 8005d0a:	0003      	movs	r3, r0
 8005d0c:	000c      	movs	r4, r1
 8005d0e:	0018      	movs	r0, r3
 8005d10:	0021      	movs	r1, r4
 8005d12:	f7fa fa85 	bl	8000220 <__aeabi_d2uiz>
 8005d16:	0002      	movs	r2, r0
 8005d18:	230c      	movs	r3, #12
 8005d1a:	18fb      	adds	r3, r7, r3
 8005d1c:	605a      	str	r2, [r3, #4]
		if (HAL_TIM_PWM_ConfigChannel(&htim2, &sConfigOC, TIM_CHANNEL_2) != HAL_OK)
 8005d1e:	230c      	movs	r3, #12
 8005d20:	18f9      	adds	r1, r7, r3
 8005d22:	4b0c      	ldr	r3, [pc, #48]	; (8005d54 <led_change_color+0x110>)
 8005d24:	2204      	movs	r2, #4
 8005d26:	0018      	movs	r0, r3
 8005d28:	f7fd fd56 	bl	80037d8 <HAL_TIM_PWM_ConfigChannel>
 8005d2c:	1e03      	subs	r3, r0, #0
 8005d2e:	d004      	beq.n	8005d3a <led_change_color+0xf6>
		{
			_Error_Handler(__FILE__, __LINE__);
 8005d30:	4b09      	ldr	r3, [pc, #36]	; (8005d58 <led_change_color+0x114>)
 8005d32:	21ab      	movs	r1, #171	; 0xab
 8005d34:	0018      	movs	r0, r3
 8005d36:	f000 fa4b 	bl	80061d0 <_Error_Handler>
		}
	}

	led_start();
 8005d3a:	f7ff ff2b 	bl	8005b94 <led_start>
}
 8005d3e:	46c0      	nop			; (mov r8, r8)
 8005d40:	46bd      	mov	sp, r7
 8005d42:	b009      	add	sp, #36	; 0x24
 8005d44:	bd90      	pop	{r4, r7, pc}
 8005d46:	46c0      	nop			; (mov r8, r8)
 8005d48:	46f9fe00 	.word	0x46f9fe00
 8005d4c:	20000081 	.word	0x20000081
 8005d50:	40590000 	.word	0x40590000
 8005d54:	20000048 	.word	0x20000048
 8005d58:	08006f40 	.word	0x08006f40

08005d5c <led_enable>:
		led_change_color(htim, (uint8_t) red_percent_actual, (uint8_t) green_percent_actual);
		HAL_Delay(1); // 1ms steps
	}
} */
void led_enable(enum eLedType eLType, enum eLedColor eLColor)
{
 8005d5c:	b580      	push	{r7, lr}
 8005d5e:	b082      	sub	sp, #8
 8005d60:	af00      	add	r7, sp, #0
 8005d62:	0002      	movs	r2, r0
 8005d64:	1dfb      	adds	r3, r7, #7
 8005d66:	701a      	strb	r2, [r3, #0]
 8005d68:	1dbb      	adds	r3, r7, #6
 8005d6a:	1c0a      	adds	r2, r1, #0
 8005d6c:	701a      	strb	r2, [r3, #0]
	led_active = 1;
 8005d6e:	4b16      	ldr	r3, [pc, #88]	; (8005dc8 <led_enable+0x6c>)
 8005d70:	2201      	movs	r2, #1
 8005d72:	701a      	strb	r2, [r3, #0]
	eType = eLType;
 8005d74:	4b15      	ldr	r3, [pc, #84]	; (8005dcc <led_enable+0x70>)
 8005d76:	1dfa      	adds	r2, r7, #7
 8005d78:	7812      	ldrb	r2, [r2, #0]
 8005d7a:	701a      	strb	r2, [r3, #0]
	eColor = eLColor;
 8005d7c:	4b14      	ldr	r3, [pc, #80]	; (8005dd0 <led_enable+0x74>)
 8005d7e:	1dba      	adds	r2, r7, #6
 8005d80:	7812      	ldrb	r2, [r2, #0]
 8005d82:	701a      	strb	r2, [r3, #0]

	// Led steady operated
	if(eType == eSteady)
 8005d84:	4b11      	ldr	r3, [pc, #68]	; (8005dcc <led_enable+0x70>)
 8005d86:	781b      	ldrb	r3, [r3, #0]
 8005d88:	2b00      	cmp	r3, #0
 8005d8a:	d119      	bne.n	8005dc0 <led_enable+0x64>
	{
		if(eColor==eGreen) led_change_color(0, 100);
 8005d8c:	4b10      	ldr	r3, [pc, #64]	; (8005dd0 <led_enable+0x74>)
 8005d8e:	781b      	ldrb	r3, [r3, #0]
 8005d90:	2b00      	cmp	r3, #0
 8005d92:	d104      	bne.n	8005d9e <led_enable+0x42>
 8005d94:	2164      	movs	r1, #100	; 0x64
 8005d96:	2000      	movs	r0, #0
 8005d98:	f7ff ff54 	bl	8005c44 <led_change_color>
		else if(eColor==eRed) led_change_color(100, 0);
		else if(eColor==eOrange) led_change_color(100, 100);
	}
}
 8005d9c:	e010      	b.n	8005dc0 <led_enable+0x64>
		else if(eColor==eRed) led_change_color(100, 0);
 8005d9e:	4b0c      	ldr	r3, [pc, #48]	; (8005dd0 <led_enable+0x74>)
 8005da0:	781b      	ldrb	r3, [r3, #0]
 8005da2:	2b01      	cmp	r3, #1
 8005da4:	d104      	bne.n	8005db0 <led_enable+0x54>
 8005da6:	2100      	movs	r1, #0
 8005da8:	2064      	movs	r0, #100	; 0x64
 8005daa:	f7ff ff4b 	bl	8005c44 <led_change_color>
}
 8005dae:	e007      	b.n	8005dc0 <led_enable+0x64>
		else if(eColor==eOrange) led_change_color(100, 100);
 8005db0:	4b07      	ldr	r3, [pc, #28]	; (8005dd0 <led_enable+0x74>)
 8005db2:	781b      	ldrb	r3, [r3, #0]
 8005db4:	2b02      	cmp	r3, #2
 8005db6:	d103      	bne.n	8005dc0 <led_enable+0x64>
 8005db8:	2164      	movs	r1, #100	; 0x64
 8005dba:	2064      	movs	r0, #100	; 0x64
 8005dbc:	f7ff ff42 	bl	8005c44 <led_change_color>
}
 8005dc0:	46c0      	nop			; (mov r8, r8)
 8005dc2:	46bd      	mov	sp, r7
 8005dc4:	b002      	add	sp, #8
 8005dc6:	bd80      	pop	{r7, pc}
 8005dc8:	20000080 	.word	0x20000080
 8005dcc:	20000082 	.word	0x20000082
 8005dd0:	20000081 	.word	0x20000081

08005dd4 <led_disable>:

void led_disable(void)
{
 8005dd4:	b580      	push	{r7, lr}
 8005dd6:	af00      	add	r7, sp, #0
	led_active = 0;
 8005dd8:	4b03      	ldr	r3, [pc, #12]	; (8005de8 <led_disable+0x14>)
 8005dda:	2200      	movs	r2, #0
 8005ddc:	701a      	strb	r2, [r3, #0]
	led_stop();
 8005dde:	f7ff ff0f 	bl	8005c00 <led_stop>
}
 8005de2:	46c0      	nop			; (mov r8, r8)
 8005de4:	46bd      	mov	sp, r7
 8005de6:	bd80      	pop	{r7, pc}
 8005de8:	20000080 	.word	0x20000080

08005dec <LED_ProcessIT>:

// will be called every 1 ms
void LED_ProcessIT(void)
{
 8005dec:	b580      	push	{r7, lr}
 8005dee:	af00      	add	r7, sp, #0
	static int i=0;
	static int cnt=0;
	static char flag_10ms;
	static char direction=1;

	if(led_active && eType == eFlash)
 8005df0:	4b42      	ldr	r3, [pc, #264]	; (8005efc <LED_ProcessIT+0x110>)
 8005df2:	781b      	ldrb	r3, [r3, #0]
 8005df4:	2b00      	cmp	r3, #0
 8005df6:	d100      	bne.n	8005dfa <LED_ProcessIT+0xe>
 8005df8:	e06f      	b.n	8005eda <LED_ProcessIT+0xee>
 8005dfa:	4b41      	ldr	r3, [pc, #260]	; (8005f00 <LED_ProcessIT+0x114>)
 8005dfc:	781b      	ldrb	r3, [r3, #0]
 8005dfe:	2b01      	cmp	r3, #1
 8005e00:	d000      	beq.n	8005e04 <LED_ProcessIT+0x18>
 8005e02:	e06a      	b.n	8005eda <LED_ProcessIT+0xee>
	{
		cnt++;
 8005e04:	4b3f      	ldr	r3, [pc, #252]	; (8005f04 <LED_ProcessIT+0x118>)
 8005e06:	681b      	ldr	r3, [r3, #0]
 8005e08:	1c5a      	adds	r2, r3, #1
 8005e0a:	4b3e      	ldr	r3, [pc, #248]	; (8005f04 <LED_ProcessIT+0x118>)
 8005e0c:	601a      	str	r2, [r3, #0]
		if(cnt>=15) // changed to 15ms flags
 8005e0e:	4b3d      	ldr	r3, [pc, #244]	; (8005f04 <LED_ProcessIT+0x118>)
 8005e10:	681b      	ldr	r3, [r3, #0]
 8005e12:	2b0e      	cmp	r3, #14
 8005e14:	dd06      	ble.n	8005e24 <LED_ProcessIT+0x38>
		{
			flag_10ms = 1;
 8005e16:	4b3c      	ldr	r3, [pc, #240]	; (8005f08 <LED_ProcessIT+0x11c>)
 8005e18:	2201      	movs	r2, #1
 8005e1a:	701a      	strb	r2, [r3, #0]
			cnt = 0;
 8005e1c:	4b39      	ldr	r3, [pc, #228]	; (8005f04 <LED_ProcessIT+0x118>)
 8005e1e:	2200      	movs	r2, #0
 8005e20:	601a      	str	r2, [r3, #0]
 8005e22:	e002      	b.n	8005e2a <LED_ProcessIT+0x3e>
		}
		else
		{
			flag_10ms = 0;
 8005e24:	4b38      	ldr	r3, [pc, #224]	; (8005f08 <LED_ProcessIT+0x11c>)
 8005e26:	2200      	movs	r2, #0
 8005e28:	701a      	strb	r2, [r3, #0]
		}

		if(flag_10ms && led_active)
 8005e2a:	4b37      	ldr	r3, [pc, #220]	; (8005f08 <LED_ProcessIT+0x11c>)
 8005e2c:	781b      	ldrb	r3, [r3, #0]
 8005e2e:	2b00      	cmp	r3, #0
 8005e30:	d060      	beq.n	8005ef4 <LED_ProcessIT+0x108>
 8005e32:	4b32      	ldr	r3, [pc, #200]	; (8005efc <LED_ProcessIT+0x110>)
 8005e34:	781b      	ldrb	r3, [r3, #0]
 8005e36:	2b00      	cmp	r3, #0
 8005e38:	d05c      	beq.n	8005ef4 <LED_ProcessIT+0x108>
		{
			if(direction==1)
 8005e3a:	4b34      	ldr	r3, [pc, #208]	; (8005f0c <LED_ProcessIT+0x120>)
 8005e3c:	781b      	ldrb	r3, [r3, #0]
 8005e3e:	2b01      	cmp	r3, #1
 8005e40:	d112      	bne.n	8005e68 <LED_ProcessIT+0x7c>
			{
				if(i<100) i++;
 8005e42:	4b33      	ldr	r3, [pc, #204]	; (8005f10 <LED_ProcessIT+0x124>)
 8005e44:	681b      	ldr	r3, [r3, #0]
 8005e46:	2b63      	cmp	r3, #99	; 0x63
 8005e48:	dc05      	bgt.n	8005e56 <LED_ProcessIT+0x6a>
 8005e4a:	4b31      	ldr	r3, [pc, #196]	; (8005f10 <LED_ProcessIT+0x124>)
 8005e4c:	681b      	ldr	r3, [r3, #0]
 8005e4e:	1c5a      	adds	r2, r3, #1
 8005e50:	4b2f      	ldr	r3, [pc, #188]	; (8005f10 <LED_ProcessIT+0x124>)
 8005e52:	601a      	str	r2, [r3, #0]
 8005e54:	e01a      	b.n	8005e8c <LED_ProcessIT+0xa0>
				else
				{
					i--;
 8005e56:	4b2e      	ldr	r3, [pc, #184]	; (8005f10 <LED_ProcessIT+0x124>)
 8005e58:	681b      	ldr	r3, [r3, #0]
 8005e5a:	1e5a      	subs	r2, r3, #1
 8005e5c:	4b2c      	ldr	r3, [pc, #176]	; (8005f10 <LED_ProcessIT+0x124>)
 8005e5e:	601a      	str	r2, [r3, #0]
					direction=0;
 8005e60:	4b2a      	ldr	r3, [pc, #168]	; (8005f0c <LED_ProcessIT+0x120>)
 8005e62:	2200      	movs	r2, #0
 8005e64:	701a      	strb	r2, [r3, #0]
 8005e66:	e011      	b.n	8005e8c <LED_ProcessIT+0xa0>
				}
			}
			else
			{
				if(i>0) i--;
 8005e68:	4b29      	ldr	r3, [pc, #164]	; (8005f10 <LED_ProcessIT+0x124>)
 8005e6a:	681b      	ldr	r3, [r3, #0]
 8005e6c:	2b00      	cmp	r3, #0
 8005e6e:	dd05      	ble.n	8005e7c <LED_ProcessIT+0x90>
 8005e70:	4b27      	ldr	r3, [pc, #156]	; (8005f10 <LED_ProcessIT+0x124>)
 8005e72:	681b      	ldr	r3, [r3, #0]
 8005e74:	1e5a      	subs	r2, r3, #1
 8005e76:	4b26      	ldr	r3, [pc, #152]	; (8005f10 <LED_ProcessIT+0x124>)
 8005e78:	601a      	str	r2, [r3, #0]
 8005e7a:	e007      	b.n	8005e8c <LED_ProcessIT+0xa0>
				else
				{
					i++;
 8005e7c:	4b24      	ldr	r3, [pc, #144]	; (8005f10 <LED_ProcessIT+0x124>)
 8005e7e:	681b      	ldr	r3, [r3, #0]
 8005e80:	1c5a      	adds	r2, r3, #1
 8005e82:	4b23      	ldr	r3, [pc, #140]	; (8005f10 <LED_ProcessIT+0x124>)
 8005e84:	601a      	str	r2, [r3, #0]
					direction=1;
 8005e86:	4b21      	ldr	r3, [pc, #132]	; (8005f0c <LED_ProcessIT+0x120>)
 8005e88:	2201      	movs	r2, #1
 8005e8a:	701a      	strb	r2, [r3, #0]
				}
			}

			if(eColor==eGreen) led_change_color(0, i);
 8005e8c:	4b21      	ldr	r3, [pc, #132]	; (8005f14 <LED_ProcessIT+0x128>)
 8005e8e:	781b      	ldrb	r3, [r3, #0]
 8005e90:	2b00      	cmp	r3, #0
 8005e92:	d107      	bne.n	8005ea4 <LED_ProcessIT+0xb8>
 8005e94:	4b1e      	ldr	r3, [pc, #120]	; (8005f10 <LED_ProcessIT+0x124>)
 8005e96:	681b      	ldr	r3, [r3, #0]
 8005e98:	b2db      	uxtb	r3, r3
 8005e9a:	0019      	movs	r1, r3
 8005e9c:	2000      	movs	r0, #0
 8005e9e:	f7ff fed1 	bl	8005c44 <led_change_color>
		if(flag_10ms && led_active)
 8005ea2:	e027      	b.n	8005ef4 <LED_ProcessIT+0x108>
			else if(eColor==eRed) led_change_color(i, 0);
 8005ea4:	4b1b      	ldr	r3, [pc, #108]	; (8005f14 <LED_ProcessIT+0x128>)
 8005ea6:	781b      	ldrb	r3, [r3, #0]
 8005ea8:	2b01      	cmp	r3, #1
 8005eaa:	d107      	bne.n	8005ebc <LED_ProcessIT+0xd0>
 8005eac:	4b18      	ldr	r3, [pc, #96]	; (8005f10 <LED_ProcessIT+0x124>)
 8005eae:	681b      	ldr	r3, [r3, #0]
 8005eb0:	b2db      	uxtb	r3, r3
 8005eb2:	2100      	movs	r1, #0
 8005eb4:	0018      	movs	r0, r3
 8005eb6:	f7ff fec5 	bl	8005c44 <led_change_color>
		if(flag_10ms && led_active)
 8005eba:	e01b      	b.n	8005ef4 <LED_ProcessIT+0x108>
			else if(eColor==eOrange) led_change_color(i, i);
 8005ebc:	4b15      	ldr	r3, [pc, #84]	; (8005f14 <LED_ProcessIT+0x128>)
 8005ebe:	781b      	ldrb	r3, [r3, #0]
 8005ec0:	2b02      	cmp	r3, #2
 8005ec2:	d117      	bne.n	8005ef4 <LED_ProcessIT+0x108>
 8005ec4:	4b12      	ldr	r3, [pc, #72]	; (8005f10 <LED_ProcessIT+0x124>)
 8005ec6:	681b      	ldr	r3, [r3, #0]
 8005ec8:	b2da      	uxtb	r2, r3
 8005eca:	4b11      	ldr	r3, [pc, #68]	; (8005f10 <LED_ProcessIT+0x124>)
 8005ecc:	681b      	ldr	r3, [r3, #0]
 8005ece:	b2db      	uxtb	r3, r3
 8005ed0:	0019      	movs	r1, r3
 8005ed2:	0010      	movs	r0, r2
 8005ed4:	f7ff feb6 	bl	8005c44 <led_change_color>
		if(flag_10ms && led_active)
 8005ed8:	e00c      	b.n	8005ef4 <LED_ProcessIT+0x108>
		}
	}
	else
	{
		i=0;
 8005eda:	4b0d      	ldr	r3, [pc, #52]	; (8005f10 <LED_ProcessIT+0x124>)
 8005edc:	2200      	movs	r2, #0
 8005ede:	601a      	str	r2, [r3, #0]
		cnt=0;
 8005ee0:	4b08      	ldr	r3, [pc, #32]	; (8005f04 <LED_ProcessIT+0x118>)
 8005ee2:	2200      	movs	r2, #0
 8005ee4:	601a      	str	r2, [r3, #0]
		direction=0;
 8005ee6:	4b09      	ldr	r3, [pc, #36]	; (8005f0c <LED_ProcessIT+0x120>)
 8005ee8:	2200      	movs	r2, #0
 8005eea:	701a      	strb	r2, [r3, #0]
		flag_10ms=0;
 8005eec:	4b06      	ldr	r3, [pc, #24]	; (8005f08 <LED_ProcessIT+0x11c>)
 8005eee:	2200      	movs	r2, #0
 8005ef0:	701a      	strb	r2, [r3, #0]
	}
}
 8005ef2:	e000      	b.n	8005ef6 <LED_ProcessIT+0x10a>
		if(flag_10ms && led_active)
 8005ef4:	46c0      	nop			; (mov r8, r8)
}
 8005ef6:	46c0      	nop			; (mov r8, r8)
 8005ef8:	46bd      	mov	sp, r7
 8005efa:	bd80      	pop	{r7, pc}
 8005efc:	20000080 	.word	0x20000080
 8005f00:	20000082 	.word	0x20000082
 8005f04:	20000084 	.word	0x20000084
 8005f08:	20000088 	.word	0x20000088
 8005f0c:	20000000 	.word	0x20000000
 8005f10:	2000008c 	.word	0x2000008c
 8005f14:	20000081 	.word	0x20000081

08005f18 <main>:
  * @brief  The application entry point.
  *
  * @retval None
  */
int main(void)
{
 8005f18:	b580      	push	{r7, lr}
 8005f1a:	af00      	add	r7, sp, #0
  /* USER CODE END 1 */

  /* MCU Configuration----------------------------------------------------------*/

  /* Reset of all peripherals, Initializes the Flash interface and the Systick. */
  HAL_Init();
 8005f1c:	f7fb fb30 	bl	8001580 <HAL_Init>
  /* USER CODE BEGIN Init */

  /* USER CODE END Init */

  /* Configure the system clock */
  SystemClock_Config();
 8005f20:	f000 f89a 	bl	8006058 <SystemClock_Config>

  /* USER CODE END SysInit */

  /* Initialize all configured peripherals */

  printer_init();
 8005f24:	f000 f9aa 	bl	800627c <printer_init>

  while (1)
  {

	  // STATE MACHINE
	  switch(state)
 8005f28:	4b30      	ldr	r3, [pc, #192]	; (8005fec <main+0xd4>)
 8005f2a:	781b      	ldrb	r3, [r3, #0]
 8005f2c:	2b01      	cmp	r3, #1
 8005f2e:	d03b      	beq.n	8005fa8 <main+0x90>
 8005f30:	2b03      	cmp	r3, #3
 8005f32:	d029      	beq.n	8005f88 <main+0x70>
 8005f34:	2b00      	cmp	r3, #0
 8005f36:	d152      	bne.n	8005fde <main+0xc6>
	  {


	  case eAwake:
		  power_init();
 8005f38:	f000 f950 	bl	80061dc <power_init>
		  tp_power_on();
 8005f3c:	f000 f978 	bl	8006230 <tp_power_on>
		  led_init();
 8005f40:	f7ff fd76 	bl	8005a30 <led_init>
		  MX_TSC_Init();
 8005f44:	f000 f8fc 	bl	8006140 <MX_TSC_Init>
		  tsl_user_Init();
 8005f48:	f000 ff08 	bl	8006d5c <tsl_user_Init>

		  led_enable(eSteady,eGreen);
 8005f4c:	2100      	movs	r1, #0
 8005f4e:	2000      	movs	r0, #0
 8005f50:	f7ff ff04 	bl	8005d5c <led_enable>

		  while(LINEAR_DETECT==0)
 8005f54:	e005      	b.n	8005f62 <main+0x4a>
		  {
			  tsl_user_Exec();
 8005f56:	f000 ff15 	bl	8006d84 <tsl_user_Exec>
			  if(maintimer>= 60)
 8005f5a:	4b25      	ldr	r3, [pc, #148]	; (8005ff0 <main+0xd8>)
 8005f5c:	681b      	ldr	r3, [r3, #0]
 8005f5e:	2b3b      	cmp	r3, #59	; 0x3b
 8005f60:	d805      	bhi.n	8005f6e <main+0x56>
		  while(LINEAR_DETECT==0)
 8005f62:	4b24      	ldr	r3, [pc, #144]	; (8005ff4 <main+0xdc>)
 8005f64:	681b      	ldr	r3, [r3, #0]
 8005f66:	781b      	ldrb	r3, [r3, #0]
 8005f68:	2b0a      	cmp	r3, #10
 8005f6a:	d1f4      	bne.n	8005f56 <main+0x3e>
 8005f6c:	e000      	b.n	8005f70 <main+0x58>
			  {

				  break;
 8005f6e:	46c0      	nop			; (mov r8, r8)
			  }
		  }

		  if(maintimer>=60) state = eSleep;
 8005f70:	4b1f      	ldr	r3, [pc, #124]	; (8005ff0 <main+0xd8>)
 8005f72:	681b      	ldr	r3, [r3, #0]
 8005f74:	2b3b      	cmp	r3, #59	; 0x3b
 8005f76:	d903      	bls.n	8005f80 <main+0x68>
 8005f78:	4b1c      	ldr	r3, [pc, #112]	; (8005fec <main+0xd4>)
 8005f7a:	2201      	movs	r2, #1
 8005f7c:	701a      	strb	r2, [r3, #0]
		  else state = ePrint;


		  break;
 8005f7e:	e033      	b.n	8005fe8 <main+0xd0>
		  else state = ePrint;
 8005f80:	4b1a      	ldr	r3, [pc, #104]	; (8005fec <main+0xd4>)
 8005f82:	2203      	movs	r2, #3
 8005f84:	701a      	strb	r2, [r3, #0]
		  break;
 8005f86:	e02f      	b.n	8005fe8 <main+0xd0>


	  case ePrint:
		  mot_power_on();
 8005f88:	f000 f95f 	bl	800624a <mot_power_on>

		  led_enable(eFlash,eGreen);
 8005f8c:	2100      	movs	r1, #0
 8005f8e:	2001      	movs	r0, #1
 8005f90:	f7ff fee4 	bl	8005d5c <led_enable>

		  printer_print_message(" 03-09-2018 ");
 8005f94:	4b18      	ldr	r3, [pc, #96]	; (8005ff8 <main+0xe0>)
 8005f96:	0018      	movs	r0, r3
 8005f98:	f000 fa42 	bl	8006420 <printer_print_message>

		  state = eAwake;
 8005f9c:	4b13      	ldr	r3, [pc, #76]	; (8005fec <main+0xd4>)
 8005f9e:	2200      	movs	r2, #0
 8005fa0:	701a      	strb	r2, [r3, #0]

		  mot_power_off();
 8005fa2:	f000 f95e 	bl	8006262 <mot_power_off>
		  break;
 8005fa6:	e01f      	b.n	8005fe8 <main+0xd0>


	  case eSleep:

		  tsl_user_Init();
 8005fa8:	f000 fed8 	bl	8006d5c <tsl_user_Init>
		  maintimer = 0;
 8005fac:	4b10      	ldr	r3, [pc, #64]	; (8005ff0 <main+0xd8>)
 8005fae:	2200      	movs	r2, #0
 8005fb0:	601a      	str	r2, [r3, #0]

		  // testing
		  led_enable(eSteady,eRed);
 8005fb2:	2101      	movs	r1, #1
 8005fb4:	2000      	movs	r0, #0
 8005fb6:	f7ff fed1 	bl	8005d5c <led_enable>

		  while(LINEAR_DETECT==0)
 8005fba:	e007      	b.n	8005fcc <main+0xb4>
		  {
			  tsl_user_Exec();
 8005fbc:	f000 fee2 	bl	8006d84 <tsl_user_Exec>
			  if(maintimer>=10) led_disable();
 8005fc0:	4b0b      	ldr	r3, [pc, #44]	; (8005ff0 <main+0xd8>)
 8005fc2:	681b      	ldr	r3, [r3, #0]
 8005fc4:	2b09      	cmp	r3, #9
 8005fc6:	d901      	bls.n	8005fcc <main+0xb4>
 8005fc8:	f7ff ff04 	bl	8005dd4 <led_disable>
		  while(LINEAR_DETECT==0)
 8005fcc:	4b09      	ldr	r3, [pc, #36]	; (8005ff4 <main+0xdc>)
 8005fce:	681b      	ldr	r3, [r3, #0]
 8005fd0:	781b      	ldrb	r3, [r3, #0]
 8005fd2:	2b0a      	cmp	r3, #10
 8005fd4:	d1f2      	bne.n	8005fbc <main+0xa4>
		  }

		  state = eAwake;
 8005fd6:	4b05      	ldr	r3, [pc, #20]	; (8005fec <main+0xd4>)
 8005fd8:	2200      	movs	r2, #0
 8005fda:	701a      	strb	r2, [r3, #0]
	  		  break;
 8005fdc:	e004      	b.n	8005fe8 <main+0xd0>


	  default:
		  led_enable(eSteady,eRed);
 8005fde:	2101      	movs	r1, #1
 8005fe0:	2000      	movs	r0, #0
 8005fe2:	f7ff febb 	bl	8005d5c <led_enable>
		  break;
 8005fe6:	46c0      	nop			; (mov r8, r8)
	  switch(state)
 8005fe8:	e79e      	b.n	8005f28 <main+0x10>
 8005fea:	46c0      	nop			; (mov r8, r8)
 8005fec:	20000484 	.word	0x20000484
 8005ff0:	20000090 	.word	0x20000090
 8005ff4:	08007518 	.word	0x08007518
 8005ff8:	08006f50 	.word	0x08006f50

08005ffc <MAIN_TimerIT>:
  }
}


void MAIN_TimerIT(void)
{
 8005ffc:	b580      	push	{r7, lr}
 8005ffe:	af00      	add	r7, sp, #0
	static int cnt=0;
	static enum eState eOldState;

	cnt++;
 8006000:	4b10      	ldr	r3, [pc, #64]	; (8006044 <MAIN_TimerIT+0x48>)
 8006002:	681b      	ldr	r3, [r3, #0]
 8006004:	1c5a      	adds	r2, r3, #1
 8006006:	4b0f      	ldr	r3, [pc, #60]	; (8006044 <MAIN_TimerIT+0x48>)
 8006008:	601a      	str	r2, [r3, #0]
	if(cnt>=1000)
 800600a:	4b0e      	ldr	r3, [pc, #56]	; (8006044 <MAIN_TimerIT+0x48>)
 800600c:	681b      	ldr	r3, [r3, #0]
 800600e:	4a0e      	ldr	r2, [pc, #56]	; (8006048 <MAIN_TimerIT+0x4c>)
 8006010:	4293      	cmp	r3, r2
 8006012:	dd07      	ble.n	8006024 <MAIN_TimerIT+0x28>
	{
		maintimer++;
 8006014:	4b0d      	ldr	r3, [pc, #52]	; (800604c <MAIN_TimerIT+0x50>)
 8006016:	681b      	ldr	r3, [r3, #0]
 8006018:	1c5a      	adds	r2, r3, #1
 800601a:	4b0c      	ldr	r3, [pc, #48]	; (800604c <MAIN_TimerIT+0x50>)
 800601c:	601a      	str	r2, [r3, #0]
		cnt = 0;
 800601e:	4b09      	ldr	r3, [pc, #36]	; (8006044 <MAIN_TimerIT+0x48>)
 8006020:	2200      	movs	r2, #0
 8006022:	601a      	str	r2, [r3, #0]
	}

	if(eOldState!=state) maintimer = 0;
 8006024:	4b0a      	ldr	r3, [pc, #40]	; (8006050 <MAIN_TimerIT+0x54>)
 8006026:	781a      	ldrb	r2, [r3, #0]
 8006028:	4b0a      	ldr	r3, [pc, #40]	; (8006054 <MAIN_TimerIT+0x58>)
 800602a:	781b      	ldrb	r3, [r3, #0]
 800602c:	429a      	cmp	r2, r3
 800602e:	d002      	beq.n	8006036 <MAIN_TimerIT+0x3a>
 8006030:	4b06      	ldr	r3, [pc, #24]	; (800604c <MAIN_TimerIT+0x50>)
 8006032:	2200      	movs	r2, #0
 8006034:	601a      	str	r2, [r3, #0]

	eOldState = state;
 8006036:	4b07      	ldr	r3, [pc, #28]	; (8006054 <MAIN_TimerIT+0x58>)
 8006038:	781a      	ldrb	r2, [r3, #0]
 800603a:	4b05      	ldr	r3, [pc, #20]	; (8006050 <MAIN_TimerIT+0x54>)
 800603c:	701a      	strb	r2, [r3, #0]
}
 800603e:	46c0      	nop			; (mov r8, r8)
 8006040:	46bd      	mov	sp, r7
 8006042:	bd80      	pop	{r7, pc}
 8006044:	20000094 	.word	0x20000094
 8006048:	000003e7 	.word	0x000003e7
 800604c:	20000090 	.word	0x20000090
 8006050:	20000098 	.word	0x20000098
 8006054:	20000484 	.word	0x20000484

08006058 <SystemClock_Config>:
/**
  * @brief System Clock Configuration
  * @retval None
  */
void SystemClock_Config(void)
{
 8006058:	b580      	push	{r7, lr}
 800605a:	b094      	sub	sp, #80	; 0x50
 800605c:	af00      	add	r7, sp, #0
  RCC_OscInitTypeDef RCC_OscInitStruct;
  RCC_ClkInitTypeDef RCC_ClkInitStruct;

    /**Configure the main internal regulator output voltage 
    */
  __HAL_PWR_VOLTAGESCALING_CONFIG(PWR_REGULATOR_VOLTAGE_SCALE1);
 800605e:	4b35      	ldr	r3, [pc, #212]	; (8006134 <SystemClock_Config+0xdc>)
 8006060:	4a34      	ldr	r2, [pc, #208]	; (8006134 <SystemClock_Config+0xdc>)
 8006062:	6812      	ldr	r2, [r2, #0]
 8006064:	4934      	ldr	r1, [pc, #208]	; (8006138 <SystemClock_Config+0xe0>)
 8006066:	400a      	ands	r2, r1
 8006068:	2180      	movs	r1, #128	; 0x80
 800606a:	0109      	lsls	r1, r1, #4
 800606c:	430a      	orrs	r2, r1
 800606e:	601a      	str	r2, [r3, #0]

    /**Initializes the CPU, AHB and APB busses clocks 
    */
  RCC_OscInitStruct.OscillatorType = RCC_OSCILLATORTYPE_HSI;
 8006070:	2318      	movs	r3, #24
 8006072:	18fb      	adds	r3, r7, r3
 8006074:	2202      	movs	r2, #2
 8006076:	601a      	str	r2, [r3, #0]
  RCC_OscInitStruct.HSIState = RCC_HSI_ON;
 8006078:	2318      	movs	r3, #24
 800607a:	18fb      	adds	r3, r7, r3
 800607c:	2201      	movs	r2, #1
 800607e:	60da      	str	r2, [r3, #12]
  RCC_OscInitStruct.HSICalibrationValue = 16;
 8006080:	2318      	movs	r3, #24
 8006082:	18fb      	adds	r3, r7, r3
 8006084:	2210      	movs	r2, #16
 8006086:	611a      	str	r2, [r3, #16]
  RCC_OscInitStruct.PLL.PLLState = RCC_PLL_ON;
 8006088:	2318      	movs	r3, #24
 800608a:	18fb      	adds	r3, r7, r3
 800608c:	2202      	movs	r2, #2
 800608e:	629a      	str	r2, [r3, #40]	; 0x28
  RCC_OscInitStruct.PLL.PLLSource = RCC_PLLSOURCE_HSI;
 8006090:	2318      	movs	r3, #24
 8006092:	18fb      	adds	r3, r7, r3
 8006094:	2200      	movs	r2, #0
 8006096:	62da      	str	r2, [r3, #44]	; 0x2c
  RCC_OscInitStruct.PLL.PLLMUL = RCC_PLLMUL_4;
 8006098:	2318      	movs	r3, #24
 800609a:	18fb      	adds	r3, r7, r3
 800609c:	2280      	movs	r2, #128	; 0x80
 800609e:	02d2      	lsls	r2, r2, #11
 80060a0:	631a      	str	r2, [r3, #48]	; 0x30
  RCC_OscInitStruct.PLL.PLLDIV = RCC_PLLDIV_2;
 80060a2:	2318      	movs	r3, #24
 80060a4:	18fb      	adds	r3, r7, r3
 80060a6:	2280      	movs	r2, #128	; 0x80
 80060a8:	03d2      	lsls	r2, r2, #15
 80060aa:	635a      	str	r2, [r3, #52]	; 0x34
  if (HAL_RCC_OscConfig(&RCC_OscInitStruct) != HAL_OK)
 80060ac:	2318      	movs	r3, #24
 80060ae:	18fb      	adds	r3, r7, r3
 80060b0:	0018      	movs	r0, r3
 80060b2:	f7fc fd89 	bl	8002bc8 <HAL_RCC_OscConfig>
 80060b6:	1e03      	subs	r3, r0, #0
 80060b8:	d004      	beq.n	80060c4 <SystemClock_Config+0x6c>
  {
    _Error_Handler(__FILE__, __LINE__);
 80060ba:	4b20      	ldr	r3, [pc, #128]	; (800613c <SystemClock_Config+0xe4>)
 80060bc:	21f7      	movs	r1, #247	; 0xf7
 80060be:	0018      	movs	r0, r3
 80060c0:	f000 f886 	bl	80061d0 <_Error_Handler>
  }

    /**Initializes the CPU, AHB and APB busses clocks 
    */
  RCC_ClkInitStruct.ClockType = RCC_CLOCKTYPE_HCLK|RCC_CLOCKTYPE_SYSCLK
 80060c4:	1d3b      	adds	r3, r7, #4
 80060c6:	220f      	movs	r2, #15
 80060c8:	601a      	str	r2, [r3, #0]
                              |RCC_CLOCKTYPE_PCLK1|RCC_CLOCKTYPE_PCLK2;
  RCC_ClkInitStruct.SYSCLKSource = RCC_SYSCLKSOURCE_PLLCLK;
 80060ca:	1d3b      	adds	r3, r7, #4
 80060cc:	2203      	movs	r2, #3
 80060ce:	605a      	str	r2, [r3, #4]
  RCC_ClkInitStruct.AHBCLKDivider = RCC_SYSCLK_DIV1;
 80060d0:	1d3b      	adds	r3, r7, #4
 80060d2:	2200      	movs	r2, #0
 80060d4:	609a      	str	r2, [r3, #8]
  RCC_ClkInitStruct.APB1CLKDivider = RCC_HCLK_DIV1;
 80060d6:	1d3b      	adds	r3, r7, #4
 80060d8:	2200      	movs	r2, #0
 80060da:	60da      	str	r2, [r3, #12]
  RCC_ClkInitStruct.APB2CLKDivider = RCC_HCLK_DIV1;
 80060dc:	1d3b      	adds	r3, r7, #4
 80060de:	2200      	movs	r2, #0
 80060e0:	611a      	str	r2, [r3, #16]

  if (HAL_RCC_ClockConfig(&RCC_ClkInitStruct, FLASH_LATENCY_1) != HAL_OK)
 80060e2:	1d3b      	adds	r3, r7, #4
 80060e4:	2101      	movs	r1, #1
 80060e6:	0018      	movs	r0, r3
 80060e8:	f7fd f910 	bl	800330c <HAL_RCC_ClockConfig>
 80060ec:	1e03      	subs	r3, r0, #0
 80060ee:	d007      	beq.n	8006100 <SystemClock_Config+0xa8>
  {
    _Error_Handler(__FILE__, __LINE__);
 80060f0:	2306      	movs	r3, #6
 80060f2:	33ff      	adds	r3, #255	; 0xff
 80060f4:	001a      	movs	r2, r3
 80060f6:	4b11      	ldr	r3, [pc, #68]	; (800613c <SystemClock_Config+0xe4>)
 80060f8:	0011      	movs	r1, r2
 80060fa:	0018      	movs	r0, r3
 80060fc:	f000 f868 	bl	80061d0 <_Error_Handler>
  }

    /**Configure the Systick interrupt time 
    */
  HAL_SYSTICK_Config(HAL_RCC_GetHCLKFreq()/1000);
 8006100:	f7fd fa9c 	bl	800363c <HAL_RCC_GetHCLKFreq>
 8006104:	0002      	movs	r2, r0
 8006106:	23fa      	movs	r3, #250	; 0xfa
 8006108:	0099      	lsls	r1, r3, #2
 800610a:	0010      	movs	r0, r2
 800610c:	f7f9 fffc 	bl	8000108 <__udivsi3>
 8006110:	0003      	movs	r3, r0
 8006112:	0018      	movs	r0, r3
 8006114:	f7fc f80e 	bl	8002134 <HAL_SYSTICK_Config>

    /**Configure the Systick 
    */
  HAL_SYSTICK_CLKSourceConfig(SYSTICK_CLKSOURCE_HCLK);
 8006118:	2004      	movs	r0, #4
 800611a:	f7fc f819 	bl	8002150 <HAL_SYSTICK_CLKSourceConfig>

  /* SysTick_IRQn interrupt configuration */
  HAL_NVIC_SetPriority(SysTick_IRQn, 0, 0);
 800611e:	2301      	movs	r3, #1
 8006120:	425b      	negs	r3, r3
 8006122:	2200      	movs	r2, #0
 8006124:	2100      	movs	r1, #0
 8006126:	0018      	movs	r0, r3
 8006128:	f7fb ffde 	bl	80020e8 <HAL_NVIC_SetPriority>
}
 800612c:	46c0      	nop			; (mov r8, r8)
 800612e:	46bd      	mov	sp, r7
 8006130:	b014      	add	sp, #80	; 0x50
 8006132:	bd80      	pop	{r7, pc}
 8006134:	40007000 	.word	0x40007000
 8006138:	ffffe7ff 	.word	0xffffe7ff
 800613c:	08006f60 	.word	0x08006f60

08006140 <MX_TSC_Init>:


/* TSC init function */
static void MX_TSC_Init(void)
{
 8006140:	b580      	push	{r7, lr}
 8006142:	af00      	add	r7, sp, #0

    /**Configure the TSC peripheral 
    */
  htsc.Instance = TSC;
 8006144:	4b1f      	ldr	r3, [pc, #124]	; (80061c4 <MX_TSC_Init+0x84>)
 8006146:	4a20      	ldr	r2, [pc, #128]	; (80061c8 <MX_TSC_Init+0x88>)
 8006148:	601a      	str	r2, [r3, #0]
  htsc.Init.CTPulseHighLength = TSC_CTPH_4CYCLES;
 800614a:	4b1e      	ldr	r3, [pc, #120]	; (80061c4 <MX_TSC_Init+0x84>)
 800614c:	22c0      	movs	r2, #192	; 0xc0
 800614e:	0592      	lsls	r2, r2, #22
 8006150:	605a      	str	r2, [r3, #4]
  htsc.Init.CTPulseLowLength = TSC_CTPL_4CYCLES;
 8006152:	4b1c      	ldr	r3, [pc, #112]	; (80061c4 <MX_TSC_Init+0x84>)
 8006154:	22c0      	movs	r2, #192	; 0xc0
 8006156:	0492      	lsls	r2, r2, #18
 8006158:	609a      	str	r2, [r3, #8]
  htsc.Init.SpreadSpectrum = DISABLE;
 800615a:	4b1a      	ldr	r3, [pc, #104]	; (80061c4 <MX_TSC_Init+0x84>)
 800615c:	2200      	movs	r2, #0
 800615e:	60da      	str	r2, [r3, #12]
  htsc.Init.SpreadSpectrumDeviation = 1;
 8006160:	4b18      	ldr	r3, [pc, #96]	; (80061c4 <MX_TSC_Init+0x84>)
 8006162:	2201      	movs	r2, #1
 8006164:	611a      	str	r2, [r3, #16]
  htsc.Init.SpreadSpectrumPrescaler = TSC_SS_PRESC_DIV1;
 8006166:	4b17      	ldr	r3, [pc, #92]	; (80061c4 <MX_TSC_Init+0x84>)
 8006168:	2200      	movs	r2, #0
 800616a:	615a      	str	r2, [r3, #20]
  htsc.Init.PulseGeneratorPrescaler = TSC_PG_PRESC_DIV4;
 800616c:	4b15      	ldr	r3, [pc, #84]	; (80061c4 <MX_TSC_Init+0x84>)
 800616e:	2280      	movs	r2, #128	; 0x80
 8006170:	0192      	lsls	r2, r2, #6
 8006172:	619a      	str	r2, [r3, #24]
  htsc.Init.MaxCountValue = TSC_MCV_16383;
 8006174:	4b13      	ldr	r3, [pc, #76]	; (80061c4 <MX_TSC_Init+0x84>)
 8006176:	22c0      	movs	r2, #192	; 0xc0
 8006178:	61da      	str	r2, [r3, #28]
  htsc.Init.IODefaultMode = TSC_IODEF_OUT_PP_LOW;
 800617a:	4b12      	ldr	r3, [pc, #72]	; (80061c4 <MX_TSC_Init+0x84>)
 800617c:	2200      	movs	r2, #0
 800617e:	621a      	str	r2, [r3, #32]
  htsc.Init.SynchroPinPolarity = TSC_SYNC_POLARITY_FALLING;
 8006180:	4b10      	ldr	r3, [pc, #64]	; (80061c4 <MX_TSC_Init+0x84>)
 8006182:	2200      	movs	r2, #0
 8006184:	625a      	str	r2, [r3, #36]	; 0x24
  htsc.Init.AcquisitionMode = TSC_ACQ_MODE_NORMAL;
 8006186:	4b0f      	ldr	r3, [pc, #60]	; (80061c4 <MX_TSC_Init+0x84>)
 8006188:	2200      	movs	r2, #0
 800618a:	629a      	str	r2, [r3, #40]	; 0x28
  htsc.Init.MaxCountInterrupt = DISABLE;
 800618c:	4b0d      	ldr	r3, [pc, #52]	; (80061c4 <MX_TSC_Init+0x84>)
 800618e:	2200      	movs	r2, #0
 8006190:	62da      	str	r2, [r3, #44]	; 0x2c
  htsc.Init.ChannelIOs = TOUCH_SENS_PA0;
 8006192:	4b0c      	ldr	r3, [pc, #48]	; (80061c4 <MX_TSC_Init+0x84>)
 8006194:	2201      	movs	r2, #1
 8006196:	631a      	str	r2, [r3, #48]	; 0x30
  htsc.Init.ShieldIOs = 0;
 8006198:	4b0a      	ldr	r3, [pc, #40]	; (80061c4 <MX_TSC_Init+0x84>)
 800619a:	2200      	movs	r2, #0
 800619c:	635a      	str	r2, [r3, #52]	; 0x34
  htsc.Init.SamplingIOs = TOUCH_SAMPLE_PA3;
 800619e:	4b09      	ldr	r3, [pc, #36]	; (80061c4 <MX_TSC_Init+0x84>)
 80061a0:	2208      	movs	r2, #8
 80061a2:	639a      	str	r2, [r3, #56]	; 0x38
  if (HAL_TSC_Init(&htsc) != HAL_OK)
 80061a4:	4b07      	ldr	r3, [pc, #28]	; (80061c4 <MX_TSC_Init+0x84>)
 80061a6:	0018      	movs	r0, r3
 80061a8:	f7fd fd63 	bl	8003c72 <HAL_TSC_Init>
 80061ac:	1e03      	subs	r3, r0, #0
 80061ae:	d006      	beq.n	80061be <MX_TSC_Init+0x7e>
  {
    _Error_Handler(__FILE__, __LINE__);
 80061b0:	2396      	movs	r3, #150	; 0x96
 80061b2:	005a      	lsls	r2, r3, #1
 80061b4:	4b05      	ldr	r3, [pc, #20]	; (80061cc <MX_TSC_Init+0x8c>)
 80061b6:	0011      	movs	r1, r2
 80061b8:	0018      	movs	r0, r3
 80061ba:	f000 f809 	bl	80061d0 <_Error_Handler>
  }

}
 80061be:	46c0      	nop			; (mov r8, r8)
 80061c0:	46bd      	mov	sp, r7
 80061c2:	bd80      	pop	{r7, pc}
 80061c4:	20000488 	.word	0x20000488
 80061c8:	40024000 	.word	0x40024000
 80061cc:	08006f60 	.word	0x08006f60

080061d0 <_Error_Handler>:
  * @param  file: The file name as string.
  * @param  line: The line in file as a number.
  * @retval None
  */
void _Error_Handler(char *file, int line)
{
 80061d0:	b580      	push	{r7, lr}
 80061d2:	b082      	sub	sp, #8
 80061d4:	af00      	add	r7, sp, #0
 80061d6:	6078      	str	r0, [r7, #4]
 80061d8:	6039      	str	r1, [r7, #0]
  /* USER CODE BEGIN Error_Handler_Debug */
  /* User can add his own implementation to report the HAL error return state */
  while(1)
 80061da:	e7fe      	b.n	80061da <_Error_Handler+0xa>

080061dc <power_init>:

/* Private variables ---------------------------------------------------------*/


void power_init(void)
{
 80061dc:	b580      	push	{r7, lr}
 80061de:	b086      	sub	sp, #24
 80061e0:	af00      	add	r7, sp, #0
	GPIO_InitTypeDef GPIO_InitStruct;

  // GPIO Ports Clock Enable -------------------------------------------------
  __HAL_RCC_GPIOA_CLK_ENABLE();
 80061e2:	4b11      	ldr	r3, [pc, #68]	; (8006228 <power_init+0x4c>)
 80061e4:	4a10      	ldr	r2, [pc, #64]	; (8006228 <power_init+0x4c>)
 80061e6:	6ad2      	ldr	r2, [r2, #44]	; 0x2c
 80061e8:	2101      	movs	r1, #1
 80061ea:	430a      	orrs	r2, r1
 80061ec:	62da      	str	r2, [r3, #44]	; 0x2c
 80061ee:	4b0e      	ldr	r3, [pc, #56]	; (8006228 <power_init+0x4c>)
 80061f0:	6adb      	ldr	r3, [r3, #44]	; 0x2c
 80061f2:	2201      	movs	r2, #1
 80061f4:	4013      	ands	r3, r2
 80061f6:	603b      	str	r3, [r7, #0]
 80061f8:	683b      	ldr	r3, [r7, #0]


  // Init Pin to control LED/Thermalprinter Power Supply ------------------------------------
  GPIO_InitStruct.Pin = TP_POWER_PA12 | MOT_PWR_PA4;
 80061fa:	1d3b      	adds	r3, r7, #4
 80061fc:	4a0b      	ldr	r2, [pc, #44]	; (800622c <power_init+0x50>)
 80061fe:	601a      	str	r2, [r3, #0]
  GPIO_InitStruct.Mode = GPIO_MODE_OUTPUT_PP;
 8006200:	1d3b      	adds	r3, r7, #4
 8006202:	2201      	movs	r2, #1
 8006204:	605a      	str	r2, [r3, #4]
  GPIO_InitStruct.Pull = GPIO_NOPULL;
 8006206:	1d3b      	adds	r3, r7, #4
 8006208:	2200      	movs	r2, #0
 800620a:	609a      	str	r2, [r3, #8]
  GPIO_InitStruct.Speed = GPIO_SPEED_FREQ_LOW;
 800620c:	1d3b      	adds	r3, r7, #4
 800620e:	2200      	movs	r2, #0
 8006210:	60da      	str	r2, [r3, #12]
  HAL_GPIO_Init(GPIOA, &GPIO_InitStruct);
 8006212:	1d3a      	adds	r2, r7, #4
 8006214:	23a0      	movs	r3, #160	; 0xa0
 8006216:	05db      	lsls	r3, r3, #23
 8006218:	0011      	movs	r1, r2
 800621a:	0018      	movs	r0, r3
 800621c:	f7fc fb40 	bl	80028a0 <HAL_GPIO_Init>
}
 8006220:	46c0      	nop			; (mov r8, r8)
 8006222:	46bd      	mov	sp, r7
 8006224:	b006      	add	sp, #24
 8006226:	bd80      	pop	{r7, pc}
 8006228:	40021000 	.word	0x40021000
 800622c:	00001010 	.word	0x00001010

08006230 <tp_power_on>:

void tp_power_on(void)
{
 8006230:	b580      	push	{r7, lr}
 8006232:	af00      	add	r7, sp, #0
	HAL_GPIO_WritePin(GPIOA, TP_POWER_PA12, GPIO_PIN_SET);
 8006234:	2380      	movs	r3, #128	; 0x80
 8006236:	0159      	lsls	r1, r3, #5
 8006238:	23a0      	movs	r3, #160	; 0xa0
 800623a:	05db      	lsls	r3, r3, #23
 800623c:	2201      	movs	r2, #1
 800623e:	0018      	movs	r0, r3
 8006240:	f7fc fca4 	bl	8002b8c <HAL_GPIO_WritePin>
}
 8006244:	46c0      	nop			; (mov r8, r8)
 8006246:	46bd      	mov	sp, r7
 8006248:	bd80      	pop	{r7, pc}

0800624a <mot_power_on>:
{
	HAL_GPIO_WritePin(GPIOA, TP_POWER_PA12, GPIO_PIN_RESET);
}

void mot_power_on(void)
{
 800624a:	b580      	push	{r7, lr}
 800624c:	af00      	add	r7, sp, #0
	HAL_GPIO_WritePin(GPIOA, MOT_PWR_PA4, GPIO_PIN_SET);
 800624e:	23a0      	movs	r3, #160	; 0xa0
 8006250:	05db      	lsls	r3, r3, #23
 8006252:	2201      	movs	r2, #1
 8006254:	2110      	movs	r1, #16
 8006256:	0018      	movs	r0, r3
 8006258:	f7fc fc98 	bl	8002b8c <HAL_GPIO_WritePin>
}
 800625c:	46c0      	nop			; (mov r8, r8)
 800625e:	46bd      	mov	sp, r7
 8006260:	bd80      	pop	{r7, pc}

08006262 <mot_power_off>:

void mot_power_off(void)
{
 8006262:	b580      	push	{r7, lr}
 8006264:	af00      	add	r7, sp, #0
	HAL_GPIO_WritePin(GPIOA, MOT_PWR_PA4, GPIO_PIN_RESET);
 8006266:	23a0      	movs	r3, #160	; 0xa0
 8006268:	05db      	lsls	r3, r3, #23
 800626a:	2200      	movs	r2, #0
 800626c:	2110      	movs	r1, #16
 800626e:	0018      	movs	r0, r3
 8006270:	f7fc fc8c 	bl	8002b8c <HAL_GPIO_WritePin>
}
 8006274:	46c0      	nop			; (mov r8, r8)
 8006276:	46bd      	mov	sp, r7
 8006278:	bd80      	pop	{r7, pc}
	...

0800627c <printer_init>:
uint16_t ADC1ConvertedValue;
char matrix_array[40][24]= {0};


void printer_init()
{
 800627c:	b580      	push	{r7, lr}
 800627e:	b088      	sub	sp, #32
 8006280:	af00      	add	r7, sp, #0
	GPIO_InitTypeDef GPIO_InitStruct;

  // GPIO Ports Clock Enable -------------------------------------------------
  __HAL_RCC_GPIOA_CLK_ENABLE();
 8006282:	4b65      	ldr	r3, [pc, #404]	; (8006418 <printer_init+0x19c>)
 8006284:	4a64      	ldr	r2, [pc, #400]	; (8006418 <printer_init+0x19c>)
 8006286:	6ad2      	ldr	r2, [r2, #44]	; 0x2c
 8006288:	2101      	movs	r1, #1
 800628a:	430a      	orrs	r2, r1
 800628c:	62da      	str	r2, [r3, #44]	; 0x2c
 800628e:	4b62      	ldr	r3, [pc, #392]	; (8006418 <printer_init+0x19c>)
 8006290:	6adb      	ldr	r3, [r3, #44]	; 0x2c
 8006292:	2201      	movs	r2, #1
 8006294:	4013      	ands	r3, r2
 8006296:	60bb      	str	r3, [r7, #8]
 8006298:	68bb      	ldr	r3, [r7, #8]
  __HAL_RCC_GPIOB_CLK_ENABLE();
 800629a:	4b5f      	ldr	r3, [pc, #380]	; (8006418 <printer_init+0x19c>)
 800629c:	4a5e      	ldr	r2, [pc, #376]	; (8006418 <printer_init+0x19c>)
 800629e:	6ad2      	ldr	r2, [r2, #44]	; 0x2c
 80062a0:	2102      	movs	r1, #2
 80062a2:	430a      	orrs	r2, r1
 80062a4:	62da      	str	r2, [r3, #44]	; 0x2c
 80062a6:	4b5c      	ldr	r3, [pc, #368]	; (8006418 <printer_init+0x19c>)
 80062a8:	6adb      	ldr	r3, [r3, #44]	; 0x2c
 80062aa:	2202      	movs	r2, #2
 80062ac:	4013      	ands	r3, r2
 80062ae:	607b      	str	r3, [r7, #4]
 80062b0:	687b      	ldr	r3, [r7, #4]
  __HAL_RCC_ADC1_CLK_ENABLE();
 80062b2:	4b59      	ldr	r3, [pc, #356]	; (8006418 <printer_init+0x19c>)
 80062b4:	4a58      	ldr	r2, [pc, #352]	; (8006418 <printer_init+0x19c>)
 80062b6:	6b52      	ldr	r2, [r2, #52]	; 0x34
 80062b8:	2180      	movs	r1, #128	; 0x80
 80062ba:	0089      	lsls	r1, r1, #2
 80062bc:	430a      	orrs	r2, r1
 80062be:	635a      	str	r2, [r3, #52]	; 0x34


  // Init Pins  ------------------------------------
  GPIO_InitStruct.Pin = MOT_AIN1_PA5 | MOT_AIN2_PA6 | MOT_BIN2_PA7 | CLK_PA10 | DATA_PA11;
 80062c0:	230c      	movs	r3, #12
 80062c2:	18fb      	adds	r3, r7, r3
 80062c4:	22ce      	movs	r2, #206	; 0xce
 80062c6:	0112      	lsls	r2, r2, #4
 80062c8:	601a      	str	r2, [r3, #0]
  GPIO_InitStruct.Mode = GPIO_MODE_OUTPUT_PP;
 80062ca:	230c      	movs	r3, #12
 80062cc:	18fb      	adds	r3, r7, r3
 80062ce:	2201      	movs	r2, #1
 80062d0:	605a      	str	r2, [r3, #4]
  GPIO_InitStruct.Pull = GPIO_NOPULL;
 80062d2:	230c      	movs	r3, #12
 80062d4:	18fb      	adds	r3, r7, r3
 80062d6:	2200      	movs	r2, #0
 80062d8:	609a      	str	r2, [r3, #8]
  GPIO_InitStruct.Speed = GPIO_SPEED_FREQ_VERY_HIGH;
 80062da:	230c      	movs	r3, #12
 80062dc:	18fb      	adds	r3, r7, r3
 80062de:	2203      	movs	r2, #3
 80062e0:	60da      	str	r2, [r3, #12]
  HAL_GPIO_Init(GPIOA, &GPIO_InitStruct);
 80062e2:	230c      	movs	r3, #12
 80062e4:	18fa      	adds	r2, r7, r3
 80062e6:	23a0      	movs	r3, #160	; 0xa0
 80062e8:	05db      	lsls	r3, r3, #23
 80062ea:	0011      	movs	r1, r2
 80062ec:	0018      	movs	r0, r3
 80062ee:	f7fc fad7 	bl	80028a0 <HAL_GPIO_Init>

  GPIO_InitStruct.Pin = STROBE2_PA8 |LATCH_PA9;
 80062f2:	230c      	movs	r3, #12
 80062f4:	18fb      	adds	r3, r7, r3
 80062f6:	22c0      	movs	r2, #192	; 0xc0
 80062f8:	0092      	lsls	r2, r2, #2
 80062fa:	601a      	str	r2, [r3, #0]
  GPIO_InitStruct.Mode = GPIO_MODE_OUTPUT_OD;
 80062fc:	230c      	movs	r3, #12
 80062fe:	18fb      	adds	r3, r7, r3
 8006300:	2211      	movs	r2, #17
 8006302:	605a      	str	r2, [r3, #4]
  GPIO_InitStruct.Pull = GPIO_PULLUP;
 8006304:	230c      	movs	r3, #12
 8006306:	18fb      	adds	r3, r7, r3
 8006308:	2201      	movs	r2, #1
 800630a:	609a      	str	r2, [r3, #8]
  GPIO_InitStruct.Speed = GPIO_SPEED_FREQ_VERY_HIGH;
 800630c:	230c      	movs	r3, #12
 800630e:	18fb      	adds	r3, r7, r3
 8006310:	2203      	movs	r2, #3
 8006312:	60da      	str	r2, [r3, #12]
  HAL_GPIO_Init(GPIOA, &GPIO_InitStruct);
 8006314:	230c      	movs	r3, #12
 8006316:	18fa      	adds	r2, r7, r3
 8006318:	23a0      	movs	r3, #160	; 0xa0
 800631a:	05db      	lsls	r3, r3, #23
 800631c:	0011      	movs	r1, r2
 800631e:	0018      	movs	r0, r3
 8006320:	f7fc fabe 	bl	80028a0 <HAL_GPIO_Init>
  HAL_GPIO_WritePin(GPIOA, STROBE2_PA8, GPIO_PIN_SET);
 8006324:	2380      	movs	r3, #128	; 0x80
 8006326:	0059      	lsls	r1, r3, #1
 8006328:	23a0      	movs	r3, #160	; 0xa0
 800632a:	05db      	lsls	r3, r3, #23
 800632c:	2201      	movs	r2, #1
 800632e:	0018      	movs	r0, r3
 8006330:	f7fc fc2c 	bl	8002b8c <HAL_GPIO_WritePin>
  HAL_GPIO_WritePin(GPIOA, LATCH_PA9, GPIO_PIN_SET);
 8006334:	2380      	movs	r3, #128	; 0x80
 8006336:	0099      	lsls	r1, r3, #2
 8006338:	23a0      	movs	r3, #160	; 0xa0
 800633a:	05db      	lsls	r3, r3, #23
 800633c:	2201      	movs	r2, #1
 800633e:	0018      	movs	r0, r3
 8006340:	f7fc fc24 	bl	8002b8c <HAL_GPIO_WritePin>

  GPIO_InitStruct.Pin = MOT_BIN1_PB0;
 8006344:	230c      	movs	r3, #12
 8006346:	18fb      	adds	r3, r7, r3
 8006348:	2201      	movs	r2, #1
 800634a:	601a      	str	r2, [r3, #0]
  GPIO_InitStruct.Mode = GPIO_MODE_OUTPUT_PP;
 800634c:	230c      	movs	r3, #12
 800634e:	18fb      	adds	r3, r7, r3
 8006350:	2201      	movs	r2, #1
 8006352:	605a      	str	r2, [r3, #4]
  GPIO_InitStruct.Pull = GPIO_NOPULL;
 8006354:	230c      	movs	r3, #12
 8006356:	18fb      	adds	r3, r7, r3
 8006358:	2200      	movs	r2, #0
 800635a:	609a      	str	r2, [r3, #8]
  GPIO_InitStruct.Speed = GPIO_SPEED_FREQ_VERY_HIGH;
 800635c:	230c      	movs	r3, #12
 800635e:	18fb      	adds	r3, r7, r3
 8006360:	2203      	movs	r2, #3
 8006362:	60da      	str	r2, [r3, #12]
  HAL_GPIO_Init(GPIOB, &GPIO_InitStruct);
 8006364:	230c      	movs	r3, #12
 8006366:	18fb      	adds	r3, r7, r3
 8006368:	4a2c      	ldr	r2, [pc, #176]	; (800641c <printer_init+0x1a0>)
 800636a:	0019      	movs	r1, r3
 800636c:	0010      	movs	r0, r2
 800636e:	f7fc fa97 	bl	80028a0 <HAL_GPIO_Init>

  GPIO_InitStruct.Pin = STROBE1_PB1;
 8006372:	230c      	movs	r3, #12
 8006374:	18fb      	adds	r3, r7, r3
 8006376:	2202      	movs	r2, #2
 8006378:	601a      	str	r2, [r3, #0]
  GPIO_InitStruct.Mode = GPIO_MODE_OUTPUT_OD;
 800637a:	230c      	movs	r3, #12
 800637c:	18fb      	adds	r3, r7, r3
 800637e:	2211      	movs	r2, #17
 8006380:	605a      	str	r2, [r3, #4]
  GPIO_InitStruct.Pull = GPIO_PULLUP;
 8006382:	230c      	movs	r3, #12
 8006384:	18fb      	adds	r3, r7, r3
 8006386:	2201      	movs	r2, #1
 8006388:	609a      	str	r2, [r3, #8]
  GPIO_InitStruct.Speed = GPIO_SPEED_FREQ_VERY_HIGH;
 800638a:	230c      	movs	r3, #12
 800638c:	18fb      	adds	r3, r7, r3
 800638e:	2203      	movs	r2, #3
 8006390:	60da      	str	r2, [r3, #12]
  HAL_GPIO_Init(GPIOB, &GPIO_InitStruct);
 8006392:	230c      	movs	r3, #12
 8006394:	18fb      	adds	r3, r7, r3
 8006396:	4a21      	ldr	r2, [pc, #132]	; (800641c <printer_init+0x1a0>)
 8006398:	0019      	movs	r1, r3
 800639a:	0010      	movs	r0, r2
 800639c:	f7fc fa80 	bl	80028a0 <HAL_GPIO_Init>
  HAL_GPIO_WritePin(GPIOB, STROBE1_PB1, GPIO_PIN_SET);
 80063a0:	4b1e      	ldr	r3, [pc, #120]	; (800641c <printer_init+0x1a0>)
 80063a2:	2201      	movs	r2, #1
 80063a4:	2102      	movs	r1, #2
 80063a6:	0018      	movs	r0, r3
 80063a8:	f7fc fbf0 	bl	8002b8c <HAL_GPIO_WritePin>

  GPIO_InitStruct.Pin =  PAPER_SENS_PB6;
 80063ac:	230c      	movs	r3, #12
 80063ae:	18fb      	adds	r3, r7, r3
 80063b0:	2240      	movs	r2, #64	; 0x40
 80063b2:	601a      	str	r2, [r3, #0]
  GPIO_InitStruct.Mode = GPIO_MODE_INPUT;
 80063b4:	230c      	movs	r3, #12
 80063b6:	18fb      	adds	r3, r7, r3
 80063b8:	2200      	movs	r2, #0
 80063ba:	605a      	str	r2, [r3, #4]
  GPIO_InitStruct.Pull = GPIO_PULLDOWN;
 80063bc:	230c      	movs	r3, #12
 80063be:	18fb      	adds	r3, r7, r3
 80063c0:	2202      	movs	r2, #2
 80063c2:	609a      	str	r2, [r3, #8]
  GPIO_InitStruct.Speed = GPIO_SPEED_FREQ_LOW;
 80063c4:	230c      	movs	r3, #12
 80063c6:	18fb      	adds	r3, r7, r3
 80063c8:	2200      	movs	r2, #0
 80063ca:	60da      	str	r2, [r3, #12]
  HAL_GPIO_Init(GPIOB, &GPIO_InitStruct);
 80063cc:	230c      	movs	r3, #12
 80063ce:	18fb      	adds	r3, r7, r3
 80063d0:	4a12      	ldr	r2, [pc, #72]	; (800641c <printer_init+0x1a0>)
 80063d2:	0019      	movs	r1, r3
 80063d4:	0010      	movs	r0, r2
 80063d6:	f7fc fa63 	bl	80028a0 <HAL_GPIO_Init>

  // ADC
  GPIO_InitStruct.Pin = BLACK_MARK_SENS_PA2;
 80063da:	230c      	movs	r3, #12
 80063dc:	18fb      	adds	r3, r7, r3
 80063de:	2204      	movs	r2, #4
 80063e0:	601a      	str	r2, [r3, #0]
  GPIO_InitStruct.Mode = GPIO_MODE_ANALOG;
 80063e2:	230c      	movs	r3, #12
 80063e4:	18fb      	adds	r3, r7, r3
 80063e6:	2203      	movs	r2, #3
 80063e8:	605a      	str	r2, [r3, #4]
  GPIO_InitStruct.Pull = GPIO_NOPULL;
 80063ea:	230c      	movs	r3, #12
 80063ec:	18fb      	adds	r3, r7, r3
 80063ee:	2200      	movs	r2, #0
 80063f0:	609a      	str	r2, [r3, #8]
  HAL_GPIO_Init(GPIOA, &GPIO_InitStruct);
 80063f2:	230c      	movs	r3, #12
 80063f4:	18fa      	adds	r2, r7, r3
 80063f6:	23a0      	movs	r3, #160	; 0xa0
 80063f8:	05db      	lsls	r3, r3, #23
 80063fa:	0011      	movs	r1, r2
 80063fc:	0018      	movs	r0, r3
 80063fe:	f7fc fa4f 	bl	80028a0 <HAL_GPIO_Init>

  DMA_Init();
 8006402:	f000 fb49 	bl	8006a98 <DMA_Init>
  ADC_Init();
 8006406:	f000 fadf 	bl	80069c8 <ADC_Init>
  DMA_ADC_Init();
 800640a:	f000 fb63 	bl	8006ad4 <DMA_ADC_Init>
}
 800640e:	46c0      	nop			; (mov r8, r8)
 8006410:	46bd      	mov	sp, r7
 8006412:	b008      	add	sp, #32
 8006414:	bd80      	pop	{r7, pc}
 8006416:	46c0      	nop			; (mov r8, r8)
 8006418:	40021000 	.word	0x40021000
 800641c:	50000400 	.word	0x50000400

08006420 <printer_print_message>:


void printer_print_message(char* pcMessage)
{
 8006420:	b580      	push	{r7, lr}
 8006422:	b088      	sub	sp, #32
 8006424:	af00      	add	r7, sp, #0
 8006426:	6078      	str	r0, [r7, #4]
	int rows;
	int columns;
	char   matrix_value;
	HAL_GPIO_WritePin(GPIOA, CLK_PA10, GPIO_PIN_RESET);
 8006428:	2380      	movs	r3, #128	; 0x80
 800642a:	00d9      	lsls	r1, r3, #3
 800642c:	23a0      	movs	r3, #160	; 0xa0
 800642e:	05db      	lsls	r3, r3, #23
 8006430:	2200      	movs	r2, #0
 8006432:	0018      	movs	r0, r3
 8006434:	f7fc fbaa 	bl	8002b8c <HAL_GPIO_WritePin>
	HAL_GPIO_WritePin(GPIOA, DATA_PA11, GPIO_PIN_RESET);
 8006438:	2380      	movs	r3, #128	; 0x80
 800643a:	0119      	lsls	r1, r3, #4
 800643c:	23a0      	movs	r3, #160	; 0xa0
 800643e:	05db      	lsls	r3, r3, #23
 8006440:	2200      	movs	r2, #0
 8006442:	0018      	movs	r0, r3
 8006444:	f7fc fba2 	bl	8002b8c <HAL_GPIO_WritePin>
	HAL_GPIO_WritePin(GPIOB, STROBE1_PB1, GPIO_PIN_SET);
 8006448:	4b6d      	ldr	r3, [pc, #436]	; (8006600 <printer_print_message+0x1e0>)
 800644a:	2201      	movs	r2, #1
 800644c:	2102      	movs	r1, #2
 800644e:	0018      	movs	r0, r3
 8006450:	f7fc fb9c 	bl	8002b8c <HAL_GPIO_WritePin>
	HAL_GPIO_WritePin(GPIOA, STROBE2_PA8, GPIO_PIN_SET);
 8006454:	2380      	movs	r3, #128	; 0x80
 8006456:	0059      	lsls	r1, r3, #1
 8006458:	23a0      	movs	r3, #160	; 0xa0
 800645a:	05db      	lsls	r3, r3, #23
 800645c:	2201      	movs	r2, #1
 800645e:	0018      	movs	r0, r3
 8006460:	f7fc fb94 	bl	8002b8c <HAL_GPIO_WritePin>
	HAL_GPIO_WritePin(GPIOA, LATCH_PA9, GPIO_PIN_SET);
 8006464:	2380      	movs	r3, #128	; 0x80
 8006466:	0099      	lsls	r1, r3, #2
 8006468:	23a0      	movs	r3, #160	; 0xa0
 800646a:	05db      	lsls	r3, r3, #23
 800646c:	2201      	movs	r2, #1
 800646e:	0018      	movs	r0, r3
 8006470:	f7fc fb8c 	bl	8002b8c <HAL_GPIO_WritePin>

	printer_prepare_message_for_print(pcMessage);
 8006474:	687b      	ldr	r3, [r7, #4]
 8006476:	0018      	movs	r0, r3
 8006478:	f000 f9a4 	bl	80067c4 <printer_prepare_message_for_print>

	// rows = 40
	for(rows=0; rows<40; rows++)
 800647c:	2300      	movs	r3, #0
 800647e:	61fb      	str	r3, [r7, #28]
 8006480:	e097      	b.n	80065b2 <printer_print_message+0x192>
	{
		// columns = 192/8 --> Load shift register
		for(columns=0; columns<24; columns++)
 8006482:	2300      	movs	r3, #0
 8006484:	61bb      	str	r3, [r7, #24]
 8006486:	e04c      	b.n	8006522 <printer_print_message+0x102>
		{
			matrix_value = matrix_array[rows][columns];
 8006488:	230b      	movs	r3, #11
 800648a:	18f9      	adds	r1, r7, r3
 800648c:	485d      	ldr	r0, [pc, #372]	; (8006604 <printer_print_message+0x1e4>)
 800648e:	69fa      	ldr	r2, [r7, #28]
 8006490:	0013      	movs	r3, r2
 8006492:	005b      	lsls	r3, r3, #1
 8006494:	189b      	adds	r3, r3, r2
 8006496:	00db      	lsls	r3, r3, #3
 8006498:	18c2      	adds	r2, r0, r3
 800649a:	69bb      	ldr	r3, [r7, #24]
 800649c:	18d3      	adds	r3, r2, r3
 800649e:	781b      	ldrb	r3, [r3, #0]
 80064a0:	700b      	strb	r3, [r1, #0]
			int shift_bit = 0x80;
 80064a2:	2380      	movs	r3, #128	; 0x80
 80064a4:	617b      	str	r3, [r7, #20]
			for(int bit_cnt = 0; bit_cnt < 8; bit_cnt++)
 80064a6:	2300      	movs	r3, #0
 80064a8:	613b      	str	r3, [r7, #16]
 80064aa:	e034      	b.n	8006516 <printer_print_message+0xf6>
			{
				if((matrix_value & shift_bit) != 0x00)
 80064ac:	230b      	movs	r3, #11
 80064ae:	18fb      	adds	r3, r7, r3
 80064b0:	781b      	ldrb	r3, [r3, #0]
 80064b2:	697a      	ldr	r2, [r7, #20]
 80064b4:	4013      	ands	r3, r2
 80064b6:	d007      	beq.n	80064c8 <printer_print_message+0xa8>
				{
					HAL_GPIO_WritePin(GPIOA, DATA_PA11, GPIO_PIN_SET);
 80064b8:	2380      	movs	r3, #128	; 0x80
 80064ba:	0119      	lsls	r1, r3, #4
 80064bc:	23a0      	movs	r3, #160	; 0xa0
 80064be:	05db      	lsls	r3, r3, #23
 80064c0:	2201      	movs	r2, #1
 80064c2:	0018      	movs	r0, r3
 80064c4:	f7fc fb62 	bl	8002b8c <HAL_GPIO_WritePin>
				}
				HAL_GPIO_WritePin(GPIOA, CLK_PA10, GPIO_PIN_SET);
 80064c8:	2380      	movs	r3, #128	; 0x80
 80064ca:	00d9      	lsls	r1, r3, #3
 80064cc:	23a0      	movs	r3, #160	; 0xa0
 80064ce:	05db      	lsls	r3, r3, #23
 80064d0:	2201      	movs	r2, #1
 80064d2:	0018      	movs	r0, r3
 80064d4:	f7fc fb5a 	bl	8002b8c <HAL_GPIO_WritePin>
				for(int i=0; i<=3; i++)
 80064d8:	2300      	movs	r3, #0
 80064da:	60fb      	str	r3, [r7, #12]
 80064dc:	e00a      	b.n	80064f4 <printer_print_message+0xd4>
				HAL_GPIO_WritePin(GPIOA, CLK_PA10, GPIO_PIN_RESET);
 80064de:	2380      	movs	r3, #128	; 0x80
 80064e0:	00d9      	lsls	r1, r3, #3
 80064e2:	23a0      	movs	r3, #160	; 0xa0
 80064e4:	05db      	lsls	r3, r3, #23
 80064e6:	2200      	movs	r2, #0
 80064e8:	0018      	movs	r0, r3
 80064ea:	f7fc fb4f 	bl	8002b8c <HAL_GPIO_WritePin>
				for(int i=0; i<=3; i++)
 80064ee:	68fb      	ldr	r3, [r7, #12]
 80064f0:	3301      	adds	r3, #1
 80064f2:	60fb      	str	r3, [r7, #12]
 80064f4:	68fb      	ldr	r3, [r7, #12]
 80064f6:	2b03      	cmp	r3, #3
 80064f8:	ddf1      	ble.n	80064de <printer_print_message+0xbe>
				HAL_GPIO_WritePin(GPIOA, DATA_PA11, GPIO_PIN_RESET);
 80064fa:	2380      	movs	r3, #128	; 0x80
 80064fc:	0119      	lsls	r1, r3, #4
 80064fe:	23a0      	movs	r3, #160	; 0xa0
 8006500:	05db      	lsls	r3, r3, #23
 8006502:	2200      	movs	r2, #0
 8006504:	0018      	movs	r0, r3
 8006506:	f7fc fb41 	bl	8002b8c <HAL_GPIO_WritePin>
				shift_bit = shift_bit >> 1;
 800650a:	697b      	ldr	r3, [r7, #20]
 800650c:	105b      	asrs	r3, r3, #1
 800650e:	617b      	str	r3, [r7, #20]
			for(int bit_cnt = 0; bit_cnt < 8; bit_cnt++)
 8006510:	693b      	ldr	r3, [r7, #16]
 8006512:	3301      	adds	r3, #1
 8006514:	613b      	str	r3, [r7, #16]
 8006516:	693b      	ldr	r3, [r7, #16]
 8006518:	2b07      	cmp	r3, #7
 800651a:	ddc7      	ble.n	80064ac <printer_print_message+0x8c>
		for(columns=0; columns<24; columns++)
 800651c:	69bb      	ldr	r3, [r7, #24]
 800651e:	3301      	adds	r3, #1
 8006520:	61bb      	str	r3, [r7, #24]
 8006522:	69bb      	ldr	r3, [r7, #24]
 8006524:	2b17      	cmp	r3, #23
 8006526:	ddaf      	ble.n	8006488 <printer_print_message+0x68>
			}

		}
		HAL_GPIO_WritePin(GPIOA, LATCH_PA9, GPIO_PIN_RESET);
 8006528:	2380      	movs	r3, #128	; 0x80
 800652a:	0099      	lsls	r1, r3, #2
 800652c:	23a0      	movs	r3, #160	; 0xa0
 800652e:	05db      	lsls	r3, r3, #23
 8006530:	2200      	movs	r2, #0
 8006532:	0018      	movs	r0, r3
 8006534:	f7fc fb2a 	bl	8002b8c <HAL_GPIO_WritePin>
		HAL_GPIO_WritePin(GPIOB, STROBE1_PB1, GPIO_PIN_RESET);
 8006538:	4b31      	ldr	r3, [pc, #196]	; (8006600 <printer_print_message+0x1e0>)
 800653a:	2200      	movs	r2, #0
 800653c:	2102      	movs	r1, #2
 800653e:	0018      	movs	r0, r3
 8006540:	f7fc fb24 	bl	8002b8c <HAL_GPIO_WritePin>
		HAL_GPIO_WritePin(GPIOA, STROBE2_PA8, GPIO_PIN_RESET); // Activate thermal head for 50 ms
 8006544:	2380      	movs	r3, #128	; 0x80
 8006546:	0059      	lsls	r1, r3, #1
 8006548:	23a0      	movs	r3, #160	; 0xa0
 800654a:	05db      	lsls	r3, r3, #23
 800654c:	2200      	movs	r2, #0
 800654e:	0018      	movs	r0, r3
 8006550:	f7fc fb1c 	bl	8002b8c <HAL_GPIO_WritePin>
		HAL_Delay(50u);
 8006554:	2032      	movs	r0, #50	; 0x32
 8006556:	f7fb f85b 	bl	8001610 <HAL_Delay>
		HAL_GPIO_WritePin(GPIOB, STROBE1_PB1, GPIO_PIN_SET);
 800655a:	4b29      	ldr	r3, [pc, #164]	; (8006600 <printer_print_message+0x1e0>)
 800655c:	2201      	movs	r2, #1
 800655e:	2102      	movs	r1, #2
 8006560:	0018      	movs	r0, r3
 8006562:	f7fc fb13 	bl	8002b8c <HAL_GPIO_WritePin>
		HAL_GPIO_WritePin(GPIOA, STROBE2_PA8, GPIO_PIN_SET);
 8006566:	2380      	movs	r3, #128	; 0x80
 8006568:	0059      	lsls	r1, r3, #1
 800656a:	23a0      	movs	r3, #160	; 0xa0
 800656c:	05db      	lsls	r3, r3, #23
 800656e:	2201      	movs	r2, #1
 8006570:	0018      	movs	r0, r3
 8006572:	f7fc fb0b 	bl	8002b8c <HAL_GPIO_WritePin>
		HAL_GPIO_WritePin(GPIOA, LATCH_PA9, GPIO_PIN_SET);
 8006576:	2380      	movs	r3, #128	; 0x80
 8006578:	0099      	lsls	r1, r3, #2
 800657a:	23a0      	movs	r3, #160	; 0xa0
 800657c:	05db      	lsls	r3, r3, #23
 800657e:	2201      	movs	r2, #1
 8006580:	0018      	movs	r0, r3
 8006582:	f7fc fb03 	bl	8002b8c <HAL_GPIO_WritePin>
		printer_do_step(0u);
 8006586:	2000      	movs	r0, #0
 8006588:	f000 f83e 	bl	8006608 <printer_do_step>
		HAL_Delay(10u);
 800658c:	200a      	movs	r0, #10
 800658e:	f7fb f83f 	bl	8001610 <HAL_Delay>
		printer_motor_off();
 8006592:	f000 f8f5 	bl	8006780 <printer_motor_off>
		HAL_Delay(50u);
 8006596:	2032      	movs	r0, #50	; 0x32
 8006598:	f7fb f83a 	bl	8001610 <HAL_Delay>
		printer_do_step(0u);
 800659c:	2000      	movs	r0, #0
 800659e:	f000 f833 	bl	8006608 <printer_do_step>
		HAL_Delay(10u);
 80065a2:	200a      	movs	r0, #10
 80065a4:	f7fb f834 	bl	8001610 <HAL_Delay>
		printer_motor_off();
 80065a8:	f000 f8ea 	bl	8006780 <printer_motor_off>
	for(rows=0; rows<40; rows++)
 80065ac:	69fb      	ldr	r3, [r7, #28]
 80065ae:	3301      	adds	r3, #1
 80065b0:	61fb      	str	r3, [r7, #28]
 80065b2:	69fb      	ldr	r3, [r7, #28]
 80065b4:	2b27      	cmp	r3, #39	; 0x27
 80065b6:	dc00      	bgt.n	80065ba <printer_print_message+0x19a>
 80065b8:	e763      	b.n	8006482 <printer_print_message+0x62>

	}
	printer_drive_to_next_label();
 80065ba:	f000 f997 	bl	80068ec <printer_drive_to_next_label>
	HAL_Delay(20u);
 80065be:	2014      	movs	r0, #20
 80065c0:	f7fb f826 	bl	8001610 <HAL_Delay>
	printer_motor_off();
 80065c4:	f000 f8dc 	bl	8006780 <printer_motor_off>
	HAL_GPIO_WritePin(GPIOA, STROBE1_PB1, GPIO_PIN_SET);
 80065c8:	23a0      	movs	r3, #160	; 0xa0
 80065ca:	05db      	lsls	r3, r3, #23
 80065cc:	2201      	movs	r2, #1
 80065ce:	2102      	movs	r1, #2
 80065d0:	0018      	movs	r0, r3
 80065d2:	f7fc fadb 	bl	8002b8c <HAL_GPIO_WritePin>
	HAL_GPIO_WritePin(GPIOA, STROBE2_PA8, GPIO_PIN_SET);
 80065d6:	2380      	movs	r3, #128	; 0x80
 80065d8:	0059      	lsls	r1, r3, #1
 80065da:	23a0      	movs	r3, #160	; 0xa0
 80065dc:	05db      	lsls	r3, r3, #23
 80065de:	2201      	movs	r2, #1
 80065e0:	0018      	movs	r0, r3
 80065e2:	f7fc fad3 	bl	8002b8c <HAL_GPIO_WritePin>
	HAL_GPIO_WritePin(GPIOA, LATCH_PA9, GPIO_PIN_SET);
 80065e6:	2380      	movs	r3, #128	; 0x80
 80065e8:	0099      	lsls	r1, r3, #2
 80065ea:	23a0      	movs	r3, #160	; 0xa0
 80065ec:	05db      	lsls	r3, r3, #23
 80065ee:	2201      	movs	r2, #1
 80065f0:	0018      	movs	r0, r3
 80065f2:	f7fc facb 	bl	8002b8c <HAL_GPIO_WritePin>

}
 80065f6:	46c0      	nop			; (mov r8, r8)
 80065f8:	46bd      	mov	sp, r7
 80065fa:	b008      	add	sp, #32
 80065fc:	bd80      	pop	{r7, pc}
 80065fe:	46c0      	nop			; (mov r8, r8)
 8006600:	50000400 	.word	0x50000400
 8006604:	2000009c 	.word	0x2000009c

08006608 <printer_do_step>:


void printer_do_step(char cDirection)
{
 8006608:	b580      	push	{r7, lr}
 800660a:	b082      	sub	sp, #8
 800660c:	af00      	add	r7, sp, #0
 800660e:	0002      	movs	r2, r0
 8006610:	1dfb      	adds	r3, r7, #7
 8006612:	701a      	strb	r2, [r3, #0]

	static char cstep = 0;

	switch(cstep)
 8006614:	4b58      	ldr	r3, [pc, #352]	; (8006778 <printer_do_step+0x170>)
 8006616:	781b      	ldrb	r3, [r3, #0]
 8006618:	2b01      	cmp	r3, #1
 800661a:	d030      	beq.n	800667e <printer_do_step+0x76>
 800661c:	dc02      	bgt.n	8006624 <printer_do_step+0x1c>
 800661e:	2b00      	cmp	r3, #0
 8006620:	d006      	beq.n	8006630 <printer_do_step+0x28>
 8006622:	e0a1      	b.n	8006768 <printer_do_step+0x160>
 8006624:	2b02      	cmp	r3, #2
 8006626:	d051      	beq.n	80066cc <printer_do_step+0xc4>
 8006628:	2b03      	cmp	r3, #3
 800662a:	d100      	bne.n	800662e <printer_do_step+0x26>
 800662c:	e075      	b.n	800671a <printer_do_step+0x112>
 800662e:	e09b      	b.n	8006768 <printer_do_step+0x160>
	{
		// Step 1
		case 0:
			HAL_GPIO_WritePin(GPIOA, MOT_AIN1_PA5, GPIO_PIN_RESET);
 8006630:	23a0      	movs	r3, #160	; 0xa0
 8006632:	05db      	lsls	r3, r3, #23
 8006634:	2200      	movs	r2, #0
 8006636:	2120      	movs	r1, #32
 8006638:	0018      	movs	r0, r3
 800663a:	f7fc faa7 	bl	8002b8c <HAL_GPIO_WritePin>
			HAL_GPIO_WritePin(GPIOA, MOT_AIN2_PA6, GPIO_PIN_SET);
 800663e:	23a0      	movs	r3, #160	; 0xa0
 8006640:	05db      	lsls	r3, r3, #23
 8006642:	2201      	movs	r2, #1
 8006644:	2140      	movs	r1, #64	; 0x40
 8006646:	0018      	movs	r0, r3
 8006648:	f7fc faa0 	bl	8002b8c <HAL_GPIO_WritePin>
			HAL_GPIO_WritePin(GPIOB, MOT_BIN1_PB0, GPIO_PIN_SET);
 800664c:	4b4b      	ldr	r3, [pc, #300]	; (800677c <printer_do_step+0x174>)
 800664e:	2201      	movs	r2, #1
 8006650:	2101      	movs	r1, #1
 8006652:	0018      	movs	r0, r3
 8006654:	f7fc fa9a 	bl	8002b8c <HAL_GPIO_WritePin>
			HAL_GPIO_WritePin(GPIOA, MOT_BIN2_PA7, GPIO_PIN_RESET);
 8006658:	23a0      	movs	r3, #160	; 0xa0
 800665a:	05db      	lsls	r3, r3, #23
 800665c:	2200      	movs	r2, #0
 800665e:	2180      	movs	r1, #128	; 0x80
 8006660:	0018      	movs	r0, r3
 8006662:	f7fc fa93 	bl	8002b8c <HAL_GPIO_WritePin>
			if(cDirection==1) cstep=1;
 8006666:	1dfb      	adds	r3, r7, #7
 8006668:	781b      	ldrb	r3, [r3, #0]
 800666a:	2b01      	cmp	r3, #1
 800666c:	d103      	bne.n	8006676 <printer_do_step+0x6e>
 800666e:	4b42      	ldr	r3, [pc, #264]	; (8006778 <printer_do_step+0x170>)
 8006670:	2201      	movs	r2, #1
 8006672:	701a      	strb	r2, [r3, #0]
			else cstep=3;
			break;
 8006674:	e07c      	b.n	8006770 <printer_do_step+0x168>
			else cstep=3;
 8006676:	4b40      	ldr	r3, [pc, #256]	; (8006778 <printer_do_step+0x170>)
 8006678:	2203      	movs	r2, #3
 800667a:	701a      	strb	r2, [r3, #0]
			break;
 800667c:	e078      	b.n	8006770 <printer_do_step+0x168>

		// Step 2
		case 1:
			HAL_GPIO_WritePin(GPIOA, MOT_AIN1_PA5, GPIO_PIN_RESET);
 800667e:	23a0      	movs	r3, #160	; 0xa0
 8006680:	05db      	lsls	r3, r3, #23
 8006682:	2200      	movs	r2, #0
 8006684:	2120      	movs	r1, #32
 8006686:	0018      	movs	r0, r3
 8006688:	f7fc fa80 	bl	8002b8c <HAL_GPIO_WritePin>
			HAL_GPIO_WritePin(GPIOA, MOT_AIN2_PA6, GPIO_PIN_SET);
 800668c:	23a0      	movs	r3, #160	; 0xa0
 800668e:	05db      	lsls	r3, r3, #23
 8006690:	2201      	movs	r2, #1
 8006692:	2140      	movs	r1, #64	; 0x40
 8006694:	0018      	movs	r0, r3
 8006696:	f7fc fa79 	bl	8002b8c <HAL_GPIO_WritePin>
			HAL_GPIO_WritePin(GPIOB, MOT_BIN1_PB0, GPIO_PIN_RESET);
 800669a:	4b38      	ldr	r3, [pc, #224]	; (800677c <printer_do_step+0x174>)
 800669c:	2200      	movs	r2, #0
 800669e:	2101      	movs	r1, #1
 80066a0:	0018      	movs	r0, r3
 80066a2:	f7fc fa73 	bl	8002b8c <HAL_GPIO_WritePin>
			HAL_GPIO_WritePin(GPIOA, MOT_BIN2_PA7, GPIO_PIN_SET);
 80066a6:	23a0      	movs	r3, #160	; 0xa0
 80066a8:	05db      	lsls	r3, r3, #23
 80066aa:	2201      	movs	r2, #1
 80066ac:	2180      	movs	r1, #128	; 0x80
 80066ae:	0018      	movs	r0, r3
 80066b0:	f7fc fa6c 	bl	8002b8c <HAL_GPIO_WritePin>
			if(cDirection==1) cstep=2;
 80066b4:	1dfb      	adds	r3, r7, #7
 80066b6:	781b      	ldrb	r3, [r3, #0]
 80066b8:	2b01      	cmp	r3, #1
 80066ba:	d103      	bne.n	80066c4 <printer_do_step+0xbc>
 80066bc:	4b2e      	ldr	r3, [pc, #184]	; (8006778 <printer_do_step+0x170>)
 80066be:	2202      	movs	r2, #2
 80066c0:	701a      	strb	r2, [r3, #0]
			else cstep=0;
			break;
 80066c2:	e055      	b.n	8006770 <printer_do_step+0x168>
			else cstep=0;
 80066c4:	4b2c      	ldr	r3, [pc, #176]	; (8006778 <printer_do_step+0x170>)
 80066c6:	2200      	movs	r2, #0
 80066c8:	701a      	strb	r2, [r3, #0]
			break;
 80066ca:	e051      	b.n	8006770 <printer_do_step+0x168>

		// Step 3
		case 2:
			HAL_GPIO_WritePin(GPIOA, MOT_AIN1_PA5, GPIO_PIN_SET);
 80066cc:	23a0      	movs	r3, #160	; 0xa0
 80066ce:	05db      	lsls	r3, r3, #23
 80066d0:	2201      	movs	r2, #1
 80066d2:	2120      	movs	r1, #32
 80066d4:	0018      	movs	r0, r3
 80066d6:	f7fc fa59 	bl	8002b8c <HAL_GPIO_WritePin>
			HAL_GPIO_WritePin(GPIOA, MOT_AIN2_PA6, GPIO_PIN_RESET);
 80066da:	23a0      	movs	r3, #160	; 0xa0
 80066dc:	05db      	lsls	r3, r3, #23
 80066de:	2200      	movs	r2, #0
 80066e0:	2140      	movs	r1, #64	; 0x40
 80066e2:	0018      	movs	r0, r3
 80066e4:	f7fc fa52 	bl	8002b8c <HAL_GPIO_WritePin>
			HAL_GPIO_WritePin(GPIOB, MOT_BIN1_PB0, GPIO_PIN_RESET);
 80066e8:	4b24      	ldr	r3, [pc, #144]	; (800677c <printer_do_step+0x174>)
 80066ea:	2200      	movs	r2, #0
 80066ec:	2101      	movs	r1, #1
 80066ee:	0018      	movs	r0, r3
 80066f0:	f7fc fa4c 	bl	8002b8c <HAL_GPIO_WritePin>
			HAL_GPIO_WritePin(GPIOA, MOT_BIN2_PA7, GPIO_PIN_SET);
 80066f4:	23a0      	movs	r3, #160	; 0xa0
 80066f6:	05db      	lsls	r3, r3, #23
 80066f8:	2201      	movs	r2, #1
 80066fa:	2180      	movs	r1, #128	; 0x80
 80066fc:	0018      	movs	r0, r3
 80066fe:	f7fc fa45 	bl	8002b8c <HAL_GPIO_WritePin>
			if(cDirection==1) cstep=3;
 8006702:	1dfb      	adds	r3, r7, #7
 8006704:	781b      	ldrb	r3, [r3, #0]
 8006706:	2b01      	cmp	r3, #1
 8006708:	d103      	bne.n	8006712 <printer_do_step+0x10a>
 800670a:	4b1b      	ldr	r3, [pc, #108]	; (8006778 <printer_do_step+0x170>)
 800670c:	2203      	movs	r2, #3
 800670e:	701a      	strb	r2, [r3, #0]
			else cstep=1;
			break;
 8006710:	e02e      	b.n	8006770 <printer_do_step+0x168>
			else cstep=1;
 8006712:	4b19      	ldr	r3, [pc, #100]	; (8006778 <printer_do_step+0x170>)
 8006714:	2201      	movs	r2, #1
 8006716:	701a      	strb	r2, [r3, #0]
			break;
 8006718:	e02a      	b.n	8006770 <printer_do_step+0x168>

		// Step 4
		case 3:
			HAL_GPIO_WritePin(GPIOA, MOT_AIN1_PA5, GPIO_PIN_SET);
 800671a:	23a0      	movs	r3, #160	; 0xa0
 800671c:	05db      	lsls	r3, r3, #23
 800671e:	2201      	movs	r2, #1
 8006720:	2120      	movs	r1, #32
 8006722:	0018      	movs	r0, r3
 8006724:	f7fc fa32 	bl	8002b8c <HAL_GPIO_WritePin>
			HAL_GPIO_WritePin(GPIOA, MOT_AIN2_PA6, GPIO_PIN_RESET);
 8006728:	23a0      	movs	r3, #160	; 0xa0
 800672a:	05db      	lsls	r3, r3, #23
 800672c:	2200      	movs	r2, #0
 800672e:	2140      	movs	r1, #64	; 0x40
 8006730:	0018      	movs	r0, r3
 8006732:	f7fc fa2b 	bl	8002b8c <HAL_GPIO_WritePin>
			HAL_GPIO_WritePin(GPIOB, MOT_BIN1_PB0, GPIO_PIN_SET);
 8006736:	4b11      	ldr	r3, [pc, #68]	; (800677c <printer_do_step+0x174>)
 8006738:	2201      	movs	r2, #1
 800673a:	2101      	movs	r1, #1
 800673c:	0018      	movs	r0, r3
 800673e:	f7fc fa25 	bl	8002b8c <HAL_GPIO_WritePin>
			HAL_GPIO_WritePin(GPIOA, MOT_BIN2_PA7, GPIO_PIN_RESET);
 8006742:	23a0      	movs	r3, #160	; 0xa0
 8006744:	05db      	lsls	r3, r3, #23
 8006746:	2200      	movs	r2, #0
 8006748:	2180      	movs	r1, #128	; 0x80
 800674a:	0018      	movs	r0, r3
 800674c:	f7fc fa1e 	bl	8002b8c <HAL_GPIO_WritePin>
			if(cDirection==1) cstep=0;
 8006750:	1dfb      	adds	r3, r7, #7
 8006752:	781b      	ldrb	r3, [r3, #0]
 8006754:	2b01      	cmp	r3, #1
 8006756:	d103      	bne.n	8006760 <printer_do_step+0x158>
 8006758:	4b07      	ldr	r3, [pc, #28]	; (8006778 <printer_do_step+0x170>)
 800675a:	2200      	movs	r2, #0
 800675c:	701a      	strb	r2, [r3, #0]
			else cstep=2;
			break;
 800675e:	e007      	b.n	8006770 <printer_do_step+0x168>
			else cstep=2;
 8006760:	4b05      	ldr	r3, [pc, #20]	; (8006778 <printer_do_step+0x170>)
 8006762:	2202      	movs	r2, #2
 8006764:	701a      	strb	r2, [r3, #0]
			break;
 8006766:	e003      	b.n	8006770 <printer_do_step+0x168>

		default:
			cstep = 0;
 8006768:	4b03      	ldr	r3, [pc, #12]	; (8006778 <printer_do_step+0x170>)
 800676a:	2200      	movs	r2, #0
 800676c:	701a      	strb	r2, [r3, #0]
			break;
 800676e:	46c0      	nop			; (mov r8, r8)
	}
}
 8006770:	46c0      	nop			; (mov r8, r8)
 8006772:	46bd      	mov	sp, r7
 8006774:	b002      	add	sp, #8
 8006776:	bd80      	pop	{r7, pc}
 8006778:	2000045c 	.word	0x2000045c
 800677c:	50000400 	.word	0x50000400

08006780 <printer_motor_off>:

void printer_motor_off(void)
{
 8006780:	b580      	push	{r7, lr}
 8006782:	af00      	add	r7, sp, #0
	HAL_GPIO_WritePin(GPIOA, MOT_AIN1_PA5, GPIO_PIN_RESET);
 8006784:	23a0      	movs	r3, #160	; 0xa0
 8006786:	05db      	lsls	r3, r3, #23
 8006788:	2200      	movs	r2, #0
 800678a:	2120      	movs	r1, #32
 800678c:	0018      	movs	r0, r3
 800678e:	f7fc f9fd 	bl	8002b8c <HAL_GPIO_WritePin>
	HAL_GPIO_WritePin(GPIOA, MOT_AIN2_PA6, GPIO_PIN_RESET);
 8006792:	23a0      	movs	r3, #160	; 0xa0
 8006794:	05db      	lsls	r3, r3, #23
 8006796:	2200      	movs	r2, #0
 8006798:	2140      	movs	r1, #64	; 0x40
 800679a:	0018      	movs	r0, r3
 800679c:	f7fc f9f6 	bl	8002b8c <HAL_GPIO_WritePin>
	HAL_GPIO_WritePin(GPIOB, MOT_BIN1_PB0, GPIO_PIN_RESET);
 80067a0:	4b07      	ldr	r3, [pc, #28]	; (80067c0 <printer_motor_off+0x40>)
 80067a2:	2200      	movs	r2, #0
 80067a4:	2101      	movs	r1, #1
 80067a6:	0018      	movs	r0, r3
 80067a8:	f7fc f9f0 	bl	8002b8c <HAL_GPIO_WritePin>
	HAL_GPIO_WritePin(GPIOA, MOT_BIN2_PA7, GPIO_PIN_RESET);
 80067ac:	23a0      	movs	r3, #160	; 0xa0
 80067ae:	05db      	lsls	r3, r3, #23
 80067b0:	2200      	movs	r2, #0
 80067b2:	2180      	movs	r1, #128	; 0x80
 80067b4:	0018      	movs	r0, r3
 80067b6:	f7fc f9e9 	bl	8002b8c <HAL_GPIO_WritePin>
}
 80067ba:	46c0      	nop			; (mov r8, r8)
 80067bc:	46bd      	mov	sp, r7
 80067be:	bd80      	pop	{r7, pc}
 80067c0:	50000400 	.word	0x50000400

080067c4 <printer_prepare_message_for_print>:

void printer_prepare_message_for_print(char* pcMessage)
{
 80067c4:	b580      	push	{r7, lr}
 80067c6:	b088      	sub	sp, #32
 80067c8:	af00      	add	r7, sp, #0
 80067ca:	6078      	str	r0, [r7, #4]
	int cnt = 0;
 80067cc:	2300      	movs	r3, #0
 80067ce:	61fb      	str	r3, [r7, #28]
	int u = 0;
 80067d0:	2300      	movs	r3, #0
 80067d2:	61bb      	str	r3, [r7, #24]
	unsigned char* array_pointer = NULL;
 80067d4:	2300      	movs	r3, #0
 80067d6:	617b      	str	r3, [r7, #20]
	for(int i = 0; i<12; i++) // up to 12
 80067d8:	2300      	movs	r3, #0
 80067da:	613b      	str	r3, [r7, #16]
 80067dc:	e062      	b.n	80068a4 <printer_prepare_message_for_print+0xe0>
	{
		switch(pcMessage[i])
 80067de:	693b      	ldr	r3, [r7, #16]
 80067e0:	687a      	ldr	r2, [r7, #4]
 80067e2:	18d3      	adds	r3, r2, r3
 80067e4:	781b      	ldrb	r3, [r3, #0]
 80067e6:	3b20      	subs	r3, #32
 80067e8:	2b19      	cmp	r3, #25
 80067ea:	d828      	bhi.n	800683e <printer_prepare_message_for_print+0x7a>
 80067ec:	009a      	lsls	r2, r3, #2
 80067ee:	4b31      	ldr	r3, [pc, #196]	; (80068b4 <printer_prepare_message_for_print+0xf0>)
 80067f0:	18d3      	adds	r3, r2, r3
 80067f2:	681b      	ldr	r3, [r3, #0]
 80067f4:	469f      	mov	pc, r3
		{
			case ' ':
				array_pointer = array_spare;
 80067f6:	4b30      	ldr	r3, [pc, #192]	; (80068b8 <printer_prepare_message_for_print+0xf4>)
 80067f8:	617b      	str	r3, [r7, #20]
				break;
 80067fa:	e023      	b.n	8006844 <printer_prepare_message_for_print+0x80>

			case '-':
				array_pointer = array_minus;
 80067fc:	4b2f      	ldr	r3, [pc, #188]	; (80068bc <printer_prepare_message_for_print+0xf8>)
 80067fe:	617b      	str	r3, [r7, #20]
				break;
 8006800:	e020      	b.n	8006844 <printer_prepare_message_for_print+0x80>

			case '0':
				array_pointer = array_zero;
 8006802:	4b2f      	ldr	r3, [pc, #188]	; (80068c0 <printer_prepare_message_for_print+0xfc>)
 8006804:	617b      	str	r3, [r7, #20]
				break;
 8006806:	e01d      	b.n	8006844 <printer_prepare_message_for_print+0x80>

			case '1':
				array_pointer = array_one;
 8006808:	4b2e      	ldr	r3, [pc, #184]	; (80068c4 <printer_prepare_message_for_print+0x100>)
 800680a:	617b      	str	r3, [r7, #20]
				break;
 800680c:	e01a      	b.n	8006844 <printer_prepare_message_for_print+0x80>

			case '2':
				array_pointer = array_two;
 800680e:	4b2e      	ldr	r3, [pc, #184]	; (80068c8 <printer_prepare_message_for_print+0x104>)
 8006810:	617b      	str	r3, [r7, #20]
				break;
 8006812:	e017      	b.n	8006844 <printer_prepare_message_for_print+0x80>

			case '3':
				array_pointer = array_three;
 8006814:	4b2d      	ldr	r3, [pc, #180]	; (80068cc <printer_prepare_message_for_print+0x108>)
 8006816:	617b      	str	r3, [r7, #20]
				break;
 8006818:	e014      	b.n	8006844 <printer_prepare_message_for_print+0x80>

			case '4':
				array_pointer = array_four;
 800681a:	4b2d      	ldr	r3, [pc, #180]	; (80068d0 <printer_prepare_message_for_print+0x10c>)
 800681c:	617b      	str	r3, [r7, #20]
				break;
 800681e:	e011      	b.n	8006844 <printer_prepare_message_for_print+0x80>

			case '5':
				array_pointer = array_five;
 8006820:	4b2c      	ldr	r3, [pc, #176]	; (80068d4 <printer_prepare_message_for_print+0x110>)
 8006822:	617b      	str	r3, [r7, #20]
				break;
 8006824:	e00e      	b.n	8006844 <printer_prepare_message_for_print+0x80>

			case '6':
				array_pointer = array_six;
 8006826:	4b2c      	ldr	r3, [pc, #176]	; (80068d8 <printer_prepare_message_for_print+0x114>)
 8006828:	617b      	str	r3, [r7, #20]
				break;
 800682a:	e00b      	b.n	8006844 <printer_prepare_message_for_print+0x80>

			case '7':
				array_pointer = array_seven;
 800682c:	4b2b      	ldr	r3, [pc, #172]	; (80068dc <printer_prepare_message_for_print+0x118>)
 800682e:	617b      	str	r3, [r7, #20]
				break;
 8006830:	e008      	b.n	8006844 <printer_prepare_message_for_print+0x80>

			case '8':
				array_pointer = array_eight;
 8006832:	4b2b      	ldr	r3, [pc, #172]	; (80068e0 <printer_prepare_message_for_print+0x11c>)
 8006834:	617b      	str	r3, [r7, #20]
				break;
 8006836:	e005      	b.n	8006844 <printer_prepare_message_for_print+0x80>

			case '9':
				array_pointer = array_nine;
 8006838:	4b2a      	ldr	r3, [pc, #168]	; (80068e4 <printer_prepare_message_for_print+0x120>)
 800683a:	617b      	str	r3, [r7, #20]
				break;
 800683c:	e002      	b.n	8006844 <printer_prepare_message_for_print+0x80>
			default:
				array_pointer = array_spare;
 800683e:	4b1e      	ldr	r3, [pc, #120]	; (80068b8 <printer_prepare_message_for_print+0xf4>)
 8006840:	617b      	str	r3, [r7, #20]
				break;
 8006842:	46c0      	nop			; (mov r8, r8)
		}
		cnt = 0;
 8006844:	2300      	movs	r3, #0
 8006846:	61fb      	str	r3, [r7, #28]
		for(int z = 0; z<40; z++)
 8006848:	2300      	movs	r3, #0
 800684a:	60fb      	str	r3, [r7, #12]
 800684c:	e021      	b.n	8006892 <printer_prepare_message_for_print+0xce>
		{
			for(int s = u*2; s<u*2+2; s++)
 800684e:	69bb      	ldr	r3, [r7, #24]
 8006850:	005b      	lsls	r3, r3, #1
 8006852:	60bb      	str	r3, [r7, #8]
 8006854:	e014      	b.n	8006880 <printer_prepare_message_for_print+0xbc>
			{
				matrix_array[z][s]=array_pointer[cnt];
 8006856:	69fb      	ldr	r3, [r7, #28]
 8006858:	697a      	ldr	r2, [r7, #20]
 800685a:	18d3      	adds	r3, r2, r3
 800685c:	7818      	ldrb	r0, [r3, #0]
 800685e:	4922      	ldr	r1, [pc, #136]	; (80068e8 <printer_prepare_message_for_print+0x124>)
 8006860:	68fa      	ldr	r2, [r7, #12]
 8006862:	0013      	movs	r3, r2
 8006864:	005b      	lsls	r3, r3, #1
 8006866:	189b      	adds	r3, r3, r2
 8006868:	00db      	lsls	r3, r3, #3
 800686a:	18ca      	adds	r2, r1, r3
 800686c:	68bb      	ldr	r3, [r7, #8]
 800686e:	18d3      	adds	r3, r2, r3
 8006870:	1c02      	adds	r2, r0, #0
 8006872:	701a      	strb	r2, [r3, #0]
				cnt++;
 8006874:	69fb      	ldr	r3, [r7, #28]
 8006876:	3301      	adds	r3, #1
 8006878:	61fb      	str	r3, [r7, #28]
			for(int s = u*2; s<u*2+2; s++)
 800687a:	68bb      	ldr	r3, [r7, #8]
 800687c:	3301      	adds	r3, #1
 800687e:	60bb      	str	r3, [r7, #8]
 8006880:	69bb      	ldr	r3, [r7, #24]
 8006882:	3301      	adds	r3, #1
 8006884:	005a      	lsls	r2, r3, #1
 8006886:	68bb      	ldr	r3, [r7, #8]
 8006888:	429a      	cmp	r2, r3
 800688a:	dce4      	bgt.n	8006856 <printer_prepare_message_for_print+0x92>
		for(int z = 0; z<40; z++)
 800688c:	68fb      	ldr	r3, [r7, #12]
 800688e:	3301      	adds	r3, #1
 8006890:	60fb      	str	r3, [r7, #12]
 8006892:	68fb      	ldr	r3, [r7, #12]
 8006894:	2b27      	cmp	r3, #39	; 0x27
 8006896:	ddda      	ble.n	800684e <printer_prepare_message_for_print+0x8a>
			}

		}
		u++;
 8006898:	69bb      	ldr	r3, [r7, #24]
 800689a:	3301      	adds	r3, #1
 800689c:	61bb      	str	r3, [r7, #24]
	for(int i = 0; i<12; i++) // up to 12
 800689e:	693b      	ldr	r3, [r7, #16]
 80068a0:	3301      	adds	r3, #1
 80068a2:	613b      	str	r3, [r7, #16]
 80068a4:	693b      	ldr	r3, [r7, #16]
 80068a6:	2b0b      	cmp	r3, #11
 80068a8:	dd99      	ble.n	80067de <printer_prepare_message_for_print+0x1a>
	}
}
 80068aa:	46c0      	nop			; (mov r8, r8)
 80068ac:	46bd      	mov	sp, r7
 80068ae:	b008      	add	sp, #32
 80068b0:	bd80      	pop	{r7, pc}
 80068b2:	46c0      	nop			; (mov r8, r8)
 80068b4:	080073c4 	.word	0x080073c4
 80068b8:	08007004 	.word	0x08007004
 80068bc:	08007054 	.word	0x08007054
 80068c0:	080070a4 	.word	0x080070a4
 80068c4:	080070f4 	.word	0x080070f4
 80068c8:	08007144 	.word	0x08007144
 80068cc:	08007194 	.word	0x08007194
 80068d0:	080071e4 	.word	0x080071e4
 80068d4:	08007234 	.word	0x08007234
 80068d8:	08007284 	.word	0x08007284
 80068dc:	080072d4 	.word	0x080072d4
 80068e0:	08007324 	.word	0x08007324
 80068e4:	08007374 	.word	0x08007374
 80068e8:	2000009c 	.word	0x2000009c

080068ec <printer_drive_to_next_label>:


void printer_drive_to_next_label(void)
{
 80068ec:	b580      	push	{r7, lr}
 80068ee:	b084      	sub	sp, #16
 80068f0:	af00      	add	r7, sp, #0
	uint16_t Alt = 3500; // TODO depends on battery voltage
 80068f2:	230e      	movs	r3, #14
 80068f4:	18fb      	adds	r3, r7, r3
 80068f6:	4a1f      	ldr	r2, [pc, #124]	; (8006974 <printer_drive_to_next_label+0x88>)
 80068f8:	801a      	strh	r2, [r3, #0]
	int i;

	printer_adc_start();
 80068fa:	f000 f83f 	bl	800697c <printer_adc_start>
	HAL_Delay(5);
 80068fe:	2005      	movs	r0, #5
 8006900:	f7fa fe86 	bl	8001610 <HAL_Delay>

	// i >= 200 means max 200 steps when no label is found
	for(i = 0; i<= 200; i++)
 8006904:	2300      	movs	r3, #0
 8006906:	60bb      	str	r3, [r7, #8]
 8006908:	e02a      	b.n	8006960 <printer_drive_to_next_label+0x74>
	{
	  uint16_t Neu = printer_get_black_mark_adc_value();
 800690a:	f000 f847 	bl	800699c <printer_get_black_mark_adc_value>
 800690e:	0002      	movs	r2, r0
 8006910:	1dbb      	adds	r3, r7, #6
 8006912:	801a      	strh	r2, [r3, #0]


	  if(Neu <= 3850 && Alt > 3850 )
 8006914:	1dbb      	adds	r3, r7, #6
 8006916:	881b      	ldrh	r3, [r3, #0]
 8006918:	4a17      	ldr	r2, [pc, #92]	; (8006978 <printer_drive_to_next_label+0x8c>)
 800691a:	4293      	cmp	r3, r2
 800691c:	d812      	bhi.n	8006944 <printer_drive_to_next_label+0x58>
 800691e:	230e      	movs	r3, #14
 8006920:	18fb      	adds	r3, r7, r3
 8006922:	881b      	ldrh	r3, [r3, #0]
 8006924:	4a14      	ldr	r2, [pc, #80]	; (8006978 <printer_drive_to_next_label+0x8c>)
 8006926:	4293      	cmp	r3, r2
 8006928:	d90c      	bls.n	8006944 <printer_drive_to_next_label+0x58>
	  {
		  // If next label is detect do 4 more steps
		  for(i=0; i<4; i++)
 800692a:	2300      	movs	r3, #0
 800692c:	60bb      	str	r3, [r7, #8]
 800692e:	e005      	b.n	800693c <printer_drive_to_next_label+0x50>
		  {
			  printer_do_step(0u);
 8006930:	2000      	movs	r0, #0
 8006932:	f7ff fe69 	bl	8006608 <printer_do_step>
		  for(i=0; i<4; i++)
 8006936:	68bb      	ldr	r3, [r7, #8]
 8006938:	3301      	adds	r3, #1
 800693a:	60bb      	str	r3, [r7, #8]
 800693c:	68bb      	ldr	r3, [r7, #8]
 800693e:	2b03      	cmp	r3, #3
 8006940:	ddf6      	ble.n	8006930 <printer_drive_to_next_label+0x44>
		  }
		  break;
 8006942:	e010      	b.n	8006966 <printer_drive_to_next_label+0x7a>
	  }

	  printer_do_step(0u);
 8006944:	2000      	movs	r0, #0
 8006946:	f7ff fe5f 	bl	8006608 <printer_do_step>
	  Alt = Neu;
 800694a:	230e      	movs	r3, #14
 800694c:	18fb      	adds	r3, r7, r3
 800694e:	1dba      	adds	r2, r7, #6
 8006950:	8812      	ldrh	r2, [r2, #0]
 8006952:	801a      	strh	r2, [r3, #0]
	  HAL_Delay(5);
 8006954:	2005      	movs	r0, #5
 8006956:	f7fa fe5b 	bl	8001610 <HAL_Delay>
	for(i = 0; i<= 200; i++)
 800695a:	68bb      	ldr	r3, [r7, #8]
 800695c:	3301      	adds	r3, #1
 800695e:	60bb      	str	r3, [r7, #8]
 8006960:	68bb      	ldr	r3, [r7, #8]
 8006962:	2bc8      	cmp	r3, #200	; 0xc8
 8006964:	ddd1      	ble.n	800690a <printer_drive_to_next_label+0x1e>
	}
	printer_adc_stop();
 8006966:	f000 f823 	bl	80069b0 <printer_adc_stop>
}
 800696a:	46c0      	nop			; (mov r8, r8)
 800696c:	46bd      	mov	sp, r7
 800696e:	b004      	add	sp, #16
 8006970:	bd80      	pop	{r7, pc}
 8006972:	46c0      	nop			; (mov r8, r8)
 8006974:	00000dac 	.word	0x00000dac
 8006978:	00000f0a 	.word	0x00000f0a

0800697c <printer_adc_start>:
	return HAL_GPIO_ReadPin(GPIOB, PAPER_SENS_PB6);
}


void printer_adc_start(void)
{
 800697c:	b580      	push	{r7, lr}
 800697e:	af00      	add	r7, sp, #0
	HAL_ADC_Start_DMA(&hadc, (uint32_t*) &ADC1ConvertedValue, 2u);
 8006980:	4904      	ldr	r1, [pc, #16]	; (8006994 <printer_adc_start+0x18>)
 8006982:	4b05      	ldr	r3, [pc, #20]	; (8006998 <printer_adc_start+0x1c>)
 8006984:	2202      	movs	r2, #2
 8006986:	0018      	movs	r0, r3
 8006988:	f7fa ffd0 	bl	800192c <HAL_ADC_Start_DMA>
}
 800698c:	46c0      	nop			; (mov r8, r8)
 800698e:	46bd      	mov	sp, r7
 8006990:	bd80      	pop	{r7, pc}
 8006992:	46c0      	nop			; (mov r8, r8)
 8006994:	200004c8 	.word	0x200004c8
 8006998:	2000050c 	.word	0x2000050c

0800699c <printer_get_black_mark_adc_value>:


uint32_t printer_get_black_mark_adc_value(void)
{
 800699c:	b580      	push	{r7, lr}
 800699e:	af00      	add	r7, sp, #0

	return ADC1ConvertedValue;
 80069a0:	4b02      	ldr	r3, [pc, #8]	; (80069ac <printer_get_black_mark_adc_value+0x10>)
 80069a2:	881b      	ldrh	r3, [r3, #0]
}
 80069a4:	0018      	movs	r0, r3
 80069a6:	46bd      	mov	sp, r7
 80069a8:	bd80      	pop	{r7, pc}
 80069aa:	46c0      	nop			; (mov r8, r8)
 80069ac:	200004c8 	.word	0x200004c8

080069b0 <printer_adc_stop>:


void printer_adc_stop(void)
{
 80069b0:	b580      	push	{r7, lr}
 80069b2:	af00      	add	r7, sp, #0
	 HAL_ADC_Stop_DMA(&hadc);
 80069b4:	4b03      	ldr	r3, [pc, #12]	; (80069c4 <printer_adc_stop+0x14>)
 80069b6:	0018      	movs	r0, r3
 80069b8:	f7fb f83a 	bl	8001a30 <HAL_ADC_Stop_DMA>
}
 80069bc:	46c0      	nop			; (mov r8, r8)
 80069be:	46bd      	mov	sp, r7
 80069c0:	bd80      	pop	{r7, pc}
 80069c2:	46c0      	nop			; (mov r8, r8)
 80069c4:	2000050c 	.word	0x2000050c

080069c8 <ADC_Init>:
///////////////////////////////////////////////////////////////////////////
// INIT etc.
///////////////////////////////////////////////////////////////////////////

void ADC_Init(void)
{
 80069c8:	b580      	push	{r7, lr}
 80069ca:	b082      	sub	sp, #8
 80069cc:	af00      	add	r7, sp, #0

  ADC_ChannelConfTypeDef sConfig;

    /**Configure the global features of the ADC (Clock, Resolution, Data Alignment and number of conversion)
    */
  hadc.Instance = ADC1;
 80069ce:	4b2e      	ldr	r3, [pc, #184]	; (8006a88 <ADC_Init+0xc0>)
 80069d0:	4a2e      	ldr	r2, [pc, #184]	; (8006a8c <ADC_Init+0xc4>)
 80069d2:	601a      	str	r2, [r3, #0]
  hadc.Init.OversamplingMode = DISABLE;
 80069d4:	4b2c      	ldr	r3, [pc, #176]	; (8006a88 <ADC_Init+0xc0>)
 80069d6:	2200      	movs	r2, #0
 80069d8:	641a      	str	r2, [r3, #64]	; 0x40
  hadc.Init.ClockPrescaler = ADC_CLOCK_ASYNC_DIV10;
 80069da:	4b2b      	ldr	r3, [pc, #172]	; (8006a88 <ADC_Init+0xc0>)
 80069dc:	22a0      	movs	r2, #160	; 0xa0
 80069de:	0352      	lsls	r2, r2, #13
 80069e0:	605a      	str	r2, [r3, #4]
  hadc.Init.Resolution = ADC_RESOLUTION_12B;
 80069e2:	4b29      	ldr	r3, [pc, #164]	; (8006a88 <ADC_Init+0xc0>)
 80069e4:	2200      	movs	r2, #0
 80069e6:	609a      	str	r2, [r3, #8]
  hadc.Init.SamplingTime = ADC_SAMPLETIME_3CYCLES_5;
 80069e8:	4b27      	ldr	r3, [pc, #156]	; (8006a88 <ADC_Init+0xc0>)
 80069ea:	2201      	movs	r2, #1
 80069ec:	63da      	str	r2, [r3, #60]	; 0x3c
  hadc.Init.ScanConvMode = ADC_SCAN_DIRECTION_FORWARD;
 80069ee:	4b26      	ldr	r3, [pc, #152]	; (8006a88 <ADC_Init+0xc0>)
 80069f0:	2201      	movs	r2, #1
 80069f2:	611a      	str	r2, [r3, #16]
  hadc.Init.DataAlign = ADC_DATAALIGN_RIGHT;
 80069f4:	4b24      	ldr	r3, [pc, #144]	; (8006a88 <ADC_Init+0xc0>)
 80069f6:	2200      	movs	r2, #0
 80069f8:	60da      	str	r2, [r3, #12]
  hadc.Init.ContinuousConvMode = ENABLE;
 80069fa:	4b23      	ldr	r3, [pc, #140]	; (8006a88 <ADC_Init+0xc0>)
 80069fc:	2201      	movs	r2, #1
 80069fe:	621a      	str	r2, [r3, #32]
  hadc.Init.DiscontinuousConvMode = DISABLE;
 8006a00:	4b21      	ldr	r3, [pc, #132]	; (8006a88 <ADC_Init+0xc0>)
 8006a02:	2200      	movs	r2, #0
 8006a04:	625a      	str	r2, [r3, #36]	; 0x24
  hadc.Init.ExternalTrigConvEdge = ADC_EXTERNALTRIGCONVEDGE_NONE;
 8006a06:	4b20      	ldr	r3, [pc, #128]	; (8006a88 <ADC_Init+0xc0>)
 8006a08:	2200      	movs	r2, #0
 8006a0a:	62da      	str	r2, [r3, #44]	; 0x2c
  hadc.Init.ExternalTrigConv = ADC_SOFTWARE_START;
 8006a0c:	4b1e      	ldr	r3, [pc, #120]	; (8006a88 <ADC_Init+0xc0>)
 8006a0e:	22c2      	movs	r2, #194	; 0xc2
 8006a10:	32ff      	adds	r2, #255	; 0xff
 8006a12:	629a      	str	r2, [r3, #40]	; 0x28
  hadc.Init.DMAContinuousRequests = ENABLE;
 8006a14:	4b1c      	ldr	r3, [pc, #112]	; (8006a88 <ADC_Init+0xc0>)
 8006a16:	2201      	movs	r2, #1
 8006a18:	631a      	str	r2, [r3, #48]	; 0x30
  hadc.Init.EOCSelection = ADC_EOC_SEQ_CONV;
 8006a1a:	4b1b      	ldr	r3, [pc, #108]	; (8006a88 <ADC_Init+0xc0>)
 8006a1c:	2208      	movs	r2, #8
 8006a1e:	615a      	str	r2, [r3, #20]
  hadc.Init.Overrun = ADC_OVR_DATA_PRESERVED;
 8006a20:	4b19      	ldr	r3, [pc, #100]	; (8006a88 <ADC_Init+0xc0>)
 8006a22:	2200      	movs	r2, #0
 8006a24:	635a      	str	r2, [r3, #52]	; 0x34
  hadc.Init.LowPowerAutoWait = DISABLE;
 8006a26:	4b18      	ldr	r3, [pc, #96]	; (8006a88 <ADC_Init+0xc0>)
 8006a28:	2200      	movs	r2, #0
 8006a2a:	619a      	str	r2, [r3, #24]
  hadc.Init.LowPowerFrequencyMode = ENABLE;
 8006a2c:	4b16      	ldr	r3, [pc, #88]	; (8006a88 <ADC_Init+0xc0>)
 8006a2e:	2201      	movs	r2, #1
 8006a30:	639a      	str	r2, [r3, #56]	; 0x38
  hadc.Init.LowPowerAutoPowerOff = DISABLE;
 8006a32:	4b15      	ldr	r3, [pc, #84]	; (8006a88 <ADC_Init+0xc0>)
 8006a34:	2200      	movs	r2, #0
 8006a36:	61da      	str	r2, [r3, #28]
  if (HAL_ADC_Init(&hadc) != HAL_OK)
 8006a38:	4b13      	ldr	r3, [pc, #76]	; (8006a88 <ADC_Init+0xc0>)
 8006a3a:	0018      	movs	r0, r3
 8006a3c:	f7fa fe00 	bl	8001640 <HAL_ADC_Init>
 8006a40:	1e03      	subs	r3, r0, #0
 8006a42:	d007      	beq.n	8006a54 <ADC_Init+0x8c>
  {
    _Error_Handler(__FILE__, __LINE__);
 8006a44:	238e      	movs	r3, #142	; 0x8e
 8006a46:	33ff      	adds	r3, #255	; 0xff
 8006a48:	001a      	movs	r2, r3
 8006a4a:	4b11      	ldr	r3, [pc, #68]	; (8006a90 <ADC_Init+0xc8>)
 8006a4c:	0011      	movs	r1, r2
 8006a4e:	0018      	movs	r0, r3
 8006a50:	f7ff fbbe 	bl	80061d0 <_Error_Handler>
  }

    /**Configure for the selected ADC regular channel to be converted.
    */
  sConfig.Channel = ADC_CHANNEL_2;
 8006a54:	003b      	movs	r3, r7
 8006a56:	4a0f      	ldr	r2, [pc, #60]	; (8006a94 <ADC_Init+0xcc>)
 8006a58:	601a      	str	r2, [r3, #0]
  sConfig.Rank = ADC_RANK_CHANNEL_NUMBER;
 8006a5a:	003b      	movs	r3, r7
 8006a5c:	2280      	movs	r2, #128	; 0x80
 8006a5e:	0152      	lsls	r2, r2, #5
 8006a60:	605a      	str	r2, [r3, #4]
  if (HAL_ADC_ConfigChannel(&hadc, &sConfig) != HAL_OK)
 8006a62:	003a      	movs	r2, r7
 8006a64:	4b08      	ldr	r3, [pc, #32]	; (8006a88 <ADC_Init+0xc0>)
 8006a66:	0011      	movs	r1, r2
 8006a68:	0018      	movs	r0, r3
 8006a6a:	f7fb f869 	bl	8001b40 <HAL_ADC_ConfigChannel>
 8006a6e:	1e03      	subs	r3, r0, #0
 8006a70:	d006      	beq.n	8006a80 <ADC_Init+0xb8>
  {
    _Error_Handler(__FILE__, __LINE__);
 8006a72:	23cb      	movs	r3, #203	; 0xcb
 8006a74:	005a      	lsls	r2, r3, #1
 8006a76:	4b06      	ldr	r3, [pc, #24]	; (8006a90 <ADC_Init+0xc8>)
 8006a78:	0011      	movs	r1, r2
 8006a7a:	0018      	movs	r0, r3
 8006a7c:	f7ff fba8 	bl	80061d0 <_Error_Handler>
  }

}
 8006a80:	46c0      	nop			; (mov r8, r8)
 8006a82:	46bd      	mov	sp, r7
 8006a84:	b002      	add	sp, #8
 8006a86:	bd80      	pop	{r7, pc}
 8006a88:	2000050c 	.word	0x2000050c
 8006a8c:	40012400 	.word	0x40012400
 8006a90:	08006f70 	.word	0x08006f70
 8006a94:	08000004 	.word	0x08000004

08006a98 <DMA_Init>:


void DMA_Init(void)
{
 8006a98:	b580      	push	{r7, lr}
 8006a9a:	b082      	sub	sp, #8
 8006a9c:	af00      	add	r7, sp, #0
  /* DMA controller clock enable */
  __HAL_RCC_DMA1_CLK_ENABLE();
 8006a9e:	4b0c      	ldr	r3, [pc, #48]	; (8006ad0 <DMA_Init+0x38>)
 8006aa0:	4a0b      	ldr	r2, [pc, #44]	; (8006ad0 <DMA_Init+0x38>)
 8006aa2:	6b12      	ldr	r2, [r2, #48]	; 0x30
 8006aa4:	2101      	movs	r1, #1
 8006aa6:	430a      	orrs	r2, r1
 8006aa8:	631a      	str	r2, [r3, #48]	; 0x30
 8006aaa:	4b09      	ldr	r3, [pc, #36]	; (8006ad0 <DMA_Init+0x38>)
 8006aac:	6b1b      	ldr	r3, [r3, #48]	; 0x30
 8006aae:	2201      	movs	r2, #1
 8006ab0:	4013      	ands	r3, r2
 8006ab2:	607b      	str	r3, [r7, #4]
 8006ab4:	687b      	ldr	r3, [r7, #4]

  /* DMA interrupt init */
  /* DMA1_Channel1_IRQn interrupt configuration */
  HAL_NVIC_SetPriority(DMA1_Channel1_IRQn, 0, 0);
 8006ab6:	2200      	movs	r2, #0
 8006ab8:	2100      	movs	r1, #0
 8006aba:	2009      	movs	r0, #9
 8006abc:	f7fb fb14 	bl	80020e8 <HAL_NVIC_SetPriority>
  HAL_NVIC_EnableIRQ(DMA1_Channel1_IRQn);
 8006ac0:	2009      	movs	r0, #9
 8006ac2:	f7fb fb27 	bl	8002114 <HAL_NVIC_EnableIRQ>
}
 8006ac6:	46c0      	nop			; (mov r8, r8)
 8006ac8:	46bd      	mov	sp, r7
 8006aca:	b002      	add	sp, #8
 8006acc:	bd80      	pop	{r7, pc}
 8006ace:	46c0      	nop			; (mov r8, r8)
 8006ad0:	40021000 	.word	0x40021000

08006ad4 <DMA_ADC_Init>:

void DMA_ADC_Init(void)
{
 8006ad4:	b580      	push	{r7, lr}
 8006ad6:	af00      	add	r7, sp, #0

  /* ADC1 DMA Init */
  /* ADC Init */
  hdma_adc.Instance = DMA1_Channel1;
 8006ad8:	4b1a      	ldr	r3, [pc, #104]	; (8006b44 <DMA_ADC_Init+0x70>)
 8006ada:	4a1b      	ldr	r2, [pc, #108]	; (8006b48 <DMA_ADC_Init+0x74>)
 8006adc:	601a      	str	r2, [r3, #0]
  hdma_adc.Init.Request = DMA_REQUEST_0;
 8006ade:	4b19      	ldr	r3, [pc, #100]	; (8006b44 <DMA_ADC_Init+0x70>)
 8006ae0:	2200      	movs	r2, #0
 8006ae2:	605a      	str	r2, [r3, #4]
  hdma_adc.Init.Direction = DMA_PERIPH_TO_MEMORY;
 8006ae4:	4b17      	ldr	r3, [pc, #92]	; (8006b44 <DMA_ADC_Init+0x70>)
 8006ae6:	2200      	movs	r2, #0
 8006ae8:	609a      	str	r2, [r3, #8]
  hdma_adc.Init.PeriphInc = DMA_PINC_DISABLE;
 8006aea:	4b16      	ldr	r3, [pc, #88]	; (8006b44 <DMA_ADC_Init+0x70>)
 8006aec:	2200      	movs	r2, #0
 8006aee:	60da      	str	r2, [r3, #12]
  hdma_adc.Init.MemInc = DMA_MINC_ENABLE;
 8006af0:	4b14      	ldr	r3, [pc, #80]	; (8006b44 <DMA_ADC_Init+0x70>)
 8006af2:	2280      	movs	r2, #128	; 0x80
 8006af4:	611a      	str	r2, [r3, #16]
  hdma_adc.Init.PeriphDataAlignment = DMA_PDATAALIGN_HALFWORD;
 8006af6:	4b13      	ldr	r3, [pc, #76]	; (8006b44 <DMA_ADC_Init+0x70>)
 8006af8:	2280      	movs	r2, #128	; 0x80
 8006afa:	0052      	lsls	r2, r2, #1
 8006afc:	615a      	str	r2, [r3, #20]
  hdma_adc.Init.MemDataAlignment = DMA_MDATAALIGN_HALFWORD;
 8006afe:	4b11      	ldr	r3, [pc, #68]	; (8006b44 <DMA_ADC_Init+0x70>)
 8006b00:	2280      	movs	r2, #128	; 0x80
 8006b02:	00d2      	lsls	r2, r2, #3
 8006b04:	619a      	str	r2, [r3, #24]
  hdma_adc.Init.Mode = DMA_CIRCULAR;
 8006b06:	4b0f      	ldr	r3, [pc, #60]	; (8006b44 <DMA_ADC_Init+0x70>)
 8006b08:	2220      	movs	r2, #32
 8006b0a:	61da      	str	r2, [r3, #28]
  hdma_adc.Init.Priority = DMA_PRIORITY_MEDIUM;
 8006b0c:	4b0d      	ldr	r3, [pc, #52]	; (8006b44 <DMA_ADC_Init+0x70>)
 8006b0e:	2280      	movs	r2, #128	; 0x80
 8006b10:	0152      	lsls	r2, r2, #5
 8006b12:	621a      	str	r2, [r3, #32]
  if (HAL_DMA_Init(&hdma_adc) != HAL_OK)
 8006b14:	4b0b      	ldr	r3, [pc, #44]	; (8006b44 <DMA_ADC_Init+0x70>)
 8006b16:	0018      	movs	r0, r3
 8006b18:	f7fb fb40 	bl	800219c <HAL_DMA_Init>
 8006b1c:	1e03      	subs	r3, r0, #0
 8006b1e:	d007      	beq.n	8006b30 <DMA_ADC_Init+0x5c>
  {
	_Error_Handler(__FILE__, __LINE__);
 8006b20:	23b8      	movs	r3, #184	; 0xb8
 8006b22:	33ff      	adds	r3, #255	; 0xff
 8006b24:	001a      	movs	r2, r3
 8006b26:	4b09      	ldr	r3, [pc, #36]	; (8006b4c <DMA_ADC_Init+0x78>)
 8006b28:	0011      	movs	r1, r2
 8006b2a:	0018      	movs	r0, r3
 8006b2c:	f7ff fb50 	bl	80061d0 <_Error_Handler>
  }

  __HAL_LINKDMA(&hadc,DMA_Handle,hdma_adc);
 8006b30:	4b07      	ldr	r3, [pc, #28]	; (8006b50 <DMA_ADC_Init+0x7c>)
 8006b32:	4a04      	ldr	r2, [pc, #16]	; (8006b44 <DMA_ADC_Init+0x70>)
 8006b34:	651a      	str	r2, [r3, #80]	; 0x50
 8006b36:	4b03      	ldr	r3, [pc, #12]	; (8006b44 <DMA_ADC_Init+0x70>)
 8006b38:	4a05      	ldr	r2, [pc, #20]	; (8006b50 <DMA_ADC_Init+0x7c>)
 8006b3a:	629a      	str	r2, [r3, #40]	; 0x28
}
 8006b3c:	46c0      	nop			; (mov r8, r8)
 8006b3e:	46bd      	mov	sp, r7
 8006b40:	bd80      	pop	{r7, pc}
 8006b42:	46c0      	nop			; (mov r8, r8)
 8006b44:	200004cc 	.word	0x200004cc
 8006b48:	40020008 	.word	0x40020008
 8006b4c:	08006f70 	.word	0x08006f70
 8006b50:	2000050c 	.word	0x2000050c

08006b54 <DMA1_Channel1_IRQHandler>:

void DMA1_Channel1_IRQHandler(void)
{
 8006b54:	b580      	push	{r7, lr}
 8006b56:	af00      	add	r7, sp, #0
  /* USER CODE BEGIN DMA1_Channel1_IRQn 0 */

  /* USER CODE END DMA1_Channel1_IRQn 0 */
  HAL_DMA_IRQHandler(&hdma_adc);
 8006b58:	4b03      	ldr	r3, [pc, #12]	; (8006b68 <DMA1_Channel1_IRQHandler+0x14>)
 8006b5a:	0018      	movs	r0, r3
 8006b5c:	f7fb fc92 	bl	8002484 <HAL_DMA_IRQHandler>
  /* USER CODE BEGIN DMA1_Channel1_IRQn 1 */

  /* USER CODE END DMA1_Channel1_IRQn 1 */
}
 8006b60:	46c0      	nop			; (mov r8, r8)
 8006b62:	46bd      	mov	sp, r7
 8006b64:	bd80      	pop	{r7, pc}
 8006b66:	46c0      	nop			; (mov r8, r8)
 8006b68:	200004cc 	.word	0x200004cc

08006b6c <HAL_MspInit>:
/* USER CODE END 0 */
/**
  * Initializes the Global MSP.
  */
void HAL_MspInit(void)
{
 8006b6c:	b580      	push	{r7, lr}
 8006b6e:	af00      	add	r7, sp, #0
  /* USER CODE BEGIN MspInit 0 */

  /* USER CODE END MspInit 0 */

  __HAL_RCC_SYSCFG_CLK_ENABLE();
 8006b70:	4b12      	ldr	r3, [pc, #72]	; (8006bbc <HAL_MspInit+0x50>)
 8006b72:	4a12      	ldr	r2, [pc, #72]	; (8006bbc <HAL_MspInit+0x50>)
 8006b74:	6b52      	ldr	r2, [r2, #52]	; 0x34
 8006b76:	2101      	movs	r1, #1
 8006b78:	430a      	orrs	r2, r1
 8006b7a:	635a      	str	r2, [r3, #52]	; 0x34
  __HAL_RCC_PWR_CLK_ENABLE();
 8006b7c:	4b0f      	ldr	r3, [pc, #60]	; (8006bbc <HAL_MspInit+0x50>)
 8006b7e:	4a0f      	ldr	r2, [pc, #60]	; (8006bbc <HAL_MspInit+0x50>)
 8006b80:	6b92      	ldr	r2, [r2, #56]	; 0x38
 8006b82:	2180      	movs	r1, #128	; 0x80
 8006b84:	0549      	lsls	r1, r1, #21
 8006b86:	430a      	orrs	r2, r1
 8006b88:	639a      	str	r2, [r3, #56]	; 0x38

  /* System interrupt init*/
  /* SVC_IRQn interrupt configuration */
  HAL_NVIC_SetPriority(SVC_IRQn, 0, 0);
 8006b8a:	2305      	movs	r3, #5
 8006b8c:	425b      	negs	r3, r3
 8006b8e:	2200      	movs	r2, #0
 8006b90:	2100      	movs	r1, #0
 8006b92:	0018      	movs	r0, r3
 8006b94:	f7fb faa8 	bl	80020e8 <HAL_NVIC_SetPriority>
  /* PendSV_IRQn interrupt configuration */
  HAL_NVIC_SetPriority(PendSV_IRQn, 0, 0);
 8006b98:	2302      	movs	r3, #2
 8006b9a:	425b      	negs	r3, r3
 8006b9c:	2200      	movs	r2, #0
 8006b9e:	2100      	movs	r1, #0
 8006ba0:	0018      	movs	r0, r3
 8006ba2:	f7fb faa1 	bl	80020e8 <HAL_NVIC_SetPriority>
  /* SysTick_IRQn interrupt configuration */
  HAL_NVIC_SetPriority(SysTick_IRQn, 0, 0);
 8006ba6:	2301      	movs	r3, #1
 8006ba8:	425b      	negs	r3, r3
 8006baa:	2200      	movs	r2, #0
 8006bac:	2100      	movs	r1, #0
 8006bae:	0018      	movs	r0, r3
 8006bb0:	f7fb fa9a 	bl	80020e8 <HAL_NVIC_SetPriority>

  /* USER CODE BEGIN MspInit 1 */

  /* USER CODE END MspInit 1 */
}
 8006bb4:	46c0      	nop			; (mov r8, r8)
 8006bb6:	46bd      	mov	sp, r7
 8006bb8:	bd80      	pop	{r7, pc}
 8006bba:	46c0      	nop			; (mov r8, r8)
 8006bbc:	40021000 	.word	0x40021000

08006bc0 <HAL_TIM_Base_MspInit>:

void HAL_TIM_Base_MspInit(TIM_HandleTypeDef* htim_base)
{
 8006bc0:	b580      	push	{r7, lr}
 8006bc2:	b082      	sub	sp, #8
 8006bc4:	af00      	add	r7, sp, #0
 8006bc6:	6078      	str	r0, [r7, #4]

  if(htim_base->Instance==TIM2)
 8006bc8:	687b      	ldr	r3, [r7, #4]
 8006bca:	681a      	ldr	r2, [r3, #0]
 8006bcc:	2380      	movs	r3, #128	; 0x80
 8006bce:	05db      	lsls	r3, r3, #23
 8006bd0:	429a      	cmp	r2, r3
 8006bd2:	d105      	bne.n	8006be0 <HAL_TIM_Base_MspInit+0x20>
  {
  /* USER CODE BEGIN TIM2_MspInit 0 */

  /* USER CODE END TIM2_MspInit 0 */
    /* Peripheral clock enable */
    __HAL_RCC_TIM2_CLK_ENABLE();
 8006bd4:	4b04      	ldr	r3, [pc, #16]	; (8006be8 <HAL_TIM_Base_MspInit+0x28>)
 8006bd6:	4a04      	ldr	r2, [pc, #16]	; (8006be8 <HAL_TIM_Base_MspInit+0x28>)
 8006bd8:	6b92      	ldr	r2, [r2, #56]	; 0x38
 8006bda:	2101      	movs	r1, #1
 8006bdc:	430a      	orrs	r2, r1
 8006bde:	639a      	str	r2, [r3, #56]	; 0x38
  /* USER CODE BEGIN TIM2_MspInit 1 */

  /* USER CODE END TIM2_MspInit 1 */
  }

}
 8006be0:	46c0      	nop			; (mov r8, r8)
 8006be2:	46bd      	mov	sp, r7
 8006be4:	b002      	add	sp, #8
 8006be6:	bd80      	pop	{r7, pc}
 8006be8:	40021000 	.word	0x40021000

08006bec <HAL_TSC_MspInit>:
  }

}

void HAL_TSC_MspInit(TSC_HandleTypeDef* htsc)
{
 8006bec:	b580      	push	{r7, lr}
 8006bee:	b088      	sub	sp, #32
 8006bf0:	af00      	add	r7, sp, #0
 8006bf2:	6078      	str	r0, [r7, #4]

  GPIO_InitTypeDef GPIO_InitStruct;
  if(htsc->Instance==TSC)
 8006bf4:	687b      	ldr	r3, [r7, #4]
 8006bf6:	681b      	ldr	r3, [r3, #0]
 8006bf8:	4a26      	ldr	r2, [pc, #152]	; (8006c94 <HAL_TSC_MspInit+0xa8>)
 8006bfa:	4293      	cmp	r3, r2
 8006bfc:	d145      	bne.n	8006c8a <HAL_TSC_MspInit+0x9e>
  {
  /* USER CODE BEGIN TSC_MspInit 0 */

  /* USER CODE END TSC_MspInit 0 */
    /* Peripheral clock enable */
    __HAL_RCC_TSC_CLK_ENABLE();
 8006bfe:	4b26      	ldr	r3, [pc, #152]	; (8006c98 <HAL_TSC_MspInit+0xac>)
 8006c00:	4a25      	ldr	r2, [pc, #148]	; (8006c98 <HAL_TSC_MspInit+0xac>)
 8006c02:	6b12      	ldr	r2, [r2, #48]	; 0x30
 8006c04:	2180      	movs	r1, #128	; 0x80
 8006c06:	0249      	lsls	r1, r1, #9
 8006c08:	430a      	orrs	r2, r1
 8006c0a:	631a      	str	r2, [r3, #48]	; 0x30
 8006c0c:	4b22      	ldr	r3, [pc, #136]	; (8006c98 <HAL_TSC_MspInit+0xac>)
 8006c0e:	6b1a      	ldr	r2, [r3, #48]	; 0x30
 8006c10:	2380      	movs	r3, #128	; 0x80
 8006c12:	025b      	lsls	r3, r3, #9
 8006c14:	4013      	ands	r3, r2
 8006c16:	60bb      	str	r3, [r7, #8]
 8006c18:	68bb      	ldr	r3, [r7, #8]
  
    /**TSC GPIO Configuration    
    PA0     ------> TSC_G1_IO1
    PA3     ------> TSC_G1_IO4 
    */
    GPIO_InitStruct.Pin = GPIO_PIN_0;
 8006c1a:	230c      	movs	r3, #12
 8006c1c:	18fb      	adds	r3, r7, r3
 8006c1e:	2201      	movs	r2, #1
 8006c20:	601a      	str	r2, [r3, #0]
    GPIO_InitStruct.Mode = GPIO_MODE_AF_PP;
 8006c22:	230c      	movs	r3, #12
 8006c24:	18fb      	adds	r3, r7, r3
 8006c26:	2202      	movs	r2, #2
 8006c28:	605a      	str	r2, [r3, #4]
    GPIO_InitStruct.Pull = GPIO_NOPULL;
 8006c2a:	230c      	movs	r3, #12
 8006c2c:	18fb      	adds	r3, r7, r3
 8006c2e:	2200      	movs	r2, #0
 8006c30:	609a      	str	r2, [r3, #8]
    GPIO_InitStruct.Speed = GPIO_SPEED_FREQ_LOW;
 8006c32:	230c      	movs	r3, #12
 8006c34:	18fb      	adds	r3, r7, r3
 8006c36:	2200      	movs	r2, #0
 8006c38:	60da      	str	r2, [r3, #12]
    GPIO_InitStruct.Alternate = GPIO_AF3_TSC;
 8006c3a:	230c      	movs	r3, #12
 8006c3c:	18fb      	adds	r3, r7, r3
 8006c3e:	2203      	movs	r2, #3
 8006c40:	611a      	str	r2, [r3, #16]
    HAL_GPIO_Init(GPIOA, &GPIO_InitStruct);
 8006c42:	230c      	movs	r3, #12
 8006c44:	18fa      	adds	r2, r7, r3
 8006c46:	23a0      	movs	r3, #160	; 0xa0
 8006c48:	05db      	lsls	r3, r3, #23
 8006c4a:	0011      	movs	r1, r2
 8006c4c:	0018      	movs	r0, r3
 8006c4e:	f7fb fe27 	bl	80028a0 <HAL_GPIO_Init>

    GPIO_InitStruct.Pin = GPIO_PIN_3;
 8006c52:	230c      	movs	r3, #12
 8006c54:	18fb      	adds	r3, r7, r3
 8006c56:	2208      	movs	r2, #8
 8006c58:	601a      	str	r2, [r3, #0]
    GPIO_InitStruct.Mode = GPIO_MODE_AF_OD;
 8006c5a:	230c      	movs	r3, #12
 8006c5c:	18fb      	adds	r3, r7, r3
 8006c5e:	2212      	movs	r2, #18
 8006c60:	605a      	str	r2, [r3, #4]
    GPIO_InitStruct.Pull = GPIO_NOPULL;
 8006c62:	230c      	movs	r3, #12
 8006c64:	18fb      	adds	r3, r7, r3
 8006c66:	2200      	movs	r2, #0
 8006c68:	609a      	str	r2, [r3, #8]
    GPIO_InitStruct.Speed = GPIO_SPEED_FREQ_LOW;
 8006c6a:	230c      	movs	r3, #12
 8006c6c:	18fb      	adds	r3, r7, r3
 8006c6e:	2200      	movs	r2, #0
 8006c70:	60da      	str	r2, [r3, #12]
    GPIO_InitStruct.Alternate = GPIO_AF3_TSC;
 8006c72:	230c      	movs	r3, #12
 8006c74:	18fb      	adds	r3, r7, r3
 8006c76:	2203      	movs	r2, #3
 8006c78:	611a      	str	r2, [r3, #16]
    HAL_GPIO_Init(GPIOA, &GPIO_InitStruct);
 8006c7a:	230c      	movs	r3, #12
 8006c7c:	18fa      	adds	r2, r7, r3
 8006c7e:	23a0      	movs	r3, #160	; 0xa0
 8006c80:	05db      	lsls	r3, r3, #23
 8006c82:	0011      	movs	r1, r2
 8006c84:	0018      	movs	r0, r3
 8006c86:	f7fb fe0b 	bl	80028a0 <HAL_GPIO_Init>
  /* USER CODE BEGIN TSC_MspInit 1 */

  /* USER CODE END TSC_MspInit 1 */
  }

}
 8006c8a:	46c0      	nop			; (mov r8, r8)
 8006c8c:	46bd      	mov	sp, r7
 8006c8e:	b008      	add	sp, #32
 8006c90:	bd80      	pop	{r7, pc}
 8006c92:	46c0      	nop			; (mov r8, r8)
 8006c94:	40024000 	.word	0x40024000
 8006c98:	40021000 	.word	0x40021000

08006c9c <NMI_Handler>:

/**
* @brief This function handles Non maskable interrupt.
*/
void NMI_Handler(void)
{
 8006c9c:	b580      	push	{r7, lr}
 8006c9e:	af00      	add	r7, sp, #0

  /* USER CODE END NonMaskableInt_IRQn 0 */
  /* USER CODE BEGIN NonMaskableInt_IRQn 1 */

  /* USER CODE END NonMaskableInt_IRQn 1 */
}
 8006ca0:	46c0      	nop			; (mov r8, r8)
 8006ca2:	46bd      	mov	sp, r7
 8006ca4:	bd80      	pop	{r7, pc}

08006ca6 <HardFault_Handler>:

/**
* @brief This function handles Hard fault interrupt.
*/
void HardFault_Handler(void)
{
 8006ca6:	b580      	push	{r7, lr}
 8006ca8:	af00      	add	r7, sp, #0
  /* USER CODE BEGIN HardFault_IRQn 0 */

  /* USER CODE END HardFault_IRQn 0 */
  while (1)
 8006caa:	e7fe      	b.n	8006caa <HardFault_Handler+0x4>

08006cac <SVC_Handler>:

/**
* @brief This function handles System service call via SWI instruction.
*/
void SVC_Handler(void)
{
 8006cac:	b580      	push	{r7, lr}
 8006cae:	af00      	add	r7, sp, #0

  /* USER CODE END SVC_IRQn 0 */
  /* USER CODE BEGIN SVC_IRQn 1 */

  /* USER CODE END SVC_IRQn 1 */
}
 8006cb0:	46c0      	nop			; (mov r8, r8)
 8006cb2:	46bd      	mov	sp, r7
 8006cb4:	bd80      	pop	{r7, pc}

08006cb6 <PendSV_Handler>:

/**
* @brief This function handles Pendable request for system service.
*/
void PendSV_Handler(void)
{
 8006cb6:	b580      	push	{r7, lr}
 8006cb8:	af00      	add	r7, sp, #0

  /* USER CODE END PendSV_IRQn 0 */
  /* USER CODE BEGIN PendSV_IRQn 1 */

  /* USER CODE END PendSV_IRQn 1 */
}
 8006cba:	46c0      	nop			; (mov r8, r8)
 8006cbc:	46bd      	mov	sp, r7
 8006cbe:	bd80      	pop	{r7, pc}

08006cc0 <SysTick_Handler>:

/**
* @brief This function handles System tick timer.
*/
void SysTick_Handler(void)
{
 8006cc0:	b580      	push	{r7, lr}
 8006cc2:	af00      	add	r7, sp, #0
  /* USER CODE BEGIN SysTick_IRQn 0 */

  /* USER CODE END SysTick_IRQn 0 */
  HAL_IncTick();
 8006cc4:	f7fa fc8e 	bl	80015e4 <HAL_IncTick>
  HAL_SYSTICK_IRQHandler();
 8006cc8:	f7fb fa5c 	bl	8002184 <HAL_SYSTICK_IRQHandler>
  /* TSL timing for ECS, DTO */
  TSL_tim_ProcessIT();
 8006ccc:	f7fd fe4c 	bl	8004968 <TSL_tim_ProcessIT>
  LED_ProcessIT();
 8006cd0:	f7ff f88c 	bl	8005dec <LED_ProcessIT>
  MAIN_TimerIT();
 8006cd4:	f7ff f992 	bl	8005ffc <MAIN_TimerIT>
  /* USER CODE BEGIN SysTick_IRQn 1 */

  /* USER CODE END SysTick_IRQn 1 */
}
 8006cd8:	46c0      	nop			; (mov r8, r8)
 8006cda:	46bd      	mov	sp, r7
 8006cdc:	bd80      	pop	{r7, pc}
	...

08006ce0 <SystemInit>:
  * @brief  Setup the microcontroller system.
  * @param  None
  * @retval None
  */
void SystemInit (void)
{    
 8006ce0:	b580      	push	{r7, lr}
 8006ce2:	af00      	add	r7, sp, #0
/*!< Set MSION bit */
  RCC->CR |= (uint32_t)0x00000100U;
 8006ce4:	4b17      	ldr	r3, [pc, #92]	; (8006d44 <SystemInit+0x64>)
 8006ce6:	4a17      	ldr	r2, [pc, #92]	; (8006d44 <SystemInit+0x64>)
 8006ce8:	6812      	ldr	r2, [r2, #0]
 8006cea:	2180      	movs	r1, #128	; 0x80
 8006cec:	0049      	lsls	r1, r1, #1
 8006cee:	430a      	orrs	r2, r1
 8006cf0:	601a      	str	r2, [r3, #0]

  /*!< Reset SW[1:0], HPRE[3:0], PPRE1[2:0], PPRE2[2:0], MCOSEL[2:0] and MCOPRE[2:0] bits */
  RCC->CFGR &= (uint32_t) 0x88FF400CU;
 8006cf2:	4b14      	ldr	r3, [pc, #80]	; (8006d44 <SystemInit+0x64>)
 8006cf4:	4a13      	ldr	r2, [pc, #76]	; (8006d44 <SystemInit+0x64>)
 8006cf6:	68d2      	ldr	r2, [r2, #12]
 8006cf8:	4913      	ldr	r1, [pc, #76]	; (8006d48 <SystemInit+0x68>)
 8006cfa:	400a      	ands	r2, r1
 8006cfc:	60da      	str	r2, [r3, #12]
 
  /*!< Reset HSION, HSIDIVEN, HSEON, CSSON and PLLON bits */
  RCC->CR &= (uint32_t)0xFEF6FFF6U;
 8006cfe:	4b11      	ldr	r3, [pc, #68]	; (8006d44 <SystemInit+0x64>)
 8006d00:	4a10      	ldr	r2, [pc, #64]	; (8006d44 <SystemInit+0x64>)
 8006d02:	6812      	ldr	r2, [r2, #0]
 8006d04:	4911      	ldr	r1, [pc, #68]	; (8006d4c <SystemInit+0x6c>)
 8006d06:	400a      	ands	r2, r1
 8006d08:	601a      	str	r2, [r3, #0]
  
  /*!< Reset HSI48ON  bit */
  RCC->CRRCR &= (uint32_t)0xFFFFFFFEU;
 8006d0a:	4b0e      	ldr	r3, [pc, #56]	; (8006d44 <SystemInit+0x64>)
 8006d0c:	4a0d      	ldr	r2, [pc, #52]	; (8006d44 <SystemInit+0x64>)
 8006d0e:	6892      	ldr	r2, [r2, #8]
 8006d10:	2101      	movs	r1, #1
 8006d12:	438a      	bics	r2, r1
 8006d14:	609a      	str	r2, [r3, #8]
  
  /*!< Reset HSEBYP bit */
  RCC->CR &= (uint32_t)0xFFFBFFFFU;
 8006d16:	4b0b      	ldr	r3, [pc, #44]	; (8006d44 <SystemInit+0x64>)
 8006d18:	4a0a      	ldr	r2, [pc, #40]	; (8006d44 <SystemInit+0x64>)
 8006d1a:	6812      	ldr	r2, [r2, #0]
 8006d1c:	490c      	ldr	r1, [pc, #48]	; (8006d50 <SystemInit+0x70>)
 8006d1e:	400a      	ands	r2, r1
 8006d20:	601a      	str	r2, [r3, #0]

  /*!< Reset PLLSRC, PLLMUL[3:0] and PLLDIV[1:0] bits */
  RCC->CFGR &= (uint32_t)0xFF02FFFFU;
 8006d22:	4b08      	ldr	r3, [pc, #32]	; (8006d44 <SystemInit+0x64>)
 8006d24:	4a07      	ldr	r2, [pc, #28]	; (8006d44 <SystemInit+0x64>)
 8006d26:	68d2      	ldr	r2, [r2, #12]
 8006d28:	490a      	ldr	r1, [pc, #40]	; (8006d54 <SystemInit+0x74>)
 8006d2a:	400a      	ands	r2, r1
 8006d2c:	60da      	str	r2, [r3, #12]

  /*!< Disable all interrupts */
  RCC->CIER = 0x00000000U;
 8006d2e:	4b05      	ldr	r3, [pc, #20]	; (8006d44 <SystemInit+0x64>)
 8006d30:	2200      	movs	r2, #0
 8006d32:	611a      	str	r2, [r3, #16]
  
  /* Configure the Vector Table location add offset address ------------------*/
#ifdef VECT_TAB_SRAM
  SCB->VTOR = SRAM_BASE | VECT_TAB_OFFSET; /* Vector Table Relocation in Internal SRAM */
#else
  SCB->VTOR = FLASH_BASE | VECT_TAB_OFFSET; /* Vector Table Relocation in Internal FLASH */
 8006d34:	4b08      	ldr	r3, [pc, #32]	; (8006d58 <SystemInit+0x78>)
 8006d36:	2280      	movs	r2, #128	; 0x80
 8006d38:	0512      	lsls	r2, r2, #20
 8006d3a:	609a      	str	r2, [r3, #8]
#endif
}
 8006d3c:	46c0      	nop			; (mov r8, r8)
 8006d3e:	46bd      	mov	sp, r7
 8006d40:	bd80      	pop	{r7, pc}
 8006d42:	46c0      	nop			; (mov r8, r8)
 8006d44:	40021000 	.word	0x40021000
 8006d48:	88ff400c 	.word	0x88ff400c
 8006d4c:	fef6fff6 	.word	0xfef6fff6
 8006d50:	fffbffff 	.word	0xfffbffff
 8006d54:	ff02ffff 	.word	0xff02ffff
 8006d58:	e000ed00 	.word	0xe000ed00

08006d5c <tsl_user_Init>:
  * @brief  Initialize the STMTouch Driver
  * @param  None
  * @retval None
  */
void tsl_user_Init(void)
{
 8006d5c:	b580      	push	{r7, lr}
 8006d5e:	af00      	add	r7, sp, #0
  TSL_obj_GroupInit(&MyObjGroup); /* Init Objects */
 8006d60:	4b06      	ldr	r3, [pc, #24]	; (8006d7c <tsl_user_Init+0x20>)
 8006d62:	0018      	movs	r0, r3
 8006d64:	f7fd fd2c 	bl	80047c0 <TSL_obj_GroupInit>
  
  TSL_Init(MyBanks); /* Init acquisition module */
 8006d68:	4b05      	ldr	r3, [pc, #20]	; (8006d80 <tsl_user_Init+0x24>)
 8006d6a:	0018      	movs	r0, r3
 8006d6c:	f7fd f826 	bl	8003dbc <TSL_Init>
  
  tsl_user_SetThresholds(); /* Init thresholds for each object individually (optional) */
 8006d70:	f000 f87c 	bl	8006e6c <tsl_user_SetThresholds>
}
 8006d74:	46c0      	nop			; (mov r8, r8)
 8006d76:	46bd      	mov	sp, r7
 8006d78:	bd80      	pop	{r7, pc}
 8006d7a:	46c0      	nop			; (mov r8, r8)
 8006d7c:	20000008 	.word	0x20000008
 8006d80:	08007458 	.word	0x08007458

08006d84 <tsl_user_Exec>:
  * @brief  Execute STMTouch Driver main State machine
  * @param  None
  * @retval status Return TSL_STATUS_OK if the acquisition is done
  */
tsl_user_status_t tsl_user_Exec(void)
{
 8006d84:	b580      	push	{r7, lr}
 8006d86:	b082      	sub	sp, #8
 8006d88:	af00      	add	r7, sp, #0
  static uint32_t idx_bank = 0;
  static uint32_t config_done = 0;
  tsl_user_status_t status = TSL_USER_STATUS_BUSY;
 8006d8a:	1dfb      	adds	r3, r7, #7
 8006d8c:	2200      	movs	r2, #0
 8006d8e:	701a      	strb	r2, [r3, #0]

  /* Configure and start bank acquisition */
  if (!config_done)
 8006d90:	4b30      	ldr	r3, [pc, #192]	; (8006e54 <tsl_user_Exec+0xd0>)
 8006d92:	681b      	ldr	r3, [r3, #0]
 8006d94:	2b00      	cmp	r3, #0
 8006d96:	d10a      	bne.n	8006dae <tsl_user_Exec+0x2a>
  {
/* USER CODE BEGIN not config_done start*/

/* USER CODE END not config_done start*/
    TSL_acq_BankConfig(idx_bank);
 8006d98:	4b2f      	ldr	r3, [pc, #188]	; (8006e58 <tsl_user_Exec+0xd4>)
 8006d9a:	681b      	ldr	r3, [r3, #0]
 8006d9c:	b2db      	uxtb	r3, r3
 8006d9e:	0018      	movs	r0, r3
 8006da0:	f7fd f9da 	bl	8004158 <TSL_acq_BankConfig>
    TSL_acq_BankStartAcq();
 8006da4:	f7fd fa44 	bl	8004230 <TSL_acq_BankStartAcq>
    config_done = 1;
 8006da8:	4b2a      	ldr	r3, [pc, #168]	; (8006e54 <tsl_user_Exec+0xd0>)
 8006daa:	2201      	movs	r2, #1
 8006dac:	601a      	str	r2, [r3, #0]

/* USER CODE END not config_done */
  }

  /* Check end of acquisition (polling mode) and read result */
  if (TSL_acq_BankWaitEOC() == TSL_STATUS_OK)
 8006dae:	f7fd fa5f 	bl	8004270 <TSL_acq_BankWaitEOC>
 8006db2:	1e03      	subs	r3, r0, #0
 8006db4:	d10f      	bne.n	8006dd6 <tsl_user_Exec+0x52>
  {
/* USER CODE BEGIN end of acquisition start*/

/* USER CODE END end of acquisition start*/
    STMSTUDIO_LOCK;
    TSL_acq_BankGetResult(idx_bank, 0, 0);
 8006db6:	4b28      	ldr	r3, [pc, #160]	; (8006e58 <tsl_user_Exec+0xd4>)
 8006db8:	681b      	ldr	r3, [r3, #0]
 8006dba:	b2db      	uxtb	r3, r3
 8006dbc:	2200      	movs	r2, #0
 8006dbe:	2100      	movs	r1, #0
 8006dc0:	0018      	movs	r0, r3
 8006dc2:	f7fd f827 	bl	8003e14 <TSL_acq_BankGetResult>
    STMSTUDIO_UNLOCK;
    idx_bank++; /* Next bank */
 8006dc6:	4b24      	ldr	r3, [pc, #144]	; (8006e58 <tsl_user_Exec+0xd4>)
 8006dc8:	681b      	ldr	r3, [r3, #0]
 8006dca:	1c5a      	adds	r2, r3, #1
 8006dcc:	4b22      	ldr	r3, [pc, #136]	; (8006e58 <tsl_user_Exec+0xd4>)
 8006dce:	601a      	str	r2, [r3, #0]
    config_done = 0;
 8006dd0:	4b20      	ldr	r3, [pc, #128]	; (8006e54 <tsl_user_Exec+0xd0>)
 8006dd2:	2200      	movs	r2, #0
 8006dd4:	601a      	str	r2, [r3, #0]
  }

  /* Process objects, DxS and ECS
     Check if all banks have been acquired
  */
  if (idx_bank > TSLPRM_TOTAL_BANKS-1)
 8006dd6:	4b20      	ldr	r3, [pc, #128]	; (8006e58 <tsl_user_Exec+0xd4>)
 8006dd8:	681b      	ldr	r3, [r3, #0]
 8006dda:	2b00      	cmp	r3, #0
 8006ddc:	d028      	beq.n	8006e30 <tsl_user_Exec+0xac>
  {
/* USER CODE BEGIN before reset*/

/* USER CODE END before reset*/
    /* Reset flags for next banks acquisition */
    idx_bank = 0;
 8006dde:	4b1e      	ldr	r3, [pc, #120]	; (8006e58 <tsl_user_Exec+0xd4>)
 8006de0:	2200      	movs	r2, #0
 8006de2:	601a      	str	r2, [r3, #0]
    config_done = 0;
 8006de4:	4b1b      	ldr	r3, [pc, #108]	; (8006e54 <tsl_user_Exec+0xd0>)
 8006de6:	2200      	movs	r2, #0
 8006de8:	601a      	str	r2, [r3, #0]
    
    /* Process Objects */
    TSL_obj_GroupProcess(&MyObjGroup);
 8006dea:	4b1c      	ldr	r3, [pc, #112]	; (8006e5c <tsl_user_Exec+0xd8>)
 8006dec:	0018      	movs	r0, r3
 8006dee:	f7fd fd45 	bl	800487c <TSL_obj_GroupProcess>
    
    /* DxS processing (if TSLPRM_USE_DXS option is set) */
    TSL_dxs_FirstObj(&MyObjGroup);
 8006df2:	4b1a      	ldr	r3, [pc, #104]	; (8006e5c <tsl_user_Exec+0xd8>)
 8006df4:	0018      	movs	r0, r3
 8006df6:	f7fd fad9 	bl	80043ac <TSL_dxs_FirstObj>
    
    /* ECS every TSLPRM_ECS_DELAY (in ms) */
    if (TSL_tim_CheckDelay_ms(TSLPRM_ECS_DELAY, &ECSLastTick) == TSL_STATUS_OK)
 8006dfa:	4a19      	ldr	r2, [pc, #100]	; (8006e60 <tsl_user_Exec+0xdc>)
 8006dfc:	23fa      	movs	r3, #250	; 0xfa
 8006dfe:	005b      	lsls	r3, r3, #1
 8006e00:	0011      	movs	r1, r2
 8006e02:	0018      	movs	r0, r3
 8006e04:	f7fd fddc 	bl	80049c0 <TSL_tim_CheckDelay_ms>
 8006e08:	1e03      	subs	r3, r0, #0
 8006e0a:	d10d      	bne.n	8006e28 <tsl_user_Exec+0xa4>
    {
      if (TSL_ecs_Process(&MyObjGroup) == TSL_STATUS_OK)
 8006e0c:	4b13      	ldr	r3, [pc, #76]	; (8006e5c <tsl_user_Exec+0xd8>)
 8006e0e:	0018      	movs	r0, r3
 8006e10:	f7fd fc64 	bl	80046dc <TSL_ecs_Process>
 8006e14:	1e03      	subs	r3, r0, #0
 8006e16:	d103      	bne.n	8006e20 <tsl_user_Exec+0x9c>
      {
        status = TSL_USER_STATUS_OK_ECS_ON;
 8006e18:	1dfb      	adds	r3, r7, #7
 8006e1a:	2202      	movs	r2, #2
 8006e1c:	701a      	strb	r2, [r3, #0]
 8006e1e:	e00a      	b.n	8006e36 <tsl_user_Exec+0xb2>
      }
      else
      {
        status = TSL_USER_STATUS_OK_ECS_OFF;
 8006e20:	1dfb      	adds	r3, r7, #7
 8006e22:	2203      	movs	r2, #3
 8006e24:	701a      	strb	r2, [r3, #0]
 8006e26:	e006      	b.n	8006e36 <tsl_user_Exec+0xb2>
      }
    }
    else
    {
      status = TSL_USER_STATUS_OK_NO_ECS;
 8006e28:	1dfb      	adds	r3, r7, #7
 8006e2a:	2201      	movs	r2, #1
 8006e2c:	701a      	strb	r2, [r3, #0]
 8006e2e:	e002      	b.n	8006e36 <tsl_user_Exec+0xb2>

/* USER CODE END Process objects */
  }
  else
  {
    status = TSL_USER_STATUS_BUSY;
 8006e30:	1dfb      	adds	r3, r7, #7
 8006e32:	2200      	movs	r2, #0
 8006e34:	701a      	strb	r2, [r3, #0]
/* USER CODE BEGIN TSL_USER_STATUS_BUSY */

/* USER CODE END TSL_USER_STATUS_BUSY */
  }
  TSL_tMeas_T measure = MyTKeysB[0].p_ChD->Meas;
 8006e36:	4a0b      	ldr	r2, [pc, #44]	; (8006e64 <tsl_user_Exec+0xe0>)
 8006e38:	1d3b      	adds	r3, r7, #4
 8006e3a:	8952      	ldrh	r2, [r2, #10]
 8006e3c:	801a      	strh	r2, [r3, #0]
  TSL_StateId_enum_T state = MyTKeysB[0].p_Data->StateId;
 8006e3e:	4a0a      	ldr	r2, [pc, #40]	; (8006e68 <tsl_user_Exec+0xe4>)
 8006e40:	1cfb      	adds	r3, r7, #3
 8006e42:	7812      	ldrb	r2, [r2, #0]
 8006e44:	701a      	strb	r2, [r3, #0]
  return status;
 8006e46:	1dfb      	adds	r3, r7, #7
 8006e48:	781b      	ldrb	r3, [r3, #0]
}
 8006e4a:	0018      	movs	r0, r3
 8006e4c:	46bd      	mov	sp, r7
 8006e4e:	b002      	add	sp, #8
 8006e50:	bd80      	pop	{r7, pc}
 8006e52:	46c0      	nop			; (mov r8, r8)
 8006e54:	20000460 	.word	0x20000460
 8006e58:	20000464 	.word	0x20000464
 8006e5c:	20000008 	.word	0x20000008
 8006e60:	20000582 	.word	0x20000582
 8006e64:	2000056c 	.word	0x2000056c
 8006e68:	20000584 	.word	0x20000584

08006e6c <tsl_user_SetThresholds>:
  * @brief  Set thresholds for each object (optional).
  * @param  None
  * @retval None
  */
void tsl_user_SetThresholds(void)
{
 8006e6c:	b580      	push	{r7, lr}
 8006e6e:	af00      	add	r7, sp, #0
  /* Example: Decrease the Detect thresholds for the TKEY 0
  MyTKeys_Param[0].DetectInTh -= 10;
  MyTKeys_Param[0].DetectOutTh -= 10;
  */
/* USER CODE END Tsl_user_SetThresholds */
  }
 8006e70:	46c0      	nop			; (mov r8, r8)
 8006e72:	46bd      	mov	sp, r7
 8006e74:	bd80      	pop	{r7, pc}

08006e76 <MyTKeys_ErrorStateProcess>:
  * @brief  Executed when a sensor is in Error state
  * @param  None
  * @retval None
  */
  void MyTKeys_ErrorStateProcess(void)
{
 8006e76:	b580      	push	{r7, lr}
 8006e78:	af00      	add	r7, sp, #0
  /* Add here your own processing when a sensor is in Error state */
}
 8006e7a:	46c0      	nop			; (mov r8, r8)
 8006e7c:	46bd      	mov	sp, r7
 8006e7e:	bd80      	pop	{r7, pc}

08006e80 <MyTKeys_OffStateProcess>:
  * @brief  Executed when a sensor is in Off state
  * @param  None
  * @retval None
  */
void MyTKeys_OffStateProcess(void)
{
 8006e80:	b580      	push	{r7, lr}
 8006e82:	af00      	add	r7, sp, #0
  /* Add here your own processing when a sensor is in Off state */
}
 8006e84:	46c0      	nop			; (mov r8, r8)
 8006e86:	46bd      	mov	sp, r7
 8006e88:	bd80      	pop	{r7, pc}
	...

08006e8c <Reset_Handler>:

    .section  .text.Reset_Handler
  .weak  Reset_Handler
  .type  Reset_Handler, %function
Reset_Handler:  
   ldr   r0, =_estack
 8006e8c:	480d      	ldr	r0, [pc, #52]	; (8006ec4 <LoopForever+0x2>)
   mov   sp, r0          /* set stack pointer */
 8006e8e:	4685      	mov	sp, r0

/* Copy the data segment initializers from flash to SRAM */
  movs  r1, #0
 8006e90:	2100      	movs	r1, #0
  b  LoopCopyDataInit
 8006e92:	e003      	b.n	8006e9c <LoopCopyDataInit>

08006e94 <CopyDataInit>:

CopyDataInit:
  ldr  r3, =_sidata
 8006e94:	4b0c      	ldr	r3, [pc, #48]	; (8006ec8 <LoopForever+0x6>)
  ldr  r3, [r3, r1]
 8006e96:	585b      	ldr	r3, [r3, r1]
  str  r3, [r0, r1]
 8006e98:	5043      	str	r3, [r0, r1]
  adds  r1, r1, #4
 8006e9a:	3104      	adds	r1, #4

08006e9c <LoopCopyDataInit>:

LoopCopyDataInit:
  ldr  r0, =_sdata
 8006e9c:	480b      	ldr	r0, [pc, #44]	; (8006ecc <LoopForever+0xa>)
  ldr  r3, =_edata
 8006e9e:	4b0c      	ldr	r3, [pc, #48]	; (8006ed0 <LoopForever+0xe>)
  adds  r2, r0, r1
 8006ea0:	1842      	adds	r2, r0, r1
  cmp  r2, r3
 8006ea2:	429a      	cmp	r2, r3
  bcc  CopyDataInit
 8006ea4:	d3f6      	bcc.n	8006e94 <CopyDataInit>
  ldr  r2, =_sbss
 8006ea6:	4a0b      	ldr	r2, [pc, #44]	; (8006ed4 <LoopForever+0x12>)
  b  LoopFillZerobss
 8006ea8:	e002      	b.n	8006eb0 <LoopFillZerobss>

08006eaa <FillZerobss>:
/* Zero fill the bss segment. */
FillZerobss:
  movs  r3, #0
 8006eaa:	2300      	movs	r3, #0
  str  r3, [r2]
 8006eac:	6013      	str	r3, [r2, #0]
  adds r2, r2, #4
 8006eae:	3204      	adds	r2, #4

08006eb0 <LoopFillZerobss>:


LoopFillZerobss:
  ldr  r3, = _ebss
 8006eb0:	4b09      	ldr	r3, [pc, #36]	; (8006ed8 <LoopForever+0x16>)
  cmp  r2, r3
 8006eb2:	429a      	cmp	r2, r3
  bcc  FillZerobss
 8006eb4:	d3f9      	bcc.n	8006eaa <FillZerobss>

/* Call the clock system intitialization function.*/
  bl  SystemInit
 8006eb6:	f7ff ff13 	bl	8006ce0 <SystemInit>
/* Call static constructors */
    bl __libc_init_array
 8006eba:	f000 f811 	bl	8006ee0 <__libc_init_array>
/* Call the application's entry point.*/
  bl  main
 8006ebe:	f7ff f82b 	bl	8005f18 <main>

08006ec2 <LoopForever>:

LoopForever:
    b LoopForever
 8006ec2:	e7fe      	b.n	8006ec2 <LoopForever>
   ldr   r0, =_estack
 8006ec4:	20002000 	.word	0x20002000
  ldr  r3, =_sidata
 8006ec8:	08007534 	.word	0x08007534
  ldr  r0, =_sdata
 8006ecc:	20000000 	.word	0x20000000
  ldr  r3, =_edata
 8006ed0:	20000028 	.word	0x20000028
  ldr  r2, =_sbss
 8006ed4:	20000028 	.word	0x20000028
  ldr  r3, = _ebss
 8006ed8:	20000588 	.word	0x20000588

08006edc <ADC1_COMP_IRQHandler>:
 * @retval : None
*/
    .section  .text.Default_Handler,"ax",%progbits
Default_Handler:
Infinite_Loop:
  b  Infinite_Loop
 8006edc:	e7fe      	b.n	8006edc <ADC1_COMP_IRQHandler>
	...

08006ee0 <__libc_init_array>:
 8006ee0:	b570      	push	{r4, r5, r6, lr}
 8006ee2:	2600      	movs	r6, #0
 8006ee4:	4d0c      	ldr	r5, [pc, #48]	; (8006f18 <__libc_init_array+0x38>)
 8006ee6:	4c0d      	ldr	r4, [pc, #52]	; (8006f1c <__libc_init_array+0x3c>)
 8006ee8:	1b64      	subs	r4, r4, r5
 8006eea:	10a4      	asrs	r4, r4, #2
 8006eec:	42a6      	cmp	r6, r4
 8006eee:	d109      	bne.n	8006f04 <__libc_init_array+0x24>
 8006ef0:	2600      	movs	r6, #0
 8006ef2:	f000 f819 	bl	8006f28 <_init>
 8006ef6:	4d0a      	ldr	r5, [pc, #40]	; (8006f20 <__libc_init_array+0x40>)
 8006ef8:	4c0a      	ldr	r4, [pc, #40]	; (8006f24 <__libc_init_array+0x44>)
 8006efa:	1b64      	subs	r4, r4, r5
 8006efc:	10a4      	asrs	r4, r4, #2
 8006efe:	42a6      	cmp	r6, r4
 8006f00:	d105      	bne.n	8006f0e <__libc_init_array+0x2e>
 8006f02:	bd70      	pop	{r4, r5, r6, pc}
 8006f04:	00b3      	lsls	r3, r6, #2
 8006f06:	58eb      	ldr	r3, [r5, r3]
 8006f08:	4798      	blx	r3
 8006f0a:	3601      	adds	r6, #1
 8006f0c:	e7ee      	b.n	8006eec <__libc_init_array+0xc>
 8006f0e:	00b3      	lsls	r3, r6, #2
 8006f10:	58eb      	ldr	r3, [r5, r3]
 8006f12:	4798      	blx	r3
 8006f14:	3601      	adds	r6, #1
 8006f16:	e7f2      	b.n	8006efe <__libc_init_array+0x1e>
 8006f18:	0800752c 	.word	0x0800752c
 8006f1c:	0800752c 	.word	0x0800752c
 8006f20:	0800752c 	.word	0x0800752c
 8006f24:	08007530 	.word	0x08007530

08006f28 <_init>:
 8006f28:	b5f8      	push	{r3, r4, r5, r6, r7, lr}
 8006f2a:	46c0      	nop			; (mov r8, r8)
 8006f2c:	bcf8      	pop	{r3, r4, r5, r6, r7}
 8006f2e:	bc08      	pop	{r3}
 8006f30:	469e      	mov	lr, r3
 8006f32:	4770      	bx	lr

08006f34 <_fini>:
 8006f34:	b5f8      	push	{r3, r4, r5, r6, r7, lr}
 8006f36:	46c0      	nop			; (mov r8, r8)
 8006f38:	bcf8      	pop	{r3, r4, r5, r6, r7}
 8006f3a:	bc08      	pop	{r3}
 8006f3c:	469e      	mov	lr, r3
 8006f3e:	4770      	bx	lr
